
niosII_Custom_Peripheral.elf:     file format elf32-littlenios2
niosII_Custom_Peripheral.elf
architecture: nios2:r1, flags 0x00000112:
EXEC_P, HAS_SYMS, D_PAGED
start address 0x000401c0

Program Header:
    LOAD off    0x00001000 vaddr 0x00040000 paddr 0x00040000 align 2**12
         filesz 0x00000020 memsz 0x00000020 flags r-x
    LOAD off    0x00001020 vaddr 0x00040020 paddr 0x00040020 align 2**12
         filesz 0x0000afd4 memsz 0x0000afd4 flags r-x
    LOAD off    0x0000bff4 vaddr 0x0004aff4 paddr 0x0004ca60 align 2**12
         filesz 0x00001a6c memsz 0x00001a6c flags rw-
    LOAD off    0x0000e4cc vaddr 0x0004e4cc paddr 0x0004e4cc align 2**12
         filesz 0x00000000 memsz 0x00000150 flags rw-

Sections:
Idx Name          Size      VMA       LMA       File off  Algn
  0 .entry        00000020  00040000  00040000  00001000  2**5
                  CONTENTS, ALLOC, LOAD, READONLY, CODE
  1 .exceptions   000001a0  00040020  00040020  00001020  2**2
                  CONTENTS, ALLOC, LOAD, READONLY, CODE
  2 .text         0000ab08  000401c0  000401c0  000011c0  2**2
                  CONTENTS, ALLOC, LOAD, READONLY, CODE
  3 .rodata       0000032c  0004acc8  0004acc8  0000bcc8  2**2
                  CONTENTS, ALLOC, LOAD, READONLY, DATA
  4 .rwdata       00001a6c  0004aff4  0004ca60  0000bff4  2**2
                  CONTENTS, ALLOC, LOAD, DATA, SMALL_DATA
  5 .bss          00000150  0004e4cc  0004e4cc  0000e4cc  2**2
                  ALLOC, SMALL_DATA
  6 .onchip_memory2 00000000  0004e61c  0004e61c  0000da60  2**0
                  CONTENTS
  7 .comment      00000023  00000000  00000000  0000da60  2**0
                  CONTENTS, READONLY
  8 .debug_aranges 00000d60  00000000  00000000  0000da88  2**3
                  CONTENTS, READONLY, DEBUGGING
  9 .debug_info   0001a360  00000000  00000000  0000e7e8  2**0
                  CONTENTS, READONLY, DEBUGGING
 10 .debug_abbrev 00007aa3  00000000  00000000  00028b48  2**0
                  CONTENTS, READONLY, DEBUGGING
 11 .debug_line   00009108  00000000  00000000  000305eb  2**0
                  CONTENTS, READONLY, DEBUGGING
 12 .debug_frame  00001b44  00000000  00000000  000396f4  2**2
                  CONTENTS, READONLY, DEBUGGING
 13 .debug_str    00002f75  00000000  00000000  0003b238  2**0
                  CONTENTS, READONLY, DEBUGGING
 14 .debug_loc    0000e4c3  00000000  00000000  0003e1ad  2**0
                  CONTENTS, READONLY, DEBUGGING
 15 .debug_alt_sim_info 00000060  00000000  00000000  0004c670  2**2
                  CONTENTS, READONLY, DEBUGGING
 16 .debug_ranges 000012f8  00000000  00000000  0004c6d0  2**3
                  CONTENTS, READONLY, DEBUGGING
 17 .thread_model 00000003  00000000  00000000  000504f2  2**0
                  CONTENTS, READONLY
 18 .cpu          0000000a  00000000  00000000  000504f5  2**0
                  CONTENTS, READONLY
 19 .qsys         00000001  00000000  00000000  000504ff  2**0
                  CONTENTS, READONLY
 20 .simulation_enabled 00000001  00000000  00000000  00050500  2**0
                  CONTENTS, READONLY
 21 .sysid_hash   00000004  00000000  00000000  00050501  2**0
                  CONTENTS, READONLY
 22 .sysid_base   00000004  00000000  00000000  00050505  2**0
                  CONTENTS, READONLY
 23 .sysid_time   00000004  00000000  00000000  00050509  2**0
                  CONTENTS, READONLY
 24 .stderr_dev   00000009  00000000  00000000  0005050d  2**0
                  CONTENTS, READONLY
 25 .stdin_dev    00000009  00000000  00000000  00050516  2**0
                  CONTENTS, READONLY
 26 .stdout_dev   00000009  00000000  00000000  0005051f  2**0
                  CONTENTS, READONLY
 27 .sopc_system_name 0000000c  00000000  00000000  00050528  2**0
                  CONTENTS, READONLY
 28 .quartus_project_dir 00000055  00000000  00000000  00050534  2**0
                  CONTENTS, READONLY
 29 .jdi          0000547b  00000000  00000000  00050589  2**0
                  CONTENTS, READONLY
 30 .sopcinfo     0006a5a6  00000000  00000000  00055a04  2**0
                  CONTENTS, READONLY
SYMBOL TABLE:
00040000 l    d  .entry	00000000 .entry
00040020 l    d  .exceptions	00000000 .exceptions
000401c0 l    d  .text	00000000 .text
0004acc8 l    d  .rodata	00000000 .rodata
0004aff4 l    d  .rwdata	00000000 .rwdata
0004e4cc l    d  .bss	00000000 .bss
0004e61c l    d  .onchip_memory2	00000000 .onchip_memory2
00000000 l    d  .comment	00000000 .comment
00000000 l    d  .debug_aranges	00000000 .debug_aranges
00000000 l    d  .debug_info	00000000 .debug_info
00000000 l    d  .debug_abbrev	00000000 .debug_abbrev
00000000 l    d  .debug_line	00000000 .debug_line
00000000 l    d  .debug_frame	00000000 .debug_frame
00000000 l    d  .debug_str	00000000 .debug_str
00000000 l    d  .debug_loc	00000000 .debug_loc
00000000 l    d  .debug_alt_sim_info	00000000 .debug_alt_sim_info
00000000 l    d  .debug_ranges	00000000 .debug_ranges
00000000 l    df *ABS*	00000000 ../niosII_Custom_Peripheral_bsp//obj/HAL/src/crt0.o
00040208 l       .text	00000000 alt_after_alt_main
00000000 l    df *ABS*	00000000 alt_exception_entry.o
00040094 l       .exceptions	00000000 alt_exception_unknown
00000000 l    df *ABS*	00000000 alt_irq_handler.c
00000000 l    df *ABS*	00000000 heartbeat.c
00000000 l    df *ABS*	00000000 s_sin.c
00000000 l    df *ABS*	00000000 e_rem_pio2.c
0004ad68 l     O .rodata	00000108 two_over_pi
0004ace8 l     O .rodata	00000080 npio2_hw
00000000 l    df *ABS*	00000000 k_cos.c
00000000 l    df *ABS*	00000000 k_rem_pio2.c
0004aeb0 l     O .rodata	00000010 init_jk
0004ae70 l     O .rodata	00000040 PIo2
00000000 l    df *ABS*	00000000 k_sin.c
00000000 l    df *ABS*	00000000 s_fabs.c
00000000 l    df *ABS*	00000000 s_floor.c
00000000 l    df *ABS*	00000000 s_scalbn.c
00000000 l    df *ABS*	00000000 s_copysign.c
00000000 l    df *ABS*	00000000 lib2-divmod.c
00000000 l    df *ABS*	00000000 addsf3.c
00000000 l    df *ABS*	00000000 mulsf3.c
00000000 l    df *ABS*	00000000 fixsfsi.c
00000000 l    df *ABS*	00000000 floatsisf.c
00000000 l    df *ABS*	00000000 adddf3.c
00000000 l    df *ABS*	00000000 divdf3.c
00000000 l    df *ABS*	00000000 eqdf2.c
00000000 l    df *ABS*	00000000 gedf2.c
00000000 l    df *ABS*	00000000 muldf3.c
00000000 l    df *ABS*	00000000 subdf3.c
00000000 l    df *ABS*	00000000 fixdfsi.c
00000000 l    df *ABS*	00000000 floatsidf.c
00000000 l    df *ABS*	00000000 extendsfdf2.c
00000000 l    df *ABS*	00000000 truncdfsf2.c
00000000 l    df *ABS*	00000000 libgcc2.c
00000000 l    df *ABS*	00000000 libgcc2.c
00000000 l    df *ABS*	00000000 puts.c
00000000 l    df *ABS*	00000000 strlen.c
00000000 l    df *ABS*	00000000 findfp.c
00045984 l     F .text	00000008 __fp_unlock
00045998 l     F .text	0000019c __sinit.part.1
00045b34 l     F .text	00000008 __fp_lock
00000000 l    df *ABS*	00000000 fvwrite.c
00000000 l    df *ABS*	00000000 fwalk.c
00000000 l    df *ABS*	00000000 impure.c
0004aff4 l     O .rwdata	00000424 impure_data
00000000 l    df *ABS*	00000000 mallocr.c
00000000 l    df *ABS*	00000000 memchr.c
00000000 l    df *ABS*	00000000 memcpy.c
00000000 l    df *ABS*	00000000 memmove.c
00000000 l    df *ABS*	00000000 memset.c
00000000 l    df *ABS*	00000000 mallocr.c
00000000 l    df *ABS*	00000000 sbrkr.c
00000000 l    df *ABS*	00000000 stdio.c
00000000 l    df *ABS*	00000000 writer.c
00000000 l    df *ABS*	00000000 wsetup.c
00000000 l    df *ABS*	00000000 closer.c
00000000 l    df *ABS*	00000000 fclose.c
00000000 l    df *ABS*	00000000 fflush.c
00000000 l    df *ABS*	00000000 mallocr.c
00000000 l    df *ABS*	00000000 int_errno.c
00000000 l    df *ABS*	00000000 lseekr.c
00000000 l    df *ABS*	00000000 makebuf.c
00000000 l    df *ABS*	00000000 readr.c
00000000 l    df *ABS*	00000000 fstatr.c
00000000 l    df *ABS*	00000000 isattyr.c
00000000 l    df *ABS*	00000000 alt_close.c
0004842c l     F .text	0000003c alt_get_errno
00000000 l    df *ABS*	00000000 alt_dev.c
00048538 l     F .text	0000002c alt_dev_null_write
00000000 l    df *ABS*	00000000 alt_errno.c
00000000 l    df *ABS*	00000000 alt_fstat.c
00048564 l     F .text	0000003c alt_get_errno
00000000 l    df *ABS*	00000000 alt_isatty.c
00048650 l     F .text	0000003c alt_get_errno
00000000 l    df *ABS*	00000000 alt_load.c
00048730 l     F .text	00000068 alt_load_section
00000000 l    df *ABS*	00000000 alt_lseek.c
0004881c l     F .text	0000003c alt_get_errno
00000000 l    df *ABS*	00000000 alt_main.c
00000000 l    df *ABS*	00000000 alt_malloc_lock.c
00000000 l    df *ABS*	00000000 alt_read.c
000489f0 l     F .text	0000003c alt_get_errno
00000000 l    df *ABS*	00000000 alt_release_fd.c
00000000 l    df *ABS*	00000000 alt_sbrk.c
0004ca50 l     O .rwdata	00000004 heap_end
00000000 l    df *ABS*	00000000 alt_usleep.c
00000000 l    df *ABS*	00000000 alt_write.c
00048c6c l     F .text	0000003c alt_get_errno
00000000 l    df *ABS*	00000000 alt_sys_init.c
00048da0 l     F .text	00000034 alt_dev_reg
0004b9c8 l     O .rwdata	00001060 jtag_uart
00000000 l    df *ABS*	00000000 altera_avalon_jtag_uart_fd.c
00000000 l    df *ABS*	00000000 altera_avalon_jtag_uart_init.c
00049094 l     F .text	0000020c altera_avalon_jtag_uart_irq
000492a0 l     F .text	000000a0 altera_avalon_jtag_uart_timeout
00000000 l    df *ABS*	00000000 altera_avalon_jtag_uart_ioctl.c
00000000 l    df *ABS*	00000000 altera_avalon_jtag_uart_read.c
00000000 l    df *ABS*	00000000 altera_avalon_jtag_uart_write.c
00000000 l    df *ABS*	00000000 altera_avalon_timer_sc.c
000498d8 l     F .text	00000078 alt_avalon_timer_sc_irq
00000000 l    df *ABS*	00000000 alt_alarm_start.c
00000000 l    df *ABS*	00000000 alt_busy_sleep.c
00000000 l    df *ABS*	00000000 alt_dcache_flush_all.c
00000000 l    df *ABS*	00000000 alt_dev_llist_insert.c
00049c98 l     F .text	0000003c alt_get_errno
00000000 l    df *ABS*	00000000 alt_do_ctors.c
00000000 l    df *ABS*	00000000 alt_do_dtors.c
00000000 l    df *ABS*	00000000 alt_icache_flush_all.c
00000000 l    df *ABS*	00000000 alt_iic.c
00000000 l    df *ABS*	00000000 alt_iic_isr_register.c
00000000 l    df *ABS*	00000000 alt_io_redirect.c
0004a10c l     F .text	000000c4 alt_open_fd
00000000 l    df *ABS*	00000000 alt_irq_vars.c
00000000 l    df *ABS*	00000000 alt_open.c
0004a24c l     F .text	0000003c alt_get_errno
0004a288 l     F .text	000000c4 alt_file_locked
00000000 l    df *ABS*	00000000 alt_tick.c
00000000 l    df *ABS*	00000000 altera_nios2_qsys_irq.c
00000000 l    df *ABS*	00000000 alt_find_dev.c
00000000 l    df *ABS*	00000000 alt_find_file.c
00000000 l    df *ABS*	00000000 alt_get_fd.c
00000000 l    df *ABS*	00000000 alt_icache_flush.c
00000000 l    df *ABS*	00000000 atexit.c
00000000 l    df *ABS*	00000000 exit.c
00000000 l    df *ABS*	00000000 memcmp.c
00000000 l    df *ABS*	00000000 __atexit.c
00000000 l    df *ABS*	00000000 __call_atexit.c
00000000 l    df *ABS*	00000000 alt_exit.c
000483d8 g     F .text	00000054 _isatty_r
0004892c g     F .text	0000007c alt_main
00045818 g     F .text	000000c0 _puts_r
0004e51c g     O .bss	00000100 alt_irq
000420d0 g     F .text	00000014 fabs
00048100 g     F .text	00000060 _lseek_r
0004ca60 g       *ABS*	00000000 __flash_rwdata_start
00044228 g     F .text	00000088 .hidden __eqdf2
0004e61c g       *ABS*	00000000 __alt_heap_start
000476b4 g     F .text	0000005c __sseek
00045cd4 g     F .text	00000010 __sinit
00045b3c g     F .text	00000068 __sfmoreglue
000489cc g     F .text	00000024 __malloc_unlock
00046da0 g     F .text	0000015c memmove
00045cbc g     F .text	00000018 _cleanup
00042f00 g     F .text	00000070 .hidden __fixsfsi
000442b0 g     F .text	000000dc .hidden __gtdf2
00040000 g     F .entry	0000001c __reset
00040020 g       *ABS*	00000000 __flash_exceptions_start
0004837c g     F .text	0000005c _fstat_r
0004e4d8 g     O .bss	00000004 errno
000420e4 g     F .text	000001ec floor
00047630 g     F .text	00000008 __seofread
0004e4e0 g     O .bss	00000004 alt_argv
00054a28 g       *ABS*	00000000 _gp
00048c3c g     F .text	00000030 usleep
0004b848 g     O .rwdata	00000180 alt_fd_list
00040464 g     F .text	0000076c __ieee754_rem_pio2
0004a668 g     F .text	00000090 alt_find_dev
00046c58 g     F .text	00000148 memcpy
0004598c g     F .text	0000000c _cleanup_r
00045420 g     F .text	000000dc .hidden __floatsidf
0004a1d0 g     F .text	0000007c alt_io_redirect
0004acc8 g       *ABS*	00000000 __DTOR_END__
000458d8 g     F .text	00000014 puts
00049498 g     F .text	0000021c altera_avalon_jtag_uart_read
00042580 g     F .text	00000064 .hidden __udivsi3
0004868c g     F .text	000000a4 isatty
00040bd0 g     F .text	000004a4 __kernel_cos
0004a8a4 g     F .text	00000090 alt_icache_flush
0004e4d4 g     O .bss	00000004 __malloc_top_pad
00045d24 g     F .text	000004bc __sfvwrite_r
00047588 g     F .text	00000054 _sbrk_r
0004831c g     F .text	00000060 _read_r
0004ca48 g     O .rwdata	00000004 alt_max_fd
00047920 g     F .text	000000f0 _fclose_r
00047c9c g     F .text	00000030 fflush
0004e4d0 g     O .bss	00000004 __malloc_max_sbrked_mem
00041e04 g     F .text	000002cc __kernel_sin
000454fc g     F .text	00000110 .hidden __extendsfdf2
00043094 g     F .text	000008ac .hidden __adddf3
00048858 g     F .text	000000d4 lseek
0004ca28 g     O .rwdata	00000004 _global_impure_ptr
00047024 g     F .text	00000564 _realloc_r
0004e61c g       *ABS*	00000000 __bss_end
0004a01c g     F .text	000000f0 alt_iic_isr_register
0004a53c g     F .text	00000108 alt_tick
00045cf4 g     F .text	00000018 __fp_lock_all
00049fd0 g     F .text	0000004c alt_ic_irq_enabled
0004a4a0 g     F .text	0000009c alt_alarm_stop
0004e4e8 g     O .bss	00000004 alt_irq_active
000400ec g     F .exceptions	000000d4 alt_irq_handler
0004b820 g     O .rwdata	00000028 alt_dev_null
00041074 g     F .text	00000d90 __kernel_rem_pio2
00049c50 g     F .text	00000048 alt_dcache_flush_all
000453a0 g     F .text	00000080 .hidden __fixdfsi
0004ca60 g       *ABS*	00000000 __ram_rwdata_end
0004ca40 g     O .rwdata	00000008 alt_dev_list
00048ca8 g     F .text	000000f8 write
0004aff4 g       *ABS*	00000000 __ram_rodata_end
000485a0 g     F .text	000000b0 fstat
000425e4 g     F .text	00000058 .hidden __umodsi3
0004e61c g       *ABS*	00000000 end
00048fd4 g     F .text	000000c0 altera_avalon_jtag_uart_init
0004acc8 g       *ABS*	00000000 __CTOR_LIST__
00067100 g       *ABS*	00000000 __alt_stack_pointer
00049950 g     F .text	0000007c alt_avalon_timer_sc_init
000457b4 g     F .text	00000064 .hidden __clzsi2
000496b4 g     F .text	00000224 altera_avalon_jtag_uart_write
00045ce4 g     F .text	00000004 __sfp_lock_acquire
00046b74 g     F .text	000000e4 memchr
00047df0 g     F .text	00000310 _free_r
0004ab14 g     F .text	00000180 __call_exitprocs
0004ca30 g     O .rwdata	00000004 __malloc_sbrk_base
000401c0 g     F .text	0000004c _start
0004e4ec g     O .bss	00000004 _alt_tick_rate
00040374 g     F .text	000000f0 sin
0004e4f0 g     O .bss	00000004 _alt_nticks
00048a2c g     F .text	000000fc read
00048e0c g     F .text	00000064 alt_sys_init
00042f70 g     F .text	00000124 .hidden __floatsisf
0004a9fc g     F .text	00000118 __register_exitproc
00049340 g     F .text	00000068 altera_avalon_jtag_uart_close
0004aff4 g       *ABS*	00000000 __ram_rwdata_start
0004acc8 g       *ABS*	00000000 __ram_rodata_start
0004e4f4 g     O .bss	00000028 __malloc_current_mallinfo
00048e70 g     F .text	00000060 altera_avalon_jtag_uart_read_fd
0004a800 g     F .text	000000a4 alt_get_fd
00049af8 g     F .text	00000158 alt_busy_sleep
000478cc g     F .text	00000054 _close_r
0004a980 g     F .text	0000007c memcmp
00048f30 g     F .text	00000050 altera_avalon_jtag_uart_close_fd
0004e61c g       *ABS*	00000000 __alt_stack_base
00048f80 g     F .text	00000054 altera_avalon_jtag_uart_ioctl_fd
00047778 g     F .text	00000154 __swsetup_r
00043940 g     F .text	000008e8 .hidden __divdf3
00045ba4 g     F .text	00000118 __sfp
0004b418 g     O .rwdata	00000408 __malloc_av_
00045cf0 g     F .text	00000004 __sinit_lock_release
0004438c g     F .text	00000718 .hidden __muldf3
000475dc g     F .text	00000054 __sread
0004a6f8 g     F .text	00000108 alt_find_file
00049cd4 g     F .text	000000a4 alt_dev_llist_insert
000489a8 g     F .text	00000024 __malloc_lock
00048b8c g     F .text	000000b0 sbrk
00047c40 g     F .text	0000005c _fflush_r
0004e4cc g       *ABS*	00000000 __bss_start
00046efc g     F .text	00000128 memset
0004020c g     F .text	00000168 main
0004e4e4 g     O .bss	00000004 alt_envp
0004e4cc g     O .bss	00000004 __malloc_max_total_mem
00048ed0 g     F .text	00000060 altera_avalon_jtag_uart_write_fd
00047710 g     F .text	00000008 __sclose
00067100 g       *ABS*	00000000 __alt_heap_limit
00047a10 g     F .text	00000014 fclose
0004560c g     F .text	000001a8 .hidden __truncdfsf2
00046368 g     F .text	0000080c _malloc_r
0004ca4c g     O .rwdata	00000004 alt_errno
000461e0 g     F .text	000000c4 _fwalk
00042488 g     F .text	00000084 .hidden __divsi3
00047ccc g     F .text	00000124 _malloc_trim_r
0004acc8 g       *ABS*	00000000 __CTOR_END__
00042b04 g     F .text	000003fc .hidden __mulsf3
0004acc8 g       *ABS*	00000000 __flash_rodata_start
0004acc8 g       *ABS*	00000000 __DTOR_LIST__
0004246c g     F .text	0000001c copysign
00044228 g     F .text	00000088 .hidden __nedf2
00048dd4 g     F .text	00000038 alt_irq_init
00048b28 g     F .text	00000064 alt_release_fd
0004aec0 g     O .rodata	00000100 .hidden __clz_tab
0004a934 g     F .text	00000014 atexit
00047718 g     F .text	00000060 _write_r
0004ca2c g     O .rwdata	00000004 _impure_ptr
0004e4dc g     O .bss	00000004 alt_argc
00047a24 g     F .text	0000021c __sflush_r
000422d0 g     F .text	0000019c scalbn
00049dd8 g     F .text	00000060 _do_dtors
00040020 g       .exceptions	00000000 alt_irq_entry
00045d0c g     F .text	00000018 __fp_unlock_all
0004ca38 g     O .rwdata	00000008 alt_fs_list
00040020 g       *ABS*	00000000 __ram_exceptions_start
00040000 g       *ABS*	00000000 __alt_mem_onchip_memory2
00049e6c g     F .text	00000050 alt_ic_isr_register
0004ca60 g       *ABS*	00000000 _edata
0004e61c g       *ABS*	00000000 _end
000401c0 g       *ABS*	00000000 __ram_exceptions_end
000493a8 g     F .text	000000f0 altera_avalon_jtag_uart_ioctl
00049f44 g     F .text	0000008c alt_ic_irq_disable
00047638 g     F .text	0000007c __swrite
0004ca34 g     O .rwdata	00000004 __malloc_trim_threshold
0004a644 g     F .text	00000024 altera_nios2_qsys_irq_init
0004a948 g     F .text	00000038 exit
000462a4 g     F .text	000000c4 _fwalk_reent
0004250c g     F .text	00000074 .hidden __modsi3
00067100 g       *ABS*	00000000 __alt_data_end
00040020 g     F .exceptions	00000000 alt_exception
00045ce8 g     F .text	00000004 __sfp_lock_release
0004ac94 g     F .text	00000034 _exit
000499cc g     F .text	0000012c alt_alarm_start
00048160 g     F .text	000001bc __smakebuf_r
000458ec g     F .text	00000098 strlen
0004a34c g     F .text	00000154 open
000442b0 g     F .text	000000dc .hidden __gedf2
00049e38 g     F .text	00000034 alt_icache_flush_all
0004ca54 g     O .rwdata	00000004 alt_priority_mask
00049ebc g     F .text	00000088 alt_ic_irq_enable
00044aa4 g     F .text	000008fc .hidden __subdf3
0004ca58 g     O .rwdata	00000008 alt_alarm_list
00049d78 g     F .text	00000060 _do_ctors
00048468 g     F .text	000000d0 close
0004263c g     F .text	000004c8 .hidden __addsf3
00048798 g     F .text	00000084 alt_load
00045cec g     F .text	00000004 __sinit_lock_acquire



Disassembly of section .entry:

00040000 <__reset>:
#if NIOS2_ICACHE_SIZE > 0 && defined(ALT_ALLOW_CODE_AT_RESET) && !defined(ALT_SIM_OPTIMIZE)
    /* Assume the instruction cache size is always a power of two. */
#if NIOS2_ICACHE_SIZE > 0x8000
    movhi r2, %hi(NIOS2_ICACHE_SIZE)
#else
    movui r2, NIOS2_ICACHE_SIZE
   40000:	00840014 	movui	r2,4096
#endif

0:
    initi r2
   40004:	1001483a 	initi	r2
    addi r2, r2, -NIOS2_ICACHE_LINE_SIZE
   40008:	10bff804 	addi	r2,r2,-32
    bgt r2, zero, 0b
   4000c:	00bffd16 	blt	zero,r2,40004 <__alt_data_end+0xfffd8f04>
 * Jump to the _start entry point in the .text section if reset code
 * is allowed or if optimizing for RTL simulation.
 */
#if defined(ALT_ALLOW_CODE_AT_RESET) || defined(ALT_SIM_OPTIMIZE)
    /* Jump to the _start entry point in the .text section. */
    movhi r1, %hi(_start)
   40010:	00400134 	movhi	at,4
    ori r1, r1, %lo(_start)
   40014:	08407014 	ori	at,at,448
    jmp r1
   40018:	0800683a 	jmp	at
   4001c:	00000000 	call	0 <__alt_mem_onchip_memory2-0x40000>

Disassembly of section .exceptions:

00040020 <alt_exception>:

#else /* ALT_EXCEPTION_STACK disabled */
        /* 
         * Reserve space on normal stack for registers about to be pushed.
         */
        addi  sp, sp, -76
   40020:	deffed04 	addi	sp,sp,-76
         * documentation for details).
         *
         * Leave a gap in the stack frame at 4(sp) for the muldiv handler to
         * store zero into.
         */
        stw   ra,  0(sp)
   40024:	dfc00015 	stw	ra,0(sp)
        stw   r1,   8(sp)
   40028:	d8400215 	stw	at,8(sp)
        stw   r2,  12(sp)
   4002c:	d8800315 	stw	r2,12(sp)
        stw   r3,  16(sp)
   40030:	d8c00415 	stw	r3,16(sp)
        stw   r4,  20(sp)
   40034:	d9000515 	stw	r4,20(sp)
        stw   r5,  24(sp)
   40038:	d9400615 	stw	r5,24(sp)
        stw   r6,  28(sp)
   4003c:	d9800715 	stw	r6,28(sp)
        stw   r7,  32(sp)
   40040:	d9c00815 	stw	r7,32(sp)
        rdctl r5, estatus   /* Read early to avoid usage stall */
   40044:	000b307a 	rdctl	r5,estatus
        stw   r8,  36(sp)
   40048:	da000915 	stw	r8,36(sp)
        stw   r9,  40(sp)
   4004c:	da400a15 	stw	r9,40(sp)
        stw   r10, 44(sp)
   40050:	da800b15 	stw	r10,44(sp)
        stw   r11, 48(sp)
   40054:	dac00c15 	stw	r11,48(sp)
        stw   r12, 52(sp)
   40058:	db000d15 	stw	r12,52(sp)
        stw   r13, 56(sp)
   4005c:	db400e15 	stw	r13,56(sp)
        stw   r14, 60(sp)
   40060:	db800f15 	stw	r14,60(sp)
        stw   r15, 64(sp)
   40064:	dbc01015 	stw	r15,64(sp)
        /*
         * ea-4 contains the address of the instruction being executed
         * when the exception occured. For interrupt exceptions, we will
         * will be re-issue the isntruction. Store it in 72(sp)
         */
        stw   r5,  68(sp)  /* estatus */
   40068:	d9401115 	stw	r5,68(sp)
        addi  r15, ea, -4  /* instruction that caused exception */
   4006c:	ebffff04 	addi	r15,ea,-4
        stw   r15,  72(sp)
   40070:	dbc01215 	stw	r15,72(sp)
#else
        /*
         * Test to see if the exception was a software exception or caused 
         * by an external interrupt, and vector accordingly.
         */
        rdctl r4, ipending
   40074:	0009313a 	rdctl	r4,ipending
        andi  r2, r5, 1
   40078:	2880004c 	andi	r2,r5,1
        beq   r2, zero, .Lnot_irq
   4007c:	10000326 	beq	r2,zero,4008c <alt_exception+0x6c>
        beq   r4, zero, .Lnot_irq
   40080:	20000226 	beq	r4,zero,4008c <alt_exception+0x6c>
        /*
         * Now that all necessary registers have been preserved, call 
         * alt_irq_handler() to process the interrupts.
         */

        call alt_irq_handler
   40084:	00400ec0 	call	400ec <alt_irq_handler>

        .section .exceptions.irqreturn, "xa"

        br    .Lexception_exit
   40088:	00000306 	br	40098 <alt_exception_unknown+0x4>
         * upon completion, so we write ea (address of instruction *after*
         * the one where the exception occured) into 72(sp). The actual
         * instruction that caused the exception is written in r2, which these
         * handlers will utilize.
         */
        stw   ea,  72(sp)  /* Don't re-issue */
   4008c:	df401215 	stw	ea,72(sp)
        ldw   r2, -4(ea)   /* Instruction that caused exception */
   40090:	e8bfff17 	ldw	r2,-4(ea)

00040094 <alt_exception_unknown>:
#ifdef NIOS2_HAS_DEBUG_STUB
       /*
        *  Either tell the user now (if there is a debugger attached) or go into
        *  the debug monitor which will loop until a debugger is attached.
        */
        break
   40094:	003da03a 	break	0
        /* 
         * Restore the saved registers, so that all general purpose registers 
         * have been restored to their state at the time the interrupt occured.
         */

        ldw   r5,  68(sp)
   40098:	d9401117 	ldw	r5,68(sp)
        ldw   ea,  72(sp)  /* This becomes the PC once eret is executed */
   4009c:	df401217 	ldw	ea,72(sp)
        ldw   ra,   0(sp)
   400a0:	dfc00017 	ldw	ra,0(sp)

        wrctl estatus, r5
   400a4:	2801707a 	wrctl	estatus,r5

        ldw   r1,   8(sp)
   400a8:	d8400217 	ldw	at,8(sp)
        ldw   r2,  12(sp)
   400ac:	d8800317 	ldw	r2,12(sp)
        ldw   r3,  16(sp)
   400b0:	d8c00417 	ldw	r3,16(sp)
        ldw   r4,  20(sp)
   400b4:	d9000517 	ldw	r4,20(sp)
        ldw   r5,  24(sp)
   400b8:	d9400617 	ldw	r5,24(sp)
        ldw   r6,  28(sp)
   400bc:	d9800717 	ldw	r6,28(sp)
        ldw   r7,  32(sp)
   400c0:	d9c00817 	ldw	r7,32(sp)

#if defined(ALT_EXCEPTION_STACK) && defined(ALT_STACK_CHECK)
        ldw   et, %gprel(alt_exception_old_stack_limit)(gp)
#endif

        ldw   r8,  36(sp)
   400c4:	da000917 	ldw	r8,36(sp)
        ldw   r9,  40(sp)
   400c8:	da400a17 	ldw	r9,40(sp)
        ldw   r10, 44(sp)
   400cc:	da800b17 	ldw	r10,44(sp)
        ldw   r11, 48(sp)
   400d0:	dac00c17 	ldw	r11,48(sp)
        ldw   r12, 52(sp)
   400d4:	db000d17 	ldw	r12,52(sp)
        ldw   r13, 56(sp)
   400d8:	db400e17 	ldw	r13,56(sp)
        ldw   r14, 60(sp)
   400dc:	db800f17 	ldw	r14,60(sp)
        ldw   r15, 64(sp)
   400e0:	dbc01017 	ldw	r15,64(sp)
        stw   et, %gprel(alt_stack_limit_value)(gp)
        stw   zero, %gprel(alt_exception_old_stack_limit)(gp)
#endif /* ALT_STACK_CHECK */
        ldw   sp,  76(sp)
#else /* ALT_EXCEPTION_STACK disabled */
        addi  sp, sp, 76
   400e4:	dec01304 	addi	sp,sp,76

        /*
         * Return to the interrupted instruction.
         */

        eret
   400e8:	ef80083a 	eret

000400ec <alt_irq_handler>:
 * instruction is present if the macro ALT_CI_INTERRUPT_VECTOR defined.
 */

void alt_irq_handler (void) __attribute__ ((section (".exceptions")));
void alt_irq_handler (void)
{
   400ec:	defff904 	addi	sp,sp,-28
   400f0:	dfc00615 	stw	ra,24(sp)
   400f4:	df000515 	stw	fp,20(sp)
   400f8:	df000504 	addi	fp,sp,20
  
  /*
   * Notify the operating system that we are at interrupt level.
   */ 
  
  ALT_OS_INT_ENTER();
   400fc:	0001883a 	nop
#ifndef NIOS2_EIC_PRESENT
static ALT_INLINE alt_u32 ALT_ALWAYS_INLINE alt_irq_pending (void)
{
  alt_u32 active;

  NIOS2_READ_IPENDING (active);
   40100:	0005313a 	rdctl	r2,ipending
   40104:	e0bffe15 	stw	r2,-8(fp)

  return active;
   40108:	e0bffe17 	ldw	r2,-8(fp)
   * Consider the case where the high priority interupt is asserted during
   * the interrupt entry sequence for a lower priority interrupt to see why
   * this is the case.
   */

  active = alt_irq_pending ();
   4010c:	e0bffb15 	stw	r2,-20(fp)

  do
  {
    i = 0;
   40110:	e03ffd15 	stw	zero,-12(fp)
    mask = 1;
   40114:	00800044 	movi	r2,1
   40118:	e0bffc15 	stw	r2,-16(fp)
     * called to clear the interrupt condition.
     */

    do
    {
      if (active & mask)
   4011c:	e0fffb17 	ldw	r3,-20(fp)
   40120:	e0bffc17 	ldw	r2,-16(fp)
   40124:	1884703a 	and	r2,r3,r2
   40128:	10001426 	beq	r2,zero,4017c <alt_irq_handler+0x90>
      { 
#ifdef ALT_ENHANCED_INTERRUPT_API_PRESENT
        alt_irq[i].handler(alt_irq[i].context); 
   4012c:	00800174 	movhi	r2,5
   40130:	10b94704 	addi	r2,r2,-6884
   40134:	e0fffd17 	ldw	r3,-12(fp)
   40138:	180690fa 	slli	r3,r3,3
   4013c:	10c5883a 	add	r2,r2,r3
   40140:	10c00017 	ldw	r3,0(r2)
   40144:	00800174 	movhi	r2,5
   40148:	10b94704 	addi	r2,r2,-6884
   4014c:	e13ffd17 	ldw	r4,-12(fp)
   40150:	200890fa 	slli	r4,r4,3
   40154:	1105883a 	add	r2,r2,r4
   40158:	10800104 	addi	r2,r2,4
   4015c:	10800017 	ldw	r2,0(r2)
   40160:	1009883a 	mov	r4,r2
   40164:	183ee83a 	callr	r3
#else
        alt_irq[i].handler(alt_irq[i].context, i); 
#endif
        break;
   40168:	0001883a 	nop
#ifndef NIOS2_EIC_PRESENT
static ALT_INLINE alt_u32 ALT_ALWAYS_INLINE alt_irq_pending (void)
{
  alt_u32 active;

  NIOS2_READ_IPENDING (active);
   4016c:	0005313a 	rdctl	r2,ipending
   40170:	e0bfff15 	stw	r2,-4(fp)

  return active;
   40174:	e0bfff17 	ldw	r2,-4(fp)
   40178:	00000706 	br	40198 <alt_irq_handler+0xac>
      }
      mask <<= 1;
   4017c:	e0bffc17 	ldw	r2,-16(fp)
   40180:	1085883a 	add	r2,r2,r2
   40184:	e0bffc15 	stw	r2,-16(fp)
      i++;
   40188:	e0bffd17 	ldw	r2,-12(fp)
   4018c:	10800044 	addi	r2,r2,1
   40190:	e0bffd15 	stw	r2,-12(fp)

    } while (1);
   40194:	003fe106 	br	4011c <__alt_data_end+0xfffd901c>

    active = alt_irq_pending ();
   40198:	e0bffb15 	stw	r2,-20(fp)
    
  } while (active);
   4019c:	e0bffb17 	ldw	r2,-20(fp)
   401a0:	103fdb1e 	bne	r2,zero,40110 <__alt_data_end+0xfffd9010>

  /*
   * Notify the operating system that interrupt processing is complete.
   */ 

  ALT_OS_INT_EXIT();
   401a4:	0001883a 	nop
}
   401a8:	0001883a 	nop
   401ac:	e037883a 	mov	sp,fp
   401b0:	dfc00117 	ldw	ra,4(sp)
   401b4:	df000017 	ldw	fp,0(sp)
   401b8:	dec00204 	addi	sp,sp,8
   401bc:	f800283a 	ret

Disassembly of section .text:

000401c0 <_start>:

    /* Assume the data cache size is always a power of two. */
#if NIOS2_DCACHE_SIZE > 0x8000
    movhi r2, %hi(NIOS2_DCACHE_SIZE)
#else
    movui r2, NIOS2_DCACHE_SIZE
   401c0:	00820014 	movui	r2,2048
#endif

0:
    initd 0(r2)
   401c4:	10000033 	initd	0(r2)
#ifdef NIOS2_ECC_PRESENT
    addi r2, r2, -4
#else
    addi r2, r2, -NIOS2_DCACHE_LINE_SIZE
   401c8:	10bff804 	addi	r2,r2,-32
#endif
    bgt r2, zero, 0b
   401cc:	00bffd16 	blt	zero,r2,401c4 <__alt_data_end+0xfffd90c4>

    /*
     * Now that the caches are initialized, set up the stack pointer and global pointer.
     * The values provided by the linker are assumed to be correctly aligned.
     */
    movhi sp, %hi(__alt_stack_pointer)
   401d0:	06c001b4 	movhi	sp,6
    ori sp, sp, %lo(__alt_stack_pointer)
   401d4:	dedc4014 	ori	sp,sp,28928
    movhi gp, %hi(_gp)
   401d8:	06800174 	movhi	gp,5
    ori gp, gp, %lo(_gp)
   401dc:	d6928a14 	ori	gp,gp,18984
 */
#ifndef ALT_SIM_OPTIMIZE
    /* Log that the BSS is about to be cleared. */
    ALT_LOG_PUTS(alt_log_msg_bss)

    movhi r2, %hi(__bss_start)
   401e0:	00800134 	movhi	r2,4
    ori r2, r2, %lo(__bss_start)
   401e4:	10b93314 	ori	r2,r2,58572

    movhi r3, %hi(__bss_end)
   401e8:	00c00134 	movhi	r3,4
    ori r3, r3, %lo(__bss_end)
   401ec:	18f98714 	ori	r3,r3,58908

    beq r2, r3, 1f
   401f0:	10c00326 	beq	r2,r3,40200 <_start+0x40>

0:
    stw zero, (r2)
   401f4:	10000015 	stw	zero,0(r2)
    addi r2, r2, 4
   401f8:	10800104 	addi	r2,r2,4
    bltu r2, r3, 0b
   401fc:	10fffd36 	bltu	r2,r3,401f4 <__alt_data_end+0xfffd90f4>
     * section aren't defined until alt_load() has been called).
     */
    mov   et, zero
#endif

    call alt_load
   40200:	00487980 	call	48798 <alt_load>

    /* Log that alt_main is about to be called. */
    ALT_LOG_PUTS(alt_log_msg_alt_main)

    /* Call the C entry point. It should never return. */
    call alt_main
   40204:	004892c0 	call	4892c <alt_main>

00040208 <alt_after_alt_main>:

    /* Wait in infinite loop in case alt_main does return. */
alt_after_alt_main:
    br alt_after_alt_main
   40208:	003fff06 	br	40208 <__alt_data_end+0xfffd9108>

0004020c <main>:
#include "system.h"
#include "unistd.h"

#define PI 3.14

int main() {
   4020c:	defff904 	addi	sp,sp,-28
   40210:	dfc00615 	stw	ra,24(sp)
   40214:	df000515 	stw	fp,20(sp)
   40218:	df000504 	addi	fp,sp,20
  
    float angle = 0;                  // 当前角度（弧度制）
   4021c:	e03ffb15 	stw	zero,-20(fp)
    float duty_cycle = 0;             // 当前占空比
   40220:	e03ffc15 	stw	zero,-16(fp)
    const float step = 0.01;          // 每次角度增加的步长
   40224:	008f0934 	movhi	r2,15396
   40228:	10b5c284 	addi	r2,r2,-10486
   4022c:	e0bffd15 	stw	r2,-12(fp)
    const int max_pwm = 255;          // PWM 占空比最大值（0-255）
   40230:	00803fc4 	movi	r2,255
   40234:	e0bffe15 	stw	r2,-8(fp)

    printf("LED Breathing Effect Started\n");
   40238:	01000174 	movhi	r4,5
   4023c:	212b3204 	addi	r4,r4,-21304
   40240:	00458d80 	call	458d8 <puts>

    // 初始化 PWM 模块
    IOWR_ALTERA_AVALON_PWM_DIVIDER(AVALON_PWM_INST_BASE, 0xFF);  // 设置时钟分频
   40244:	00c03fc4 	movi	r3,255
   40248:	00800234 	movhi	r2,8
   4024c:	10842404 	addi	r2,r2,4240
   40250:	10c00035 	stwio	r3,0(r2)
    IOWR_ALTERA_AVALON_PWM_DUTY(AVALON_PWM_INST_BASE, 0);        // 初始化占空比为 0
   40254:	0007883a 	mov	r3,zero
   40258:	00800234 	movhi	r2,8
   4025c:	10842504 	addi	r2,r2,4244
   40260:	10c00035 	stwio	r3,0(r2)

    while (1) {
        // 计算当前角度的正弦值，并转换为 0 到 1 的范围
        duty_cycle = (sin(angle) + 1) / 2.0;  // 将 [-1, 1] 转换为 [0, 1]
   40264:	e13ffb17 	ldw	r4,-20(fp)
   40268:	00454fc0 	call	454fc <__extendsfdf2>
   4026c:	100b883a 	mov	r5,r2
   40270:	180d883a 	mov	r6,r3
   40274:	2809883a 	mov	r4,r5
   40278:	300b883a 	mov	r5,r6
   4027c:	00403740 	call	40374 <sin>
   40280:	1011883a 	mov	r8,r2
   40284:	1813883a 	mov	r9,r3
   40288:	000d883a 	mov	r6,zero
   4028c:	01cffc34 	movhi	r7,16368
   40290:	4009883a 	mov	r4,r8
   40294:	480b883a 	mov	r5,r9
   40298:	00430940 	call	43094 <__adddf3>
   4029c:	1009883a 	mov	r4,r2
   402a0:	180b883a 	mov	r5,r3
   402a4:	2005883a 	mov	r2,r4
   402a8:	2807883a 	mov	r3,r5
   402ac:	000d883a 	mov	r6,zero
   402b0:	01d00034 	movhi	r7,16384
   402b4:	1009883a 	mov	r4,r2
   402b8:	180b883a 	mov	r5,r3
   402bc:	00439400 	call	43940 <__divdf3>
   402c0:	1009883a 	mov	r4,r2
   402c4:	180b883a 	mov	r5,r3
   402c8:	2005883a 	mov	r2,r4
   402cc:	2807883a 	mov	r3,r5
   402d0:	1009883a 	mov	r4,r2
   402d4:	180b883a 	mov	r5,r3
   402d8:	004560c0 	call	4560c <__truncdfsf2>
   402dc:	1007883a 	mov	r3,r2
   402e0:	e0fffc15 	stw	r3,-16(fp)

        // 将占空比转换为 PWM 值
        int pwm_value = (int)(duty_cycle * max_pwm);
   402e4:	e13ffe17 	ldw	r4,-8(fp)
   402e8:	0042f700 	call	42f70 <__floatsisf>
   402ec:	1007883a 	mov	r3,r2
   402f0:	e17ffc17 	ldw	r5,-16(fp)
   402f4:	1809883a 	mov	r4,r3
   402f8:	0042b040 	call	42b04 <__mulsf3>
   402fc:	1007883a 	mov	r3,r2
   40300:	1805883a 	mov	r2,r3
   40304:	1009883a 	mov	r4,r2
   40308:	0042f000 	call	42f00 <__fixsfsi>
   4030c:	e0bfff15 	stw	r2,-4(fp)

        // 写入 PWM 占空比寄存器
        IOWR_ALTERA_AVALON_PWM_DUTY(AVALON_PWM_INST_BASE, pwm_value);
   40310:	00800234 	movhi	r2,8
   40314:	10842504 	addi	r2,r2,4244
   40318:	e0ffff17 	ldw	r3,-4(fp)
   4031c:	10c00035 	stwio	r3,0(r2)

        // 增加角度，模拟时间推进
        angle += step;
   40320:	e17ffd17 	ldw	r5,-12(fp)
   40324:	e13ffb17 	ldw	r4,-20(fp)
   40328:	004263c0 	call	4263c <__addsf3>
   4032c:	1007883a 	mov	r3,r2
   40330:	e0fffb15 	stw	r3,-20(fp)
        if (angle >= 2 * PI) {
   40334:	e13ffb17 	ldw	r4,-20(fp)
   40338:	00454fc0 	call	454fc <__extendsfdf2>
   4033c:	1011883a 	mov	r8,r2
   40340:	1813883a 	mov	r9,r3
   40344:	01947b34 	movhi	r6,20972
   40348:	31a147c4 	addi	r6,r6,-31457
   4034c:	01d00674 	movhi	r7,16409
   40350:	39c7ae04 	addi	r7,r7,7864
   40354:	4009883a 	mov	r4,r8
   40358:	480b883a 	mov	r5,r9
   4035c:	00442b00 	call	442b0 <__gedf2>
   40360:	10000116 	blt	r2,zero,40368 <main+0x15c>
            angle = 0;  // 重置角度，循环正弦波
   40364:	e03ffb15 	stw	zero,-20(fp)
        }

        usleep(10000);  // 10 ms 延时
   40368:	0109c404 	movi	r4,10000
   4036c:	0048c3c0 	call	48c3c <usleep>
    }
   40370:	003fbc06 	br	40264 <__alt_data_end+0xfffd9164>

00040374 <sin>:
   40374:	00a00034 	movhi	r2,32768
   40378:	defffa04 	addi	sp,sp,-24
   4037c:	10bfffc4 	addi	r2,r2,-1
   40380:	00cffa74 	movhi	r3,16361
   40384:	dfc00515 	stw	ra,20(sp)
   40388:	2884703a 	and	r2,r5,r2
   4038c:	18c87ec4 	addi	r3,r3,8699
   40390:	1880180e 	bge	r3,r2,403f4 <sin+0x80>
   40394:	00dffc34 	movhi	r3,32752
   40398:	18ffffc4 	addi	r3,r3,-1
   4039c:	1880060e 	bge	r3,r2,403b8 <sin+0x44>
   403a0:	280f883a 	mov	r7,r5
   403a4:	200d883a 	mov	r6,r4
   403a8:	0044aa40 	call	44aa4 <__subdf3>
   403ac:	dfc00517 	ldw	ra,20(sp)
   403b0:	dec00604 	addi	sp,sp,24
   403b4:	f800283a 	ret
   403b8:	d9800104 	addi	r6,sp,4
   403bc:	00404640 	call	40464 <__ieee754_rem_pio2>
   403c0:	108000cc 	andi	r2,r2,3
   403c4:	00c00044 	movi	r3,1
   403c8:	10c01926 	beq	r2,r3,40430 <sin+0xbc>
   403cc:	01000084 	movi	r4,2
   403d0:	11000f26 	beq	r2,r4,40410 <sin+0x9c>
   403d4:	10001c26 	beq	r2,zero,40448 <sin+0xd4>
   403d8:	d9800317 	ldw	r6,12(sp)
   403dc:	d9c00417 	ldw	r7,16(sp)
   403e0:	d9000117 	ldw	r4,4(sp)
   403e4:	d9400217 	ldw	r5,8(sp)
   403e8:	0040bd00 	call	40bd0 <__kernel_cos>
   403ec:	18e0003c 	xorhi	r3,r3,32768
   403f0:	003fee06 	br	403ac <__alt_data_end+0xfffd92ac>
   403f4:	d8000015 	stw	zero,0(sp)
   403f8:	000d883a 	mov	r6,zero
   403fc:	000f883a 	mov	r7,zero
   40400:	0041e040 	call	41e04 <__kernel_sin>
   40404:	dfc00517 	ldw	ra,20(sp)
   40408:	dec00604 	addi	sp,sp,24
   4040c:	f800283a 	ret
   40410:	d9800317 	ldw	r6,12(sp)
   40414:	d9c00417 	ldw	r7,16(sp)
   40418:	d9000117 	ldw	r4,4(sp)
   4041c:	d9400217 	ldw	r5,8(sp)
   40420:	d8c00015 	stw	r3,0(sp)
   40424:	0041e040 	call	41e04 <__kernel_sin>
   40428:	18e0003c 	xorhi	r3,r3,32768
   4042c:	003fdf06 	br	403ac <__alt_data_end+0xfffd92ac>
   40430:	d9800317 	ldw	r6,12(sp)
   40434:	d9c00417 	ldw	r7,16(sp)
   40438:	d9000117 	ldw	r4,4(sp)
   4043c:	d9400217 	ldw	r5,8(sp)
   40440:	0040bd00 	call	40bd0 <__kernel_cos>
   40444:	003fd906 	br	403ac <__alt_data_end+0xfffd92ac>
   40448:	d9800317 	ldw	r6,12(sp)
   4044c:	d9c00417 	ldw	r7,16(sp)
   40450:	d9000117 	ldw	r4,4(sp)
   40454:	d9400217 	ldw	r5,8(sp)
   40458:	d8c00015 	stw	r3,0(sp)
   4045c:	0041e040 	call	41e04 <__kernel_sin>
   40460:	003fd206 	br	403ac <__alt_data_end+0xfffd92ac>

00040464 <__ieee754_rem_pio2>:
   40464:	02200034 	movhi	r8,32768
   40468:	deffea04 	addi	sp,sp,-88
   4046c:	423fffc4 	addi	r8,r8,-1
   40470:	00cffa74 	movhi	r3,16361
   40474:	ddc01315 	stw	r23,76(sp)
   40478:	dc400d15 	stw	r17,52(sp)
   4047c:	dfc01515 	stw	ra,84(sp)
   40480:	df001415 	stw	fp,80(sp)
   40484:	dd801215 	stw	r22,72(sp)
   40488:	dd401115 	stw	r21,68(sp)
   4048c:	dd001015 	stw	r20,64(sp)
   40490:	dcc00f15 	stw	r19,60(sp)
   40494:	dc800e15 	stw	r18,56(sp)
   40498:	dc000c15 	stw	r16,48(sp)
   4049c:	2a2e703a 	and	r23,r5,r8
   404a0:	18c87ec4 	addi	r3,r3,8699
   404a4:	2823883a 	mov	r17,r5
   404a8:	1dc0790e 	bge	r3,r23,40690 <__ieee754_rem_pio2+0x22c>
   404ac:	009000f4 	movhi	r2,16387
   404b0:	10b65ec4 	addi	r2,r2,-9861
   404b4:	3021883a 	mov	r16,r6
   404b8:	2027883a 	mov	r19,r4
   404bc:	15c02316 	blt	r2,r23,4054c <__ieee754_rem_pio2+0xe8>
   404c0:	01cffe74 	movhi	r7,16377
   404c4:	39c87ec4 	addi	r7,r7,8699
   404c8:	01951034 	movhi	r6,21568
   404cc:	01417a0e 	bge	zero,r5,40ab8 <__ieee754_rem_pio2+0x654>
   404d0:	0044aa40 	call	44aa4 <__subdf3>
   404d4:	1025883a 	mov	r18,r2
   404d8:	008ffe74 	movhi	r2,16377
   404dc:	10887ec4 	addi	r2,r2,8699
   404e0:	1823883a 	mov	r17,r3
   404e4:	b8808426 	beq	r23,r2,406f8 <__ieee754_rem_pio2+0x294>
   404e8:	018698b4 	movhi	r6,6754
   404ec:	01cf7474 	movhi	r7,15825
   404f0:	3198cc44 	addi	r6,r6,25393
   404f4:	39ed1844 	addi	r7,r7,-19359
   404f8:	9009883a 	mov	r4,r18
   404fc:	180b883a 	mov	r5,r3
   40500:	0044aa40 	call	44aa4 <__subdf3>
   40504:	100d883a 	mov	r6,r2
   40508:	180f883a 	mov	r7,r3
   4050c:	9009883a 	mov	r4,r18
   40510:	880b883a 	mov	r5,r17
   40514:	80800015 	stw	r2,0(r16)
   40518:	80c00115 	stw	r3,4(r16)
   4051c:	0044aa40 	call	44aa4 <__subdf3>
   40520:	018698b4 	movhi	r6,6754
   40524:	01cf7474 	movhi	r7,15825
   40528:	3198cc44 	addi	r6,r6,25393
   4052c:	39ed1844 	addi	r7,r7,-19359
   40530:	1009883a 	mov	r4,r2
   40534:	180b883a 	mov	r5,r3
   40538:	0044aa40 	call	44aa4 <__subdf3>
   4053c:	80800215 	stw	r2,8(r16)
   40540:	80c00315 	stw	r3,12(r16)
   40544:	00800044 	movi	r2,1
   40548:	00005606 	br	406a4 <__ieee754_rem_pio2+0x240>
   4054c:	00904e74 	movhi	r2,16697
   40550:	10887ec4 	addi	r2,r2,8699
   40554:	15c0830e 	bge	r2,r23,40764 <__ieee754_rem_pio2+0x300>
   40558:	009ffc34 	movhi	r2,32752
   4055c:	10bfffc4 	addi	r2,r2,-1
   40560:	15c05c16 	blt	r2,r23,406d4 <__ieee754_rem_pio2+0x270>
   40564:	b829d53a 	srai	r20,r23,20
   40568:	a53efa84 	addi	r20,r20,-1046
   4056c:	a024953a 	slli	r18,r20,20
   40570:	bca5c83a 	sub	r18,r23,r18
   40574:	900b883a 	mov	r5,r18
   40578:	00453a00 	call	453a0 <__fixdfsi>
   4057c:	1009883a 	mov	r4,r2
   40580:	00454200 	call	45420 <__floatsidf>
   40584:	9809883a 	mov	r4,r19
   40588:	900b883a 	mov	r5,r18
   4058c:	100d883a 	mov	r6,r2
   40590:	180f883a 	mov	r7,r3
   40594:	d8800215 	stw	r2,8(sp)
   40598:	d8c00315 	stw	r3,12(sp)
   4059c:	0044aa40 	call	44aa4 <__subdf3>
   405a0:	000d883a 	mov	r6,zero
   405a4:	01d05c34 	movhi	r7,16752
   405a8:	1009883a 	mov	r4,r2
   405ac:	180b883a 	mov	r5,r3
   405b0:	004438c0 	call	4438c <__muldf3>
   405b4:	180b883a 	mov	r5,r3
   405b8:	1009883a 	mov	r4,r2
   405bc:	182b883a 	mov	r21,r3
   405c0:	102d883a 	mov	r22,r2
   405c4:	00453a00 	call	453a0 <__fixdfsi>
   405c8:	1009883a 	mov	r4,r2
   405cc:	00454200 	call	45420 <__floatsidf>
   405d0:	100d883a 	mov	r6,r2
   405d4:	180f883a 	mov	r7,r3
   405d8:	b009883a 	mov	r4,r22
   405dc:	a80b883a 	mov	r5,r21
   405e0:	1027883a 	mov	r19,r2
   405e4:	1825883a 	mov	r18,r3
   405e8:	d8800415 	stw	r2,16(sp)
   405ec:	d8c00515 	stw	r3,20(sp)
   405f0:	0044aa40 	call	44aa4 <__subdf3>
   405f4:	000d883a 	mov	r6,zero
   405f8:	01d05c34 	movhi	r7,16752
   405fc:	1009883a 	mov	r4,r2
   40600:	180b883a 	mov	r5,r3
   40604:	004438c0 	call	4438c <__muldf3>
   40608:	000d883a 	mov	r6,zero
   4060c:	000f883a 	mov	r7,zero
   40610:	1009883a 	mov	r4,r2
   40614:	180b883a 	mov	r5,r3
   40618:	d8800615 	stw	r2,24(sp)
   4061c:	d8c00715 	stw	r3,28(sp)
   40620:	00442280 	call	44228 <__eqdf2>
   40624:	1001431e 	bne	r2,zero,40b34 <__ieee754_rem_pio2+0x6d0>
   40628:	000f883a 	mov	r7,zero
   4062c:	000d883a 	mov	r6,zero
   40630:	9809883a 	mov	r4,r19
   40634:	900b883a 	mov	r5,r18
   40638:	00442280 	call	44228 <__eqdf2>
   4063c:	100f003a 	cmpeq	r7,r2,zero
   40640:	00800084 	movi	r2,2
   40644:	11cfc83a 	sub	r7,r2,r7
   40648:	00800084 	movi	r2,2
   4064c:	d8800015 	stw	r2,0(sp)
   40650:	00800174 	movhi	r2,5
   40654:	10ab5a04 	addi	r2,r2,-21144
   40658:	d8800115 	stw	r2,4(sp)
   4065c:	a00d883a 	mov	r6,r20
   40660:	800b883a 	mov	r5,r16
   40664:	d9000204 	addi	r4,sp,8
   40668:	00410740 	call	41074 <__kernel_rem_pio2>
   4066c:	88000d0e 	bge	r17,zero,406a4 <__ieee754_rem_pio2+0x240>
   40670:	81000117 	ldw	r4,4(r16)
   40674:	80c00317 	ldw	r3,12(r16)
   40678:	0085c83a 	sub	r2,zero,r2
   4067c:	2120003c 	xorhi	r4,r4,32768
   40680:	18e0003c 	xorhi	r3,r3,32768
   40684:	81000115 	stw	r4,4(r16)
   40688:	80c00315 	stw	r3,12(r16)
   4068c:	00000506 	br	406a4 <__ieee754_rem_pio2+0x240>
   40690:	31000015 	stw	r4,0(r6)
   40694:	31400115 	stw	r5,4(r6)
   40698:	30000215 	stw	zero,8(r6)
   4069c:	30000315 	stw	zero,12(r6)
   406a0:	0005883a 	mov	r2,zero
   406a4:	dfc01517 	ldw	ra,84(sp)
   406a8:	df001417 	ldw	fp,80(sp)
   406ac:	ddc01317 	ldw	r23,76(sp)
   406b0:	dd801217 	ldw	r22,72(sp)
   406b4:	dd401117 	ldw	r21,68(sp)
   406b8:	dd001017 	ldw	r20,64(sp)
   406bc:	dcc00f17 	ldw	r19,60(sp)
   406c0:	dc800e17 	ldw	r18,56(sp)
   406c4:	dc400d17 	ldw	r17,52(sp)
   406c8:	dc000c17 	ldw	r16,48(sp)
   406cc:	dec01604 	addi	sp,sp,88
   406d0:	f800283a 	ret
   406d4:	200d883a 	mov	r6,r4
   406d8:	280f883a 	mov	r7,r5
   406dc:	0044aa40 	call	44aa4 <__subdf3>
   406e0:	80800215 	stw	r2,8(r16)
   406e4:	80800015 	stw	r2,0(r16)
   406e8:	80c00315 	stw	r3,12(r16)
   406ec:	80c00115 	stw	r3,4(r16)
   406f0:	0005883a 	mov	r2,zero
   406f4:	003feb06 	br	406a4 <__alt_data_end+0xfffd95a4>
   406f8:	01cf7474 	movhi	r7,15825
   406fc:	9009883a 	mov	r4,r18
   40700:	39ed1844 	addi	r7,r7,-19359
   40704:	01869834 	movhi	r6,6752
   40708:	180b883a 	mov	r5,r3
   4070c:	0044aa40 	call	44aa4 <__subdf3>
   40710:	018b80f4 	movhi	r6,11779
   40714:	01cee8f4 	movhi	r7,15267
   40718:	319c1cc4 	addi	r6,r6,28787
   4071c:	39c66284 	addi	r7,r7,6538
   40720:	1009883a 	mov	r4,r2
   40724:	180b883a 	mov	r5,r3
   40728:	1025883a 	mov	r18,r2
   4072c:	1823883a 	mov	r17,r3
   40730:	0044aa40 	call	44aa4 <__subdf3>
   40734:	100d883a 	mov	r6,r2
   40738:	180f883a 	mov	r7,r3
   4073c:	9009883a 	mov	r4,r18
   40740:	880b883a 	mov	r5,r17
   40744:	80800015 	stw	r2,0(r16)
   40748:	80c00115 	stw	r3,4(r16)
   4074c:	0044aa40 	call	44aa4 <__subdf3>
   40750:	018b80f4 	movhi	r6,11779
   40754:	01cee8f4 	movhi	r7,15267
   40758:	319c1cc4 	addi	r6,r6,28787
   4075c:	39c66284 	addi	r7,r7,6538
   40760:	003f7306 	br	40530 <__alt_data_end+0xfffd9430>
   40764:	00420d00 	call	420d0 <fabs>
   40768:	019b72b4 	movhi	r6,28106
   4076c:	01cff934 	movhi	r7,16356
   40770:	31b220c4 	addi	r6,r6,-14205
   40774:	39d7cc04 	addi	r7,r7,24368
   40778:	1009883a 	mov	r4,r2
   4077c:	180b883a 	mov	r5,r3
   40780:	102d883a 	mov	r22,r2
   40784:	182b883a 	mov	r21,r3
   40788:	004438c0 	call	4438c <__muldf3>
   4078c:	000d883a 	mov	r6,zero
   40790:	01cff834 	movhi	r7,16352
   40794:	1009883a 	mov	r4,r2
   40798:	180b883a 	mov	r5,r3
   4079c:	00430940 	call	43094 <__adddf3>
   407a0:	180b883a 	mov	r5,r3
   407a4:	1009883a 	mov	r4,r2
   407a8:	00453a00 	call	453a0 <__fixdfsi>
   407ac:	1009883a 	mov	r4,r2
   407b0:	1025883a 	mov	r18,r2
   407b4:	00454200 	call	45420 <__floatsidf>
   407b8:	01cffe74 	movhi	r7,16377
   407bc:	39c87ec4 	addi	r7,r7,8699
   407c0:	01951034 	movhi	r6,21568
   407c4:	1009883a 	mov	r4,r2
   407c8:	180b883a 	mov	r5,r3
   407cc:	1029883a 	mov	r20,r2
   407d0:	1827883a 	mov	r19,r3
   407d4:	004438c0 	call	4438c <__muldf3>
   407d8:	b009883a 	mov	r4,r22
   407dc:	a80b883a 	mov	r5,r21
   407e0:	100d883a 	mov	r6,r2
   407e4:	180f883a 	mov	r7,r3
   407e8:	0044aa40 	call	44aa4 <__subdf3>
   407ec:	018698b4 	movhi	r6,6754
   407f0:	01cf7474 	movhi	r7,15825
   407f4:	a009883a 	mov	r4,r20
   407f8:	3198cc44 	addi	r6,r6,25393
   407fc:	39ed1844 	addi	r7,r7,-19359
   40800:	980b883a 	mov	r5,r19
   40804:	1039883a 	mov	fp,r2
   40808:	d8c00815 	stw	r3,32(sp)
   4080c:	004438c0 	call	4438c <__muldf3>
   40810:	010007c4 	movi	r4,31
   40814:	e017883a 	mov	r11,fp
   40818:	da800817 	ldw	r10,32(sp)
   4081c:	102d883a 	mov	r22,r2
   40820:	182b883a 	mov	r21,r3
   40824:	24802816 	blt	r4,r18,408c8 <__ieee754_rem_pio2+0x464>
   40828:	913fffc4 	addi	r4,r18,-1
   4082c:	2109883a 	add	r4,r4,r4
   40830:	01400174 	movhi	r5,5
   40834:	2109883a 	add	r4,r4,r4
   40838:	296b3a04 	addi	r5,r5,-21272
   4083c:	2909883a 	add	r4,r5,r4
   40840:	21000017 	ldw	r4,0(r4)
   40844:	b9002026 	beq	r23,r4,408c8 <__ieee754_rem_pio2+0x464>
   40848:	100d883a 	mov	r6,r2
   4084c:	180f883a 	mov	r7,r3
   40850:	e009883a 	mov	r4,fp
   40854:	500b883a 	mov	r5,r10
   40858:	da800b15 	stw	r10,44(sp)
   4085c:	df000a15 	stw	fp,40(sp)
   40860:	0044aa40 	call	44aa4 <__subdf3>
   40864:	da800b17 	ldw	r10,44(sp)
   40868:	dac00a17 	ldw	r11,40(sp)
   4086c:	1019883a 	mov	r12,r2
   40870:	1813883a 	mov	r9,r3
   40874:	80800015 	stw	r2,0(r16)
   40878:	80c00115 	stw	r3,4(r16)
   4087c:	600d883a 	mov	r6,r12
   40880:	480f883a 	mov	r7,r9
   40884:	5809883a 	mov	r4,r11
   40888:	500b883a 	mov	r5,r10
   4088c:	da400b15 	stw	r9,44(sp)
   40890:	db000a15 	stw	r12,40(sp)
   40894:	0044aa40 	call	44aa4 <__subdf3>
   40898:	b00d883a 	mov	r6,r22
   4089c:	a80f883a 	mov	r7,r21
   408a0:	1009883a 	mov	r4,r2
   408a4:	180b883a 	mov	r5,r3
   408a8:	0044aa40 	call	44aa4 <__subdf3>
   408ac:	80800215 	stw	r2,8(r16)
   408b0:	80c00315 	stw	r3,12(r16)
   408b4:	da400b17 	ldw	r9,44(sp)
   408b8:	db000a17 	ldw	r12,40(sp)
   408bc:	88009f16 	blt	r17,zero,40b3c <__ieee754_rem_pio2+0x6d8>
   408c0:	9005883a 	mov	r2,r18
   408c4:	003f7706 	br	406a4 <__alt_data_end+0xfffd95a4>
   408c8:	d9400817 	ldw	r5,32(sp)
   408cc:	100d883a 	mov	r6,r2
   408d0:	180f883a 	mov	r7,r3
   408d4:	e009883a 	mov	r4,fp
   408d8:	da800b15 	stw	r10,44(sp)
   408dc:	dac00a15 	stw	r11,40(sp)
   408e0:	0044aa40 	call	44aa4 <__subdf3>
   408e4:	1019883a 	mov	r12,r2
   408e8:	1804d53a 	srli	r2,r3,20
   408ec:	b811d53a 	srai	r8,r23,20
   408f0:	1813883a 	mov	r9,r3
   408f4:	1081ffcc 	andi	r2,r2,2047
   408f8:	80c00115 	stw	r3,4(r16)
   408fc:	83000015 	stw	r12,0(r16)
   40900:	4085c83a 	sub	r2,r8,r2
   40904:	00c00404 	movi	r3,16
   40908:	da800b17 	ldw	r10,44(sp)
   4090c:	dac00a17 	ldw	r11,40(sp)
   40910:	18bfda0e 	bge	r3,r2,4087c <__alt_data_end+0xfffd977c>
   40914:	01cf7474 	movhi	r7,15825
   40918:	39ed1844 	addi	r7,r7,-19359
   4091c:	01869834 	movhi	r6,6752
   40920:	a009883a 	mov	r4,r20
   40924:	980b883a 	mov	r5,r19
   40928:	da000a15 	stw	r8,40(sp)
   4092c:	004438c0 	call	4438c <__muldf3>
   40930:	d9400817 	ldw	r5,32(sp)
   40934:	100d883a 	mov	r6,r2
   40938:	180f883a 	mov	r7,r3
   4093c:	e009883a 	mov	r4,fp
   40940:	102d883a 	mov	r22,r2
   40944:	182b883a 	mov	r21,r3
   40948:	0044aa40 	call	44aa4 <__subdf3>
   4094c:	d9400817 	ldw	r5,32(sp)
   40950:	100d883a 	mov	r6,r2
   40954:	180f883a 	mov	r7,r3
   40958:	e009883a 	mov	r4,fp
   4095c:	182f883a 	mov	r23,r3
   40960:	d8800915 	stw	r2,36(sp)
   40964:	0044aa40 	call	44aa4 <__subdf3>
   40968:	b00d883a 	mov	r6,r22
   4096c:	a80f883a 	mov	r7,r21
   40970:	1009883a 	mov	r4,r2
   40974:	180b883a 	mov	r5,r3
   40978:	0044aa40 	call	44aa4 <__subdf3>
   4097c:	018b80f4 	movhi	r6,11779
   40980:	01cee8f4 	movhi	r7,15267
   40984:	319c1cc4 	addi	r6,r6,28787
   40988:	39c66284 	addi	r7,r7,6538
   4098c:	a009883a 	mov	r4,r20
   40990:	980b883a 	mov	r5,r19
   40994:	102d883a 	mov	r22,r2
   40998:	182b883a 	mov	r21,r3
   4099c:	004438c0 	call	4438c <__muldf3>
   409a0:	b00d883a 	mov	r6,r22
   409a4:	a80f883a 	mov	r7,r21
   409a8:	1009883a 	mov	r4,r2
   409ac:	180b883a 	mov	r5,r3
   409b0:	0044aa40 	call	44aa4 <__subdf3>
   409b4:	d9000917 	ldw	r4,36(sp)
   409b8:	100d883a 	mov	r6,r2
   409bc:	180f883a 	mov	r7,r3
   409c0:	b80b883a 	mov	r5,r23
   409c4:	102d883a 	mov	r22,r2
   409c8:	182b883a 	mov	r21,r3
   409cc:	0044aa40 	call	44aa4 <__subdf3>
   409d0:	1019883a 	mov	r12,r2
   409d4:	1804d53a 	srli	r2,r3,20
   409d8:	da000a17 	ldw	r8,40(sp)
   409dc:	83000015 	stw	r12,0(r16)
   409e0:	1081ffcc 	andi	r2,r2,2047
   409e4:	4091c83a 	sub	r8,r8,r2
   409e8:	80c00115 	stw	r3,4(r16)
   409ec:	00800c44 	movi	r2,49
   409f0:	1813883a 	mov	r9,r3
   409f4:	1200730e 	bge	r2,r8,40bc4 <__ieee754_rem_pio2+0x760>
   409f8:	01cee8f4 	movhi	r7,15267
   409fc:	39c66284 	addi	r7,r7,6538
   40a00:	018b8034 	movhi	r6,11776
   40a04:	a009883a 	mov	r4,r20
   40a08:	980b883a 	mov	r5,r19
   40a0c:	004438c0 	call	4438c <__muldf3>
   40a10:	d9000917 	ldw	r4,36(sp)
   40a14:	100d883a 	mov	r6,r2
   40a18:	180f883a 	mov	r7,r3
   40a1c:	b80b883a 	mov	r5,r23
   40a20:	102d883a 	mov	r22,r2
   40a24:	182b883a 	mov	r21,r3
   40a28:	0044aa40 	call	44aa4 <__subdf3>
   40a2c:	d9000917 	ldw	r4,36(sp)
   40a30:	100d883a 	mov	r6,r2
   40a34:	180f883a 	mov	r7,r3
   40a38:	b80b883a 	mov	r5,r23
   40a3c:	d8c00b15 	stw	r3,44(sp)
   40a40:	d8800a15 	stw	r2,40(sp)
   40a44:	0044aa40 	call	44aa4 <__subdf3>
   40a48:	b00d883a 	mov	r6,r22
   40a4c:	a80f883a 	mov	r7,r21
   40a50:	1009883a 	mov	r4,r2
   40a54:	180b883a 	mov	r5,r3
   40a58:	0044aa40 	call	44aa4 <__subdf3>
   40a5c:	01894834 	movhi	r6,9504
   40a60:	01ce5f34 	movhi	r7,14716
   40a64:	31927044 	addi	r6,r6,18881
   40a68:	39e0e684 	addi	r7,r7,-31846
   40a6c:	a009883a 	mov	r4,r20
   40a70:	980b883a 	mov	r5,r19
   40a74:	102d883a 	mov	r22,r2
   40a78:	182b883a 	mov	r21,r3
   40a7c:	004438c0 	call	4438c <__muldf3>
   40a80:	b00d883a 	mov	r6,r22
   40a84:	a80f883a 	mov	r7,r21
   40a88:	1009883a 	mov	r4,r2
   40a8c:	180b883a 	mov	r5,r3
   40a90:	0044aa40 	call	44aa4 <__subdf3>
   40a94:	dac00a17 	ldw	r11,40(sp)
   40a98:	da800b17 	ldw	r10,44(sp)
   40a9c:	102d883a 	mov	r22,r2
   40aa0:	182b883a 	mov	r21,r3
   40aa4:	100d883a 	mov	r6,r2
   40aa8:	180f883a 	mov	r7,r3
   40aac:	5809883a 	mov	r4,r11
   40ab0:	500b883a 	mov	r5,r10
   40ab4:	003f6a06 	br	40860 <__alt_data_end+0xfffd9760>
   40ab8:	00430940 	call	43094 <__adddf3>
   40abc:	1025883a 	mov	r18,r2
   40ac0:	008ffe74 	movhi	r2,16377
   40ac4:	10887ec4 	addi	r2,r2,8699
   40ac8:	1823883a 	mov	r17,r3
   40acc:	b8802226 	beq	r23,r2,40b58 <__ieee754_rem_pio2+0x6f4>
   40ad0:	018698b4 	movhi	r6,6754
   40ad4:	01cf7474 	movhi	r7,15825
   40ad8:	3198cc44 	addi	r6,r6,25393
   40adc:	39ed1844 	addi	r7,r7,-19359
   40ae0:	9009883a 	mov	r4,r18
   40ae4:	180b883a 	mov	r5,r3
   40ae8:	00430940 	call	43094 <__adddf3>
   40aec:	100d883a 	mov	r6,r2
   40af0:	180f883a 	mov	r7,r3
   40af4:	9009883a 	mov	r4,r18
   40af8:	880b883a 	mov	r5,r17
   40afc:	80800015 	stw	r2,0(r16)
   40b00:	80c00115 	stw	r3,4(r16)
   40b04:	0044aa40 	call	44aa4 <__subdf3>
   40b08:	018698b4 	movhi	r6,6754
   40b0c:	01cf7474 	movhi	r7,15825
   40b10:	3198cc44 	addi	r6,r6,25393
   40b14:	39ed1844 	addi	r7,r7,-19359
   40b18:	1009883a 	mov	r4,r2
   40b1c:	180b883a 	mov	r5,r3
   40b20:	00430940 	call	43094 <__adddf3>
   40b24:	80800215 	stw	r2,8(r16)
   40b28:	80c00315 	stw	r3,12(r16)
   40b2c:	00bfffc4 	movi	r2,-1
   40b30:	003edc06 	br	406a4 <__alt_data_end+0xfffd95a4>
   40b34:	01c000c4 	movi	r7,3
   40b38:	003ec306 	br	40648 <__alt_data_end+0xfffd9548>
   40b3c:	4a60003c 	xorhi	r9,r9,32768
   40b40:	18e0003c 	xorhi	r3,r3,32768
   40b44:	83000015 	stw	r12,0(r16)
   40b48:	82400115 	stw	r9,4(r16)
   40b4c:	80c00315 	stw	r3,12(r16)
   40b50:	0485c83a 	sub	r2,zero,r18
   40b54:	003ed306 	br	406a4 <__alt_data_end+0xfffd95a4>
   40b58:	01cf7474 	movhi	r7,15825
   40b5c:	9009883a 	mov	r4,r18
   40b60:	39ed1844 	addi	r7,r7,-19359
   40b64:	01869834 	movhi	r6,6752
   40b68:	180b883a 	mov	r5,r3
   40b6c:	00430940 	call	43094 <__adddf3>
   40b70:	018b80f4 	movhi	r6,11779
   40b74:	01cee8f4 	movhi	r7,15267
   40b78:	319c1cc4 	addi	r6,r6,28787
   40b7c:	39c66284 	addi	r7,r7,6538
   40b80:	1009883a 	mov	r4,r2
   40b84:	180b883a 	mov	r5,r3
   40b88:	1025883a 	mov	r18,r2
   40b8c:	1823883a 	mov	r17,r3
   40b90:	00430940 	call	43094 <__adddf3>
   40b94:	100d883a 	mov	r6,r2
   40b98:	180f883a 	mov	r7,r3
   40b9c:	9009883a 	mov	r4,r18
   40ba0:	880b883a 	mov	r5,r17
   40ba4:	80800015 	stw	r2,0(r16)
   40ba8:	80c00115 	stw	r3,4(r16)
   40bac:	0044aa40 	call	44aa4 <__subdf3>
   40bb0:	018b80f4 	movhi	r6,11779
   40bb4:	01cee8f4 	movhi	r7,15267
   40bb8:	319c1cc4 	addi	r6,r6,28787
   40bbc:	39c66284 	addi	r7,r7,6538
   40bc0:	003fd506 	br	40b18 <__alt_data_end+0xfffd9a18>
   40bc4:	dac00917 	ldw	r11,36(sp)
   40bc8:	b815883a 	mov	r10,r23
   40bcc:	003f2b06 	br	4087c <__alt_data_end+0xfffd977c>

00040bd0 <__kernel_cos>:
   40bd0:	defff304 	addi	sp,sp,-52
   40bd4:	dc000315 	stw	r16,12(sp)
   40bd8:	04200034 	movhi	r16,32768
   40bdc:	843fffc4 	addi	r16,r16,-1
   40be0:	008f9034 	movhi	r2,15936
   40be4:	df000b15 	stw	fp,44(sp)
   40be8:	ddc00a15 	stw	r23,40(sp)
   40bec:	dd800915 	stw	r22,36(sp)
   40bf0:	dcc00615 	stw	r19,24(sp)
   40bf4:	dfc00c15 	stw	ra,48(sp)
   40bf8:	dd400815 	stw	r21,32(sp)
   40bfc:	dd000715 	stw	r20,28(sp)
   40c00:	dc800515 	stw	r18,20(sp)
   40c04:	dc400415 	stw	r17,16(sp)
   40c08:	2c20703a 	and	r16,r5,r16
   40c0c:	10bfffc4 	addi	r2,r2,-1
   40c10:	2827883a 	mov	r19,r5
   40c14:	202d883a 	mov	r22,r4
   40c18:	302f883a 	mov	r23,r6
   40c1c:	3839883a 	mov	fp,r7
   40c20:	14007516 	blt	r2,r16,40df8 <__kernel_cos+0x228>
   40c24:	00453a00 	call	453a0 <__fixdfsi>
   40c28:	10010f26 	beq	r2,zero,41068 <__kernel_cos+0x498>
   40c2c:	b00d883a 	mov	r6,r22
   40c30:	980f883a 	mov	r7,r19
   40c34:	b009883a 	mov	r4,r22
   40c38:	980b883a 	mov	r5,r19
   40c3c:	004438c0 	call	4438c <__muldf3>
   40c40:	01afa234 	movhi	r6,48776
   40c44:	01ef6a74 	movhi	r7,48553
   40c48:	318e3504 	addi	r6,r6,14548
   40c4c:	39feba44 	addi	r7,r7,-1303
   40c50:	1009883a 	mov	r4,r2
   40c54:	180b883a 	mov	r5,r3
   40c58:	102b883a 	mov	r21,r2
   40c5c:	1829883a 	mov	r20,r3
   40c60:	004438c0 	call	4438c <__muldf3>
   40c64:	01af6d74 	movhi	r6,48565
   40c68:	01cf88b4 	movhi	r7,15906
   40c6c:	31ac7104 	addi	r6,r6,-20028
   40c70:	39fba784 	addi	r7,r7,-4450
   40c74:	1009883a 	mov	r4,r2
   40c78:	180b883a 	mov	r5,r3
   40c7c:	00430940 	call	43094 <__adddf3>
   40c80:	a80d883a 	mov	r6,r21
   40c84:	a00f883a 	mov	r7,r20
   40c88:	1009883a 	mov	r4,r2
   40c8c:	180b883a 	mov	r5,r3
   40c90:	004438c0 	call	4438c <__muldf3>
   40c94:	01a02734 	movhi	r6,32924
   40c98:	01cfa4b4 	movhi	r7,16018
   40c9c:	3194ab44 	addi	r6,r6,21165
   40ca0:	39df93c4 	addi	r7,r7,32335
   40ca4:	1009883a 	mov	r4,r2
   40ca8:	180b883a 	mov	r5,r3
   40cac:	0044aa40 	call	44aa4 <__subdf3>
   40cb0:	a80d883a 	mov	r6,r21
   40cb4:	a00f883a 	mov	r7,r20
   40cb8:	1009883a 	mov	r4,r2
   40cbc:	180b883a 	mov	r5,r3
   40cc0:	004438c0 	call	4438c <__muldf3>
   40cc4:	018672f4 	movhi	r6,6603
   40cc8:	01cfbeb4 	movhi	r7,16122
   40ccc:	31856404 	addi	r6,r6,5520
   40cd0:	39c06804 	addi	r7,r7,416
   40cd4:	1009883a 	mov	r4,r2
   40cd8:	180b883a 	mov	r5,r3
   40cdc:	00430940 	call	43094 <__adddf3>
   40ce0:	a80d883a 	mov	r6,r21
   40ce4:	a00f883a 	mov	r7,r20
   40ce8:	1009883a 	mov	r4,r2
   40cec:	180b883a 	mov	r5,r3
   40cf0:	004438c0 	call	4438c <__muldf3>
   40cf4:	0185b074 	movhi	r6,5825
   40cf8:	01cfd5f4 	movhi	r7,16215
   40cfc:	31945dc4 	addi	r6,r6,20855
   40d00:	39f05b04 	addi	r7,r7,-16020
   40d04:	1009883a 	mov	r4,r2
   40d08:	180b883a 	mov	r5,r3
   40d0c:	0044aa40 	call	44aa4 <__subdf3>
   40d10:	a80d883a 	mov	r6,r21
   40d14:	a00f883a 	mov	r7,r20
   40d18:	1009883a 	mov	r4,r2
   40d1c:	180b883a 	mov	r5,r3
   40d20:	004438c0 	call	4438c <__muldf3>
   40d24:	01955574 	movhi	r6,21845
   40d28:	01cfe974 	movhi	r7,16293
   40d2c:	31955304 	addi	r6,r6,21836
   40d30:	39d55544 	addi	r7,r7,21845
   40d34:	1009883a 	mov	r4,r2
   40d38:	180b883a 	mov	r5,r3
   40d3c:	00430940 	call	43094 <__adddf3>
   40d40:	a80d883a 	mov	r6,r21
   40d44:	a00f883a 	mov	r7,r20
   40d48:	1009883a 	mov	r4,r2
   40d4c:	180b883a 	mov	r5,r3
   40d50:	004438c0 	call	4438c <__muldf3>
   40d54:	1017883a 	mov	r11,r2
   40d58:	1815883a 	mov	r10,r3
   40d5c:	a809883a 	mov	r4,r21
   40d60:	a00b883a 	mov	r5,r20
   40d64:	000d883a 	mov	r6,zero
   40d68:	01cff834 	movhi	r7,16352
   40d6c:	da800215 	stw	r10,8(sp)
   40d70:	dac00115 	stw	r11,4(sp)
   40d74:	004438c0 	call	4438c <__muldf3>
   40d78:	dac00117 	ldw	r11,4(sp)
   40d7c:	da800217 	ldw	r10,8(sp)
   40d80:	a809883a 	mov	r4,r21
   40d84:	580d883a 	mov	r6,r11
   40d88:	500f883a 	mov	r7,r10
   40d8c:	a00b883a 	mov	r5,r20
   40d90:	1023883a 	mov	r17,r2
   40d94:	1821883a 	mov	r16,r3
   40d98:	004438c0 	call	4438c <__muldf3>
   40d9c:	b80d883a 	mov	r6,r23
   40da0:	e00f883a 	mov	r7,fp
   40da4:	b009883a 	mov	r4,r22
   40da8:	980b883a 	mov	r5,r19
   40dac:	1029883a 	mov	r20,r2
   40db0:	1825883a 	mov	r18,r3
   40db4:	004438c0 	call	4438c <__muldf3>
   40db8:	a009883a 	mov	r4,r20
   40dbc:	900b883a 	mov	r5,r18
   40dc0:	100d883a 	mov	r6,r2
   40dc4:	180f883a 	mov	r7,r3
   40dc8:	0044aa40 	call	44aa4 <__subdf3>
   40dcc:	8809883a 	mov	r4,r17
   40dd0:	800b883a 	mov	r5,r16
   40dd4:	100d883a 	mov	r6,r2
   40dd8:	180f883a 	mov	r7,r3
   40ddc:	0044aa40 	call	44aa4 <__subdf3>
   40de0:	100d883a 	mov	r6,r2
   40de4:	180f883a 	mov	r7,r3
   40de8:	0009883a 	mov	r4,zero
   40dec:	014ffc34 	movhi	r5,16368
   40df0:	0044aa40 	call	44aa4 <__subdf3>
   40df4:	00008b06 	br	41024 <__kernel_cos+0x454>
   40df8:	200d883a 	mov	r6,r4
   40dfc:	280f883a 	mov	r7,r5
   40e00:	004438c0 	call	4438c <__muldf3>
   40e04:	01afa234 	movhi	r6,48776
   40e08:	01ef6a74 	movhi	r7,48553
   40e0c:	318e3504 	addi	r6,r6,14548
   40e10:	39feba44 	addi	r7,r7,-1303
   40e14:	1009883a 	mov	r4,r2
   40e18:	180b883a 	mov	r5,r3
   40e1c:	1025883a 	mov	r18,r2
   40e20:	1823883a 	mov	r17,r3
   40e24:	004438c0 	call	4438c <__muldf3>
   40e28:	01af6d74 	movhi	r6,48565
   40e2c:	01cf88b4 	movhi	r7,15906
   40e30:	31ac7104 	addi	r6,r6,-20028
   40e34:	39fba784 	addi	r7,r7,-4450
   40e38:	1009883a 	mov	r4,r2
   40e3c:	180b883a 	mov	r5,r3
   40e40:	00430940 	call	43094 <__adddf3>
   40e44:	900d883a 	mov	r6,r18
   40e48:	880f883a 	mov	r7,r17
   40e4c:	1009883a 	mov	r4,r2
   40e50:	180b883a 	mov	r5,r3
   40e54:	004438c0 	call	4438c <__muldf3>
   40e58:	01a02734 	movhi	r6,32924
   40e5c:	01cfa4b4 	movhi	r7,16018
   40e60:	3194ab44 	addi	r6,r6,21165
   40e64:	39df93c4 	addi	r7,r7,32335
   40e68:	1009883a 	mov	r4,r2
   40e6c:	180b883a 	mov	r5,r3
   40e70:	0044aa40 	call	44aa4 <__subdf3>
   40e74:	900d883a 	mov	r6,r18
   40e78:	880f883a 	mov	r7,r17
   40e7c:	1009883a 	mov	r4,r2
   40e80:	180b883a 	mov	r5,r3
   40e84:	004438c0 	call	4438c <__muldf3>
   40e88:	018672f4 	movhi	r6,6603
   40e8c:	01cfbeb4 	movhi	r7,16122
   40e90:	31856404 	addi	r6,r6,5520
   40e94:	39c06804 	addi	r7,r7,416
   40e98:	1009883a 	mov	r4,r2
   40e9c:	180b883a 	mov	r5,r3
   40ea0:	00430940 	call	43094 <__adddf3>
   40ea4:	900d883a 	mov	r6,r18
   40ea8:	880f883a 	mov	r7,r17
   40eac:	1009883a 	mov	r4,r2
   40eb0:	180b883a 	mov	r5,r3
   40eb4:	004438c0 	call	4438c <__muldf3>
   40eb8:	0185b074 	movhi	r6,5825
   40ebc:	01cfd5f4 	movhi	r7,16215
   40ec0:	31945dc4 	addi	r6,r6,20855
   40ec4:	39f05b04 	addi	r7,r7,-16020
   40ec8:	1009883a 	mov	r4,r2
   40ecc:	180b883a 	mov	r5,r3
   40ed0:	0044aa40 	call	44aa4 <__subdf3>
   40ed4:	900d883a 	mov	r6,r18
   40ed8:	880f883a 	mov	r7,r17
   40edc:	1009883a 	mov	r4,r2
   40ee0:	180b883a 	mov	r5,r3
   40ee4:	004438c0 	call	4438c <__muldf3>
   40ee8:	01955574 	movhi	r6,21845
   40eec:	01cfe974 	movhi	r7,16293
   40ef0:	31955304 	addi	r6,r6,21836
   40ef4:	39d55544 	addi	r7,r7,21845
   40ef8:	1009883a 	mov	r4,r2
   40efc:	180b883a 	mov	r5,r3
   40f00:	00430940 	call	43094 <__adddf3>
   40f04:	900d883a 	mov	r6,r18
   40f08:	880f883a 	mov	r7,r17
   40f0c:	1009883a 	mov	r4,r2
   40f10:	180b883a 	mov	r5,r3
   40f14:	004438c0 	call	4438c <__muldf3>
   40f18:	1013883a 	mov	r9,r2
   40f1c:	1017883a 	mov	r11,r2
   40f20:	008ff4f4 	movhi	r2,16339
   40f24:	108ccc84 	addi	r2,r2,13106
   40f28:	1811883a 	mov	r8,r3
   40f2c:	902b883a 	mov	r21,r18
   40f30:	8829883a 	mov	r20,r17
   40f34:	1815883a 	mov	r10,r3
   40f38:	143f880e 	bge	r2,r16,40d5c <__alt_data_end+0xfffd9c5c>
   40f3c:	008ffa74 	movhi	r2,16361
   40f40:	14004416 	blt	r2,r16,41054 <__kernel_cos+0x484>
   40f44:	00bff834 	movhi	r2,65504
   40f48:	80a1883a 	add	r16,r16,r2
   40f4c:	000d883a 	mov	r6,zero
   40f50:	800f883a 	mov	r7,r16
   40f54:	0009883a 	mov	r4,zero
   40f58:	014ffc34 	movhi	r5,16368
   40f5c:	da400115 	stw	r9,4(sp)
   40f60:	d8c00215 	stw	r3,8(sp)
   40f64:	0044aa40 	call	44aa4 <__subdf3>
   40f68:	da000217 	ldw	r8,8(sp)
   40f6c:	da400117 	ldw	r9,4(sp)
   40f70:	102b883a 	mov	r21,r2
   40f74:	d8c00015 	stw	r3,0(sp)
   40f78:	9009883a 	mov	r4,r18
   40f7c:	880b883a 	mov	r5,r17
   40f80:	000d883a 	mov	r6,zero
   40f84:	01cff834 	movhi	r7,16352
   40f88:	da000215 	stw	r8,8(sp)
   40f8c:	da400115 	stw	r9,4(sp)
   40f90:	004438c0 	call	4438c <__muldf3>
   40f94:	800f883a 	mov	r7,r16
   40f98:	000d883a 	mov	r6,zero
   40f9c:	1009883a 	mov	r4,r2
   40fa0:	180b883a 	mov	r5,r3
   40fa4:	0044aa40 	call	44aa4 <__subdf3>
   40fa8:	da400117 	ldw	r9,4(sp)
   40fac:	da000217 	ldw	r8,8(sp)
   40fb0:	9009883a 	mov	r4,r18
   40fb4:	480d883a 	mov	r6,r9
   40fb8:	400f883a 	mov	r7,r8
   40fbc:	880b883a 	mov	r5,r17
   40fc0:	1029883a 	mov	r20,r2
   40fc4:	1821883a 	mov	r16,r3
   40fc8:	004438c0 	call	4438c <__muldf3>
   40fcc:	b80d883a 	mov	r6,r23
   40fd0:	e00f883a 	mov	r7,fp
   40fd4:	b009883a 	mov	r4,r22
   40fd8:	980b883a 	mov	r5,r19
   40fdc:	1025883a 	mov	r18,r2
   40fe0:	1823883a 	mov	r17,r3
   40fe4:	004438c0 	call	4438c <__muldf3>
   40fe8:	100d883a 	mov	r6,r2
   40fec:	180f883a 	mov	r7,r3
   40ff0:	9009883a 	mov	r4,r18
   40ff4:	880b883a 	mov	r5,r17
   40ff8:	0044aa40 	call	44aa4 <__subdf3>
   40ffc:	100d883a 	mov	r6,r2
   41000:	180f883a 	mov	r7,r3
   41004:	a009883a 	mov	r4,r20
   41008:	800b883a 	mov	r5,r16
   4100c:	0044aa40 	call	44aa4 <__subdf3>
   41010:	d9400017 	ldw	r5,0(sp)
   41014:	100d883a 	mov	r6,r2
   41018:	180f883a 	mov	r7,r3
   4101c:	a809883a 	mov	r4,r21
   41020:	0044aa40 	call	44aa4 <__subdf3>
   41024:	dfc00c17 	ldw	ra,48(sp)
   41028:	df000b17 	ldw	fp,44(sp)
   4102c:	ddc00a17 	ldw	r23,40(sp)
   41030:	dd800917 	ldw	r22,36(sp)
   41034:	dd400817 	ldw	r21,32(sp)
   41038:	dd000717 	ldw	r20,28(sp)
   4103c:	dcc00617 	ldw	r19,24(sp)
   41040:	dc800517 	ldw	r18,20(sp)
   41044:	dc400417 	ldw	r17,16(sp)
   41048:	dc000317 	ldw	r16,12(sp)
   4104c:	dec00d04 	addi	sp,sp,52
   41050:	f800283a 	ret
   41054:	008ff9f4 	movhi	r2,16359
   41058:	002b883a 	mov	r21,zero
   4105c:	d8800015 	stw	r2,0(sp)
   41060:	040ff4b4 	movhi	r16,16338
   41064:	003fc406 	br	40f78 <__alt_data_end+0xfffd9e78>
   41068:	0005883a 	mov	r2,zero
   4106c:	00cffc34 	movhi	r3,16368
   41070:	003fec06 	br	41024 <__alt_data_end+0xfffd9f24>

00041074 <__kernel_rem_pio2>:
   41074:	deff5a04 	addi	sp,sp,-664
   41078:	da00a617 	ldw	r8,664(sp)
   4107c:	00c00174 	movhi	r3,5
   41080:	18ebac04 	addi	r3,r3,-20816
   41084:	4205883a 	add	r2,r8,r8
   41088:	1085883a 	add	r2,r2,r2
   4108c:	1885883a 	add	r2,r3,r2
   41090:	d9008e15 	stw	r4,568(sp)
   41094:	d9408f15 	stw	r5,572(sp)
   41098:	313fff44 	addi	r4,r6,-3
   4109c:	01400604 	movi	r5,24
   410a0:	dd80a215 	stw	r22,648(sp)
   410a4:	dc009c15 	stw	r16,624(sp)
   410a8:	dfc0a515 	stw	ra,660(sp)
   410ac:	df00a415 	stw	fp,656(sp)
   410b0:	ddc0a315 	stw	r23,652(sp)
   410b4:	dd40a115 	stw	r21,644(sp)
   410b8:	dd00a015 	stw	r20,640(sp)
   410bc:	dcc09f15 	stw	r19,636(sp)
   410c0:	dc809e15 	stw	r18,632(sp)
   410c4:	dc409d15 	stw	r17,628(sp)
   410c8:	3021883a 	mov	r16,r6
   410cc:	d9c09315 	stw	r7,588(sp)
   410d0:	15800017 	ldw	r22,0(r2)
   410d4:	00424880 	call	42488 <__divsi3>
   410d8:	da009317 	ldw	r8,588(sp)
   410dc:	d8809215 	stw	r2,584(sp)
   410e0:	423fffc4 	addi	r8,r8,-1
   410e4:	da008d15 	stw	r8,564(sp)
   410e8:	10033b16 	blt	r2,zero,41dd8 <__kernel_rem_pio2+0xd64>
   410ec:	da009217 	ldw	r8,584(sp)
   410f0:	d9009217 	ldw	r4,584(sp)
   410f4:	42000044 	addi	r8,r8,1
   410f8:	40fffa24 	muli	r3,r8,-24
   410fc:	da009515 	stw	r8,596(sp)
   41100:	da008d17 	ldw	r8,564(sp)
   41104:	1c07883a 	add	r3,r3,r16
   41108:	d8c09015 	stw	r3,576(sp)
   4110c:	b205883a 	add	r2,r22,r8
   41110:	2223c83a 	sub	r17,r4,r8
   41114:	10001016 	blt	r2,zero,41158 <__kernel_rem_pio2+0xe4>
   41118:	da00a717 	ldw	r8,668(sp)
   4111c:	8c65883a 	add	r18,r17,r17
   41120:	94a5883a 	add	r18,r18,r18
   41124:	1445883a 	add	r2,r2,r17
   41128:	dcc05004 	addi	r19,sp,320
   4112c:	44a5883a 	add	r18,r8,r18
   41130:	14000044 	addi	r16,r2,1
   41134:	88015316 	blt	r17,zero,41684 <__kernel_rem_pio2+0x610>
   41138:	91000017 	ldw	r4,0(r18)
   4113c:	00454200 	call	45420 <__floatsidf>
   41140:	98800015 	stw	r2,0(r19)
   41144:	98c00115 	stw	r3,4(r19)
   41148:	8c400044 	addi	r17,r17,1
   4114c:	9cc00204 	addi	r19,r19,8
   41150:	94800104 	addi	r18,r18,4
   41154:	8c3ff71e 	bne	r17,r16,41134 <__alt_data_end+0xfffda034>
   41158:	b0002816 	blt	r22,zero,411fc <__kernel_rem_pio2+0x188>
   4115c:	da008d17 	ldw	r8,564(sp)
   41160:	b4c00044 	addi	r19,r22,1
   41164:	982690fa 	slli	r19,r19,3
   41168:	402490fa 	slli	r18,r8,3
   4116c:	da008e17 	ldw	r8,568(sp)
   41170:	d8805004 	addi	r2,sp,320
   41174:	94000204 	addi	r16,r18,8
   41178:	d823883a 	mov	r17,sp
   4117c:	14a5883a 	add	r18,r2,r18
   41180:	dcef883a 	add	r23,sp,r19
   41184:	4421883a 	add	r16,r8,r16
   41188:	dd809115 	stw	r22,580(sp)
   4118c:	4039883a 	mov	fp,r8
   41190:	da008d17 	ldw	r8,564(sp)
   41194:	40016016 	blt	r8,zero,41718 <__kernel_rem_pio2+0x6a4>
   41198:	e027883a 	mov	r19,fp
   4119c:	9029883a 	mov	r20,r18
   411a0:	002d883a 	mov	r22,zero
   411a4:	002b883a 	mov	r21,zero
   411a8:	a1800017 	ldw	r6,0(r20)
   411ac:	a1c00117 	ldw	r7,4(r20)
   411b0:	99000017 	ldw	r4,0(r19)
   411b4:	99400117 	ldw	r5,4(r19)
   411b8:	9cc00204 	addi	r19,r19,8
   411bc:	a53ffe04 	addi	r20,r20,-8
   411c0:	004438c0 	call	4438c <__muldf3>
   411c4:	b009883a 	mov	r4,r22
   411c8:	a80b883a 	mov	r5,r21
   411cc:	100d883a 	mov	r6,r2
   411d0:	180f883a 	mov	r7,r3
   411d4:	00430940 	call	43094 <__adddf3>
   411d8:	102d883a 	mov	r22,r2
   411dc:	182b883a 	mov	r21,r3
   411e0:	9c3ff11e 	bne	r19,r16,411a8 <__alt_data_end+0xfffda0a8>
   411e4:	8d800015 	stw	r22,0(r17)
   411e8:	8d400115 	stw	r21,4(r17)
   411ec:	8c400204 	addi	r17,r17,8
   411f0:	94800204 	addi	r18,r18,8
   411f4:	8dffe61e 	bne	r17,r23,41190 <__alt_data_end+0xfffda090>
   411f8:	dd809117 	ldw	r22,580(sp)
   411fc:	00d00034 	movhi	r3,16384
   41200:	da009317 	ldw	r8,588(sp)
   41204:	18ffff84 	addi	r3,r3,-2
   41208:	b0c7883a 	add	r3,r22,r3
   4120c:	18c7883a 	add	r3,r3,r3
   41210:	402090fa 	slli	r16,r8,3
   41214:	18c7883a 	add	r3,r3,r3
   41218:	da007804 	addi	r8,sp,480
   4121c:	40d1883a 	add	r8,r8,r3
   41220:	b0bfffc4 	addi	r2,r22,-1
   41224:	da009615 	stw	r8,600(sp)
   41228:	da008e17 	ldw	r8,568(sp)
   4122c:	1085883a 	add	r2,r2,r2
   41230:	1085883a 	add	r2,r2,r2
   41234:	19000104 	addi	r4,r3,4
   41238:	d885883a 	add	r2,sp,r2
   4123c:	4421883a 	add	r16,r8,r16
   41240:	da007804 	addi	r8,sp,480
   41244:	4111883a 	add	r8,r8,r4
   41248:	10807804 	addi	r2,r2,480
   4124c:	da009715 	stw	r8,604(sp)
   41250:	b025883a 	mov	r18,r22
   41254:	d8809815 	stw	r2,608(sp)
   41258:	dd809415 	stw	r22,592(sp)
   4125c:	900490fa 	slli	r2,r18,3
   41260:	d885883a 	add	r2,sp,r2
   41264:	17000017 	ldw	fp,0(r2)
   41268:	15400117 	ldw	r21,4(r2)
   4126c:	04802b0e 	bge	zero,r18,4131c <__kernel_rem_pio2+0x2a8>
   41270:	00880034 	movhi	r2,8192
   41274:	10bfffc4 	addi	r2,r2,-1
   41278:	90a9883a 	add	r20,r18,r2
   4127c:	a02890fa 	slli	r20,r20,3
   41280:	dc407804 	addi	r17,sp,480
   41284:	dcfffe04 	addi	r19,sp,-8
   41288:	dd29883a 	add	r20,sp,r20
   4128c:	000d883a 	mov	r6,zero
   41290:	01cf9c34 	movhi	r7,15984
   41294:	e009883a 	mov	r4,fp
   41298:	a80b883a 	mov	r5,r21
   4129c:	004438c0 	call	4438c <__muldf3>
   412a0:	180b883a 	mov	r5,r3
   412a4:	1009883a 	mov	r4,r2
   412a8:	00453a00 	call	453a0 <__fixdfsi>
   412ac:	1009883a 	mov	r4,r2
   412b0:	00454200 	call	45420 <__floatsidf>
   412b4:	000d883a 	mov	r6,zero
   412b8:	01d05c34 	movhi	r7,16752
   412bc:	1009883a 	mov	r4,r2
   412c0:	180b883a 	mov	r5,r3
   412c4:	102f883a 	mov	r23,r2
   412c8:	182d883a 	mov	r22,r3
   412cc:	004438c0 	call	4438c <__muldf3>
   412d0:	100d883a 	mov	r6,r2
   412d4:	180f883a 	mov	r7,r3
   412d8:	e009883a 	mov	r4,fp
   412dc:	a80b883a 	mov	r5,r21
   412e0:	0044aa40 	call	44aa4 <__subdf3>
   412e4:	180b883a 	mov	r5,r3
   412e8:	1009883a 	mov	r4,r2
   412ec:	00453a00 	call	453a0 <__fixdfsi>
   412f0:	a1800017 	ldw	r6,0(r20)
   412f4:	a1c00117 	ldw	r7,4(r20)
   412f8:	88800015 	stw	r2,0(r17)
   412fc:	b809883a 	mov	r4,r23
   41300:	b00b883a 	mov	r5,r22
   41304:	00430940 	call	43094 <__adddf3>
   41308:	a53ffe04 	addi	r20,r20,-8
   4130c:	1039883a 	mov	fp,r2
   41310:	182b883a 	mov	r21,r3
   41314:	8c400104 	addi	r17,r17,4
   41318:	a4ffdc1e 	bne	r20,r19,4128c <__alt_data_end+0xfffda18c>
   4131c:	d9809017 	ldw	r6,576(sp)
   41320:	a80b883a 	mov	r5,r21
   41324:	e009883a 	mov	r4,fp
   41328:	00422d00 	call	422d0 <scalbn>
   4132c:	000d883a 	mov	r6,zero
   41330:	01cff034 	movhi	r7,16320
   41334:	1009883a 	mov	r4,r2
   41338:	180b883a 	mov	r5,r3
   4133c:	1027883a 	mov	r19,r2
   41340:	1823883a 	mov	r17,r3
   41344:	004438c0 	call	4438c <__muldf3>
   41348:	1009883a 	mov	r4,r2
   4134c:	180b883a 	mov	r5,r3
   41350:	00420e40 	call	420e4 <floor>
   41354:	000d883a 	mov	r6,zero
   41358:	01d00834 	movhi	r7,16416
   4135c:	1009883a 	mov	r4,r2
   41360:	180b883a 	mov	r5,r3
   41364:	004438c0 	call	4438c <__muldf3>
   41368:	100d883a 	mov	r6,r2
   4136c:	180f883a 	mov	r7,r3
   41370:	9809883a 	mov	r4,r19
   41374:	880b883a 	mov	r5,r17
   41378:	0044aa40 	call	44aa4 <__subdf3>
   4137c:	180b883a 	mov	r5,r3
   41380:	1009883a 	mov	r4,r2
   41384:	1827883a 	mov	r19,r3
   41388:	1029883a 	mov	r20,r2
   4138c:	00453a00 	call	453a0 <__fixdfsi>
   41390:	1009883a 	mov	r4,r2
   41394:	1023883a 	mov	r17,r2
   41398:	00454200 	call	45420 <__floatsidf>
   4139c:	a009883a 	mov	r4,r20
   413a0:	100d883a 	mov	r6,r2
   413a4:	180f883a 	mov	r7,r3
   413a8:	980b883a 	mov	r5,r19
   413ac:	0044aa40 	call	44aa4 <__subdf3>
   413b0:	d9009017 	ldw	r4,576(sp)
   413b4:	1013883a 	mov	r9,r2
   413b8:	102b883a 	mov	r21,r2
   413bc:	1811883a 	mov	r8,r3
   413c0:	0100b30e 	bge	zero,r4,41690 <__kernel_rem_pio2+0x61c>
   413c4:	90bfffc4 	addi	r2,r18,-1
   413c8:	1085883a 	add	r2,r2,r2
   413cc:	1085883a 	add	r2,r2,r2
   413d0:	d885883a 	add	r2,sp,r2
   413d4:	10807804 	addi	r2,r2,480
   413d8:	d9809017 	ldw	r6,576(sp)
   413dc:	11400017 	ldw	r5,0(r2)
   413e0:	01000604 	movi	r4,24
   413e4:	2189c83a 	sub	r4,r4,r6
   413e8:	290dd83a 	sra	r6,r5,r4
   413ec:	d9c09017 	ldw	r7,576(sp)
   413f0:	04c005c4 	movi	r19,23
   413f4:	3108983a 	sll	r4,r6,r4
   413f8:	99e7c83a 	sub	r19,r19,r7
   413fc:	89a3883a 	add	r17,r17,r6
   41400:	2909c83a 	sub	r4,r5,r4
   41404:	24e7d83a 	sra	r19,r4,r19
   41408:	11000015 	stw	r4,0(r2)
   4140c:	04c02a0e 	bge	zero,r19,414b8 <__kernel_rem_pio2+0x444>
   41410:	8c400044 	addi	r17,r17,1
   41414:	0481570e 	bge	zero,r18,41974 <__kernel_rem_pio2+0x900>
   41418:	02804034 	movhi	r10,256
   4141c:	52bfffc4 	addi	r10,r10,-1
   41420:	d8807804 	addi	r2,sp,480
   41424:	000b883a 	mov	r5,zero
   41428:	0029883a 	mov	r20,zero
   4142c:	01c04034 	movhi	r7,256
   41430:	00000706 	br	41450 <__kernel_rem_pio2+0x3dc>
   41434:	390dc83a 	sub	r6,r7,r4
   41438:	20000226 	beq	r4,zero,41444 <__kernel_rem_pio2+0x3d0>
   4143c:	11800015 	stw	r6,0(r2)
   41440:	05000044 	movi	r20,1
   41444:	29400044 	addi	r5,r5,1
   41448:	10800104 	addi	r2,r2,4
   4144c:	2c80080e 	bge	r5,r18,41470 <__kernel_rem_pio2+0x3fc>
   41450:	11000017 	ldw	r4,0(r2)
   41454:	a03ff726 	beq	r20,zero,41434 <__alt_data_end+0xfffda334>
   41458:	5109c83a 	sub	r4,r10,r4
   4145c:	11000015 	stw	r4,0(r2)
   41460:	29400044 	addi	r5,r5,1
   41464:	05000044 	movi	r20,1
   41468:	10800104 	addi	r2,r2,4
   4146c:	2cbff816 	blt	r5,r18,41450 <__alt_data_end+0xfffda350>
   41470:	d9009017 	ldw	r4,576(sp)
   41474:	01000e0e 	bge	zero,r4,414b0 <__kernel_rem_pio2+0x43c>
   41478:	00800044 	movi	r2,1
   4147c:	20808d26 	beq	r4,r2,416b4 <__kernel_rem_pio2+0x640>
   41480:	00800084 	movi	r2,2
   41484:	20800a1e 	bne	r4,r2,414b0 <__kernel_rem_pio2+0x43c>
   41488:	90bfffc4 	addi	r2,r18,-1
   4148c:	1085883a 	add	r2,r2,r2
   41490:	1085883a 	add	r2,r2,r2
   41494:	d885883a 	add	r2,sp,r2
   41498:	10807804 	addi	r2,r2,480
   4149c:	11400017 	ldw	r5,0(r2)
   414a0:	01001034 	movhi	r4,64
   414a4:	213fffc4 	addi	r4,r4,-1
   414a8:	2908703a 	and	r4,r5,r4
   414ac:	11000015 	stw	r4,0(r2)
   414b0:	00800084 	movi	r2,2
   414b4:	98805d26 	beq	r19,r2,4162c <__kernel_rem_pio2+0x5b8>
   414b8:	400b883a 	mov	r5,r8
   414bc:	000d883a 	mov	r6,zero
   414c0:	000f883a 	mov	r7,zero
   414c4:	a809883a 	mov	r4,r21
   414c8:	da009b15 	stw	r8,620(sp)
   414cc:	00442280 	call	44228 <__eqdf2>
   414d0:	da009b17 	ldw	r8,620(sp)
   414d4:	10012b1e 	bne	r2,zero,41984 <__kernel_rem_pio2+0x910>
   414d8:	da009417 	ldw	r8,592(sp)
   414dc:	917fffc4 	addi	r5,r18,-1
   414e0:	2a000e16 	blt	r5,r8,4151c <__kernel_rem_pio2+0x4a8>
   414e4:	00900034 	movhi	r2,16384
   414e8:	10bfffc4 	addi	r2,r2,-1
   414ec:	9085883a 	add	r2,r18,r2
   414f0:	1085883a 	add	r2,r2,r2
   414f4:	d9809717 	ldw	r6,604(sp)
   414f8:	1085883a 	add	r2,r2,r2
   414fc:	d9007804 	addi	r4,sp,480
   41500:	0007883a 	mov	r3,zero
   41504:	2085883a 	add	r2,r4,r2
   41508:	11000017 	ldw	r4,0(r2)
   4150c:	10bfff04 	addi	r2,r2,-4
   41510:	1906b03a 	or	r3,r3,r4
   41514:	11bffc1e 	bne	r2,r6,41508 <__alt_data_end+0xfffda408>
   41518:	1800821e 	bne	r3,zero,41724 <__kernel_rem_pio2+0x6b0>
   4151c:	da009817 	ldw	r8,608(sp)
   41520:	40800017 	ldw	r2,0(r8)
   41524:	1001151e 	bne	r2,zero,4197c <__kernel_rem_pio2+0x908>
   41528:	d8809617 	ldw	r2,600(sp)
   4152c:	05000044 	movi	r20,1
   41530:	10bfff04 	addi	r2,r2,-4
   41534:	10c00117 	ldw	r3,4(r2)
   41538:	a5000044 	addi	r20,r20,1
   4153c:	183ffc26 	beq	r3,zero,41530 <__alt_data_end+0xfffda430>
   41540:	9529883a 	add	r20,r18,r20
   41544:	90800044 	addi	r2,r18,1
   41548:	dd009115 	stw	r20,580(sp)
   4154c:	a0803216 	blt	r20,r2,41618 <__kernel_rem_pio2+0x5a4>
   41550:	da009317 	ldw	r8,588(sp)
   41554:	d8c09117 	ldw	r3,580(sp)
   41558:	44a3883a 	add	r17,r8,r18
   4155c:	da009217 	ldw	r8,584(sp)
   41560:	882290fa 	slli	r17,r17,3
   41564:	40a5883a 	add	r18,r8,r2
   41568:	da009517 	ldw	r8,596(sp)
   4156c:	100490fa 	slli	r2,r2,3
   41570:	94a5883a 	add	r18,r18,r18
   41574:	40eb883a 	add	r21,r8,r3
   41578:	da00a717 	ldw	r8,668(sp)
   4157c:	ad6b883a 	add	r21,r21,r21
   41580:	94a5883a 	add	r18,r18,r18
   41584:	ad6b883a 	add	r21,r21,r21
   41588:	d8c05004 	addi	r3,sp,320
   4158c:	44a5883a 	add	r18,r8,r18
   41590:	1c63883a 	add	r17,r3,r17
   41594:	d8a7883a 	add	r19,sp,r2
   41598:	456b883a 	add	r21,r8,r21
   4159c:	91000017 	ldw	r4,0(r18)
   415a0:	00454200 	call	45420 <__floatsidf>
   415a4:	da008d17 	ldw	r8,564(sp)
   415a8:	88800015 	stw	r2,0(r17)
   415ac:	88c00115 	stw	r3,4(r17)
   415b0:	40001b16 	blt	r8,zero,41620 <__kernel_rem_pio2+0x5ac>
   415b4:	dd008e17 	ldw	r20,568(sp)
   415b8:	882d883a 	mov	r22,r17
   415bc:	002f883a 	mov	r23,zero
   415c0:	0039883a 	mov	fp,zero
   415c4:	b1800017 	ldw	r6,0(r22)
   415c8:	b1c00117 	ldw	r7,4(r22)
   415cc:	a1000017 	ldw	r4,0(r20)
   415d0:	a1400117 	ldw	r5,4(r20)
   415d4:	a5000204 	addi	r20,r20,8
   415d8:	b5bffe04 	addi	r22,r22,-8
   415dc:	004438c0 	call	4438c <__muldf3>
   415e0:	b809883a 	mov	r4,r23
   415e4:	e00b883a 	mov	r5,fp
   415e8:	100d883a 	mov	r6,r2
   415ec:	180f883a 	mov	r7,r3
   415f0:	00430940 	call	43094 <__adddf3>
   415f4:	102f883a 	mov	r23,r2
   415f8:	1839883a 	mov	fp,r3
   415fc:	a43ff11e 	bne	r20,r16,415c4 <__alt_data_end+0xfffda4c4>
   41600:	9dc00015 	stw	r23,0(r19)
   41604:	9f000115 	stw	fp,4(r19)
   41608:	94800104 	addi	r18,r18,4
   4160c:	8c400204 	addi	r17,r17,8
   41610:	9cc00204 	addi	r19,r19,8
   41614:	957fe11e 	bne	r18,r21,4159c <__alt_data_end+0xfffda49c>
   41618:	dc809117 	ldw	r18,580(sp)
   4161c:	003f0f06 	br	4125c <__alt_data_end+0xfffda15c>
   41620:	002f883a 	mov	r23,zero
   41624:	0039883a 	mov	fp,zero
   41628:	003ff506 	br	41600 <__alt_data_end+0xfffda500>
   4162c:	480d883a 	mov	r6,r9
   41630:	180f883a 	mov	r7,r3
   41634:	0009883a 	mov	r4,zero
   41638:	014ffc34 	movhi	r5,16368
   4163c:	0044aa40 	call	44aa4 <__subdf3>
   41640:	102b883a 	mov	r21,r2
   41644:	1811883a 	mov	r8,r3
   41648:	a03f9b26 	beq	r20,zero,414b8 <__alt_data_end+0xfffda3b8>
   4164c:	d9809017 	ldw	r6,576(sp)
   41650:	0009883a 	mov	r4,zero
   41654:	014ffc34 	movhi	r5,16368
   41658:	d8c09b15 	stw	r3,620(sp)
   4165c:	00422d00 	call	422d0 <scalbn>
   41660:	da009b17 	ldw	r8,620(sp)
   41664:	a809883a 	mov	r4,r21
   41668:	100d883a 	mov	r6,r2
   4166c:	400b883a 	mov	r5,r8
   41670:	180f883a 	mov	r7,r3
   41674:	0044aa40 	call	44aa4 <__subdf3>
   41678:	102b883a 	mov	r21,r2
   4167c:	1811883a 	mov	r8,r3
   41680:	003f8d06 	br	414b8 <__alt_data_end+0xfffda3b8>
   41684:	0005883a 	mov	r2,zero
   41688:	0007883a 	mov	r3,zero
   4168c:	003eac06 	br	41140 <__alt_data_end+0xfffda040>
   41690:	d8809017 	ldw	r2,576(sp)
   41694:	1000121e 	bne	r2,zero,416e0 <__kernel_rem_pio2+0x66c>
   41698:	90bfffc4 	addi	r2,r18,-1
   4169c:	1085883a 	add	r2,r2,r2
   416a0:	1085883a 	add	r2,r2,r2
   416a4:	d885883a 	add	r2,sp,r2
   416a8:	14c07817 	ldw	r19,480(r2)
   416ac:	9827d5fa 	srai	r19,r19,23
   416b0:	003f5606 	br	4140c <__alt_data_end+0xfffda30c>
   416b4:	90bfffc4 	addi	r2,r18,-1
   416b8:	1085883a 	add	r2,r2,r2
   416bc:	1085883a 	add	r2,r2,r2
   416c0:	d885883a 	add	r2,sp,r2
   416c4:	10807804 	addi	r2,r2,480
   416c8:	11000017 	ldw	r4,0(r2)
   416cc:	01402034 	movhi	r5,128
   416d0:	297fffc4 	addi	r5,r5,-1
   416d4:	2148703a 	and	r4,r4,r5
   416d8:	11000015 	stw	r4,0(r2)
   416dc:	003f7406 	br	414b0 <__alt_data_end+0xfffda3b0>
   416e0:	4809883a 	mov	r4,r9
   416e4:	180b883a 	mov	r5,r3
   416e8:	000d883a 	mov	r6,zero
   416ec:	01cff834 	movhi	r7,16352
   416f0:	d8c09a15 	stw	r3,616(sp)
   416f4:	d8c09b15 	stw	r3,620(sp)
   416f8:	da409915 	stw	r9,612(sp)
   416fc:	00442b00 	call	442b0 <__gedf2>
   41700:	d8c09a17 	ldw	r3,616(sp)
   41704:	da009b17 	ldw	r8,620(sp)
   41708:	da409917 	ldw	r9,612(sp)
   4170c:	1000920e 	bge	r2,zero,41958 <__kernel_rem_pio2+0x8e4>
   41710:	0027883a 	mov	r19,zero
   41714:	003f6806 	br	414b8 <__alt_data_end+0xfffda3b8>
   41718:	002d883a 	mov	r22,zero
   4171c:	002b883a 	mov	r21,zero
   41720:	003eb006 	br	411e4 <__alt_data_end+0xfffda0e4>
   41724:	2945883a 	add	r2,r5,r5
   41728:	da009017 	ldw	r8,576(sp)
   4172c:	1085883a 	add	r2,r2,r2
   41730:	d885883a 	add	r2,sp,r2
   41734:	10807817 	ldw	r2,480(r2)
   41738:	423ffa04 	addi	r8,r8,-24
   4173c:	dc409115 	stw	r17,580(sp)
   41740:	dcc08d15 	stw	r19,564(sp)
   41744:	da009015 	stw	r8,576(sp)
   41748:	dd809417 	ldw	r22,592(sp)
   4174c:	2823883a 	mov	r17,r5
   41750:	10000e1e 	bne	r2,zero,4178c <__kernel_rem_pio2+0x718>
   41754:	00900034 	movhi	r2,16384
   41758:	10bfffc4 	addi	r2,r2,-1
   4175c:	2885883a 	add	r2,r5,r2
   41760:	1085883a 	add	r2,r2,r2
   41764:	d8c07804 	addi	r3,sp,480
   41768:	1085883a 	add	r2,r2,r2
   4176c:	1885883a 	add	r2,r3,r2
   41770:	4007883a 	mov	r3,r8
   41774:	10bfff04 	addi	r2,r2,-4
   41778:	11000117 	ldw	r4,4(r2)
   4177c:	8c7fffc4 	addi	r17,r17,-1
   41780:	18fffa04 	addi	r3,r3,-24
   41784:	203ffb26 	beq	r4,zero,41774 <__alt_data_end+0xfffda674>
   41788:	d8c09015 	stw	r3,576(sp)
   4178c:	d9809017 	ldw	r6,576(sp)
   41790:	0009883a 	mov	r4,zero
   41794:	014ffc34 	movhi	r5,16368
   41798:	00422d00 	call	422d0 <scalbn>
   4179c:	1029883a 	mov	r20,r2
   417a0:	182b883a 	mov	r21,r3
   417a4:	88018416 	blt	r17,zero,41db8 <__kernel_rem_pio2+0xd44>
   417a8:	881090fa 	slli	r8,r17,3
   417ac:	d8c07804 	addi	r3,sp,480
   417b0:	da008e15 	stw	r8,568(sp)
   417b4:	d8808e17 	ldw	r2,568(sp)
   417b8:	8c51883a 	add	r8,r17,r17
   417bc:	4211883a 	add	r8,r8,r8
   417c0:	d8a1883a 	add	r16,sp,r2
   417c4:	1a25883a 	add	r18,r3,r8
   417c8:	da3ffe04 	addi	r8,sp,-8
   417cc:	da008c15 	stw	r8,560(sp)
   417d0:	8039883a 	mov	fp,r16
   417d4:	91000017 	ldw	r4,0(r18)
   417d8:	e73ffe04 	addi	fp,fp,-8
   417dc:	94bfff04 	addi	r18,r18,-4
   417e0:	00454200 	call	45420 <__floatsidf>
   417e4:	a00d883a 	mov	r6,r20
   417e8:	a80f883a 	mov	r7,r21
   417ec:	1009883a 	mov	r4,r2
   417f0:	180b883a 	mov	r5,r3
   417f4:	004438c0 	call	4438c <__muldf3>
   417f8:	a009883a 	mov	r4,r20
   417fc:	a80b883a 	mov	r5,r21
   41800:	e0800215 	stw	r2,8(fp)
   41804:	e0c00315 	stw	r3,12(fp)
   41808:	000d883a 	mov	r6,zero
   4180c:	01cf9c34 	movhi	r7,15984
   41810:	004438c0 	call	4438c <__muldf3>
   41814:	da008c17 	ldw	r8,560(sp)
   41818:	1029883a 	mov	r20,r2
   4181c:	182b883a 	mov	r21,r3
   41820:	e23fec1e 	bne	fp,r8,417d4 <__alt_data_end+0xfffda6d4>
   41824:	0029883a 	mov	r20,zero
   41828:	b0004f16 	blt	r22,zero,41968 <__kernel_rem_pio2+0x8f4>
   4182c:	05400174 	movhi	r21,5
   41830:	014ffe74 	movhi	r5,16377
   41834:	ad6b9e04 	addi	r21,r21,-20872
   41838:	8027883a 	mov	r19,r16
   4183c:	01100034 	movhi	r4,16384
   41840:	29487ec4 	addi	r5,r5,8699
   41844:	0039883a 	mov	fp,zero
   41848:	002f883a 	mov	r23,zero
   4184c:	0025883a 	mov	r18,zero
   41850:	00000506 	br	41868 <__kernel_rem_pio2+0x7f4>
   41854:	9cc00204 	addi	r19,r19,8
   41858:	a4800f16 	blt	r20,r18,41898 <__kernel_rem_pio2+0x824>
   4185c:	a9000017 	ldw	r4,0(r21)
   41860:	a9400117 	ldw	r5,4(r21)
   41864:	ad400204 	addi	r21,r21,8
   41868:	99800017 	ldw	r6,0(r19)
   4186c:	99c00117 	ldw	r7,4(r19)
   41870:	94800044 	addi	r18,r18,1
   41874:	004438c0 	call	4438c <__muldf3>
   41878:	e009883a 	mov	r4,fp
   4187c:	b80b883a 	mov	r5,r23
   41880:	100d883a 	mov	r6,r2
   41884:	180f883a 	mov	r7,r3
   41888:	00430940 	call	43094 <__adddf3>
   4188c:	1039883a 	mov	fp,r2
   41890:	182f883a 	mov	r23,r3
   41894:	b4bfef0e 	bge	r22,r18,41854 <__alt_data_end+0xfffda754>
   41898:	a00490fa 	slli	r2,r20,3
   4189c:	da008c17 	ldw	r8,560(sp)
   418a0:	843ffe04 	addi	r16,r16,-8
   418a4:	d885883a 	add	r2,sp,r2
   418a8:	10802804 	addi	r2,r2,160
   418ac:	17000015 	stw	fp,0(r2)
   418b0:	15c00115 	stw	r23,4(r2)
   418b4:	a5000044 	addi	r20,r20,1
   418b8:	823fdb1e 	bne	r16,r8,41828 <__alt_data_end+0xfffda728>
   418bc:	da00a617 	ldw	r8,664(sp)
   418c0:	00800084 	movi	r2,2
   418c4:	12006616 	blt	r2,r8,41a60 <__kernel_rem_pio2+0x9ec>
   418c8:	0200de16 	blt	zero,r8,41c44 <__kernel_rem_pio2+0xbd0>
   418cc:	4000141e 	bne	r8,zero,41920 <__kernel_rem_pio2+0x8ac>
   418d0:	da008e17 	ldw	r8,568(sp)
   418d4:	d8802804 	addi	r2,sp,160
   418d8:	0007883a 	mov	r3,zero
   418dc:	1225883a 	add	r18,r2,r8
   418e0:	043fffc4 	movi	r16,-1
   418e4:	0005883a 	mov	r2,zero
   418e8:	91800017 	ldw	r6,0(r18)
   418ec:	91c00117 	ldw	r7,4(r18)
   418f0:	1009883a 	mov	r4,r2
   418f4:	180b883a 	mov	r5,r3
   418f8:	8c7fffc4 	addi	r17,r17,-1
   418fc:	00430940 	call	43094 <__adddf3>
   41900:	94bffe04 	addi	r18,r18,-8
   41904:	8c3ff81e 	bne	r17,r16,418e8 <__alt_data_end+0xfffda7e8>
   41908:	da008d17 	ldw	r8,564(sp)
   4190c:	40000126 	beq	r8,zero,41914 <__kernel_rem_pio2+0x8a0>
   41910:	18e0003c 	xorhi	r3,r3,32768
   41914:	da008f17 	ldw	r8,572(sp)
   41918:	40800015 	stw	r2,0(r8)
   4191c:	40c00115 	stw	r3,4(r8)
   41920:	da009117 	ldw	r8,580(sp)
   41924:	408001cc 	andi	r2,r8,7
   41928:	dfc0a517 	ldw	ra,660(sp)
   4192c:	df00a417 	ldw	fp,656(sp)
   41930:	ddc0a317 	ldw	r23,652(sp)
   41934:	dd80a217 	ldw	r22,648(sp)
   41938:	dd40a117 	ldw	r21,644(sp)
   4193c:	dd00a017 	ldw	r20,640(sp)
   41940:	dcc09f17 	ldw	r19,636(sp)
   41944:	dc809e17 	ldw	r18,632(sp)
   41948:	dc409d17 	ldw	r17,628(sp)
   4194c:	dc009c17 	ldw	r16,624(sp)
   41950:	dec0a604 	addi	sp,sp,664
   41954:	f800283a 	ret
   41958:	8c400044 	addi	r17,r17,1
   4195c:	04810d0e 	bge	zero,r18,41d94 <__kernel_rem_pio2+0xd20>
   41960:	04c00084 	movi	r19,2
   41964:	003eac06 	br	41418 <__alt_data_end+0xfffda318>
   41968:	0039883a 	mov	fp,zero
   4196c:	002f883a 	mov	r23,zero
   41970:	003fc906 	br	41898 <__alt_data_end+0xfffda798>
   41974:	0029883a 	mov	r20,zero
   41978:	003ebd06 	br	41470 <__alt_data_end+0xfffda370>
   4197c:	05000044 	movi	r20,1
   41980:	003eef06 	br	41540 <__alt_data_end+0xfffda440>
   41984:	4029883a 	mov	r20,r8
   41988:	da009017 	ldw	r8,576(sp)
   4198c:	a809883a 	mov	r4,r21
   41990:	a00b883a 	mov	r5,r20
   41994:	020dc83a 	sub	r6,zero,r8
   41998:	dc409115 	stw	r17,580(sp)
   4199c:	dd809417 	ldw	r22,592(sp)
   419a0:	dcc08d15 	stw	r19,564(sp)
   419a4:	00422d00 	call	422d0 <scalbn>
   419a8:	000d883a 	mov	r6,zero
   419ac:	01d05c34 	movhi	r7,16752
   419b0:	1009883a 	mov	r4,r2
   419b4:	180b883a 	mov	r5,r3
   419b8:	102b883a 	mov	r21,r2
   419bc:	1823883a 	mov	r17,r3
   419c0:	00442b00 	call	442b0 <__gedf2>
   419c4:	1000e916 	blt	r2,zero,41d6c <__kernel_rem_pio2+0xcf8>
   419c8:	000d883a 	mov	r6,zero
   419cc:	01cf9c34 	movhi	r7,15984
   419d0:	880b883a 	mov	r5,r17
   419d4:	a809883a 	mov	r4,r21
   419d8:	004438c0 	call	4438c <__muldf3>
   419dc:	180b883a 	mov	r5,r3
   419e0:	1009883a 	mov	r4,r2
   419e4:	00453a00 	call	453a0 <__fixdfsi>
   419e8:	1029883a 	mov	r20,r2
   419ec:	9485883a 	add	r2,r18,r18
   419f0:	1085883a 	add	r2,r2,r2
   419f4:	a009883a 	mov	r4,r20
   419f8:	d8a1883a 	add	r16,sp,r2
   419fc:	00454200 	call	45420 <__floatsidf>
   41a00:	000d883a 	mov	r6,zero
   41a04:	01d05c34 	movhi	r7,16752
   41a08:	1009883a 	mov	r4,r2
   41a0c:	180b883a 	mov	r5,r3
   41a10:	004438c0 	call	4438c <__muldf3>
   41a14:	880b883a 	mov	r5,r17
   41a18:	100d883a 	mov	r6,r2
   41a1c:	180f883a 	mov	r7,r3
   41a20:	a809883a 	mov	r4,r21
   41a24:	0044aa40 	call	44aa4 <__subdf3>
   41a28:	180b883a 	mov	r5,r3
   41a2c:	1009883a 	mov	r4,r2
   41a30:	00453a00 	call	453a0 <__fixdfsi>
   41a34:	da009017 	ldw	r8,576(sp)
   41a38:	94400044 	addi	r17,r18,1
   41a3c:	8c47883a 	add	r3,r17,r17
   41a40:	84007804 	addi	r16,r16,480
   41a44:	18c7883a 	add	r3,r3,r3
   41a48:	80800015 	stw	r2,0(r16)
   41a4c:	d8c7883a 	add	r3,sp,r3
   41a50:	42000604 	addi	r8,r8,24
   41a54:	da009015 	stw	r8,576(sp)
   41a58:	1d007815 	stw	r20,480(r3)
   41a5c:	003f4b06 	br	4178c <__alt_data_end+0xfffda68c>
   41a60:	da00a617 	ldw	r8,664(sp)
   41a64:	008000c4 	movi	r2,3
   41a68:	40bfad1e 	bne	r8,r2,41920 <__alt_data_end+0xfffda820>
   41a6c:	0440bc0e 	bge	zero,r17,41d60 <__kernel_rem_pio2+0xcec>
   41a70:	da008e17 	ldw	r8,568(sp)
   41a74:	882090fa 	slli	r16,r17,3
   41a78:	dd402804 	addi	r21,sp,160
   41a7c:	da05883a 	add	r2,sp,r8
   41a80:	10802804 	addi	r2,r2,160
   41a84:	15c00017 	ldw	r23,0(r2)
   41a88:	15800117 	ldw	r22,4(r2)
   41a8c:	8029883a 	mov	r20,r16
   41a90:	843ffe04 	addi	r16,r16,-8
   41a94:	ac21883a 	add	r16,r21,r16
   41a98:	ad29883a 	add	r20,r21,r20
   41a9c:	dac02604 	addi	r11,sp,152
   41aa0:	8811883a 	mov	r8,r17
   41aa4:	84400017 	ldw	r17,0(r16)
   41aa8:	87000117 	ldw	fp,4(r16)
   41aac:	b80d883a 	mov	r6,r23
   41ab0:	b00f883a 	mov	r7,r22
   41ab4:	8809883a 	mov	r4,r17
   41ab8:	e00b883a 	mov	r5,fp
   41abc:	da009b15 	stw	r8,620(sp)
   41ac0:	dac09915 	stw	r11,612(sp)
   41ac4:	00430940 	call	43094 <__adddf3>
   41ac8:	100d883a 	mov	r6,r2
   41acc:	180f883a 	mov	r7,r3
   41ad0:	8809883a 	mov	r4,r17
   41ad4:	e00b883a 	mov	r5,fp
   41ad8:	1027883a 	mov	r19,r2
   41adc:	1825883a 	mov	r18,r3
   41ae0:	0044aa40 	call	44aa4 <__subdf3>
   41ae4:	b80d883a 	mov	r6,r23
   41ae8:	b00f883a 	mov	r7,r22
   41aec:	1009883a 	mov	r4,r2
   41af0:	180b883a 	mov	r5,r3
   41af4:	00430940 	call	43094 <__adddf3>
   41af8:	dac09917 	ldw	r11,612(sp)
   41afc:	a0800015 	stw	r2,0(r20)
   41b00:	a0c00115 	stw	r3,4(r20)
   41b04:	84c00015 	stw	r19,0(r16)
   41b08:	84800115 	stw	r18,4(r16)
   41b0c:	843ffe04 	addi	r16,r16,-8
   41b10:	a53ffe04 	addi	r20,r20,-8
   41b14:	982f883a 	mov	r23,r19
   41b18:	902d883a 	mov	r22,r18
   41b1c:	da009b17 	ldw	r8,620(sp)
   41b20:	5c3fe01e 	bne	r11,r16,41aa4 <__alt_data_end+0xfffda9a4>
   41b24:	00800044 	movi	r2,1
   41b28:	12008d0e 	bge	r2,r8,41d60 <__kernel_rem_pio2+0xcec>
   41b2c:	402090fa 	slli	r16,r8,3
   41b30:	da008e17 	ldw	r8,568(sp)
   41b34:	8023883a 	mov	r17,r16
   41b38:	da05883a 	add	r2,sp,r8
   41b3c:	10802804 	addi	r2,r2,160
   41b40:	15800017 	ldw	r22,0(r2)
   41b44:	15000117 	ldw	r20,4(r2)
   41b48:	ac63883a 	add	r17,r21,r17
   41b4c:	843ffe04 	addi	r16,r16,-8
   41b50:	ac21883a 	add	r16,r21,r16
   41b54:	8825883a 	mov	r18,r17
   41b58:	8811883a 	mov	r8,r17
   41b5c:	84400017 	ldw	r17,0(r16)
   41b60:	87000117 	ldw	fp,4(r16)
   41b64:	b009883a 	mov	r4,r22
   41b68:	a00b883a 	mov	r5,r20
   41b6c:	880d883a 	mov	r6,r17
   41b70:	e00f883a 	mov	r7,fp
   41b74:	da009b15 	stw	r8,620(sp)
   41b78:	00430940 	call	43094 <__adddf3>
   41b7c:	100d883a 	mov	r6,r2
   41b80:	180f883a 	mov	r7,r3
   41b84:	8809883a 	mov	r4,r17
   41b88:	e00b883a 	mov	r5,fp
   41b8c:	102f883a 	mov	r23,r2
   41b90:	1827883a 	mov	r19,r3
   41b94:	0044aa40 	call	44aa4 <__subdf3>
   41b98:	b00d883a 	mov	r6,r22
   41b9c:	a00f883a 	mov	r7,r20
   41ba0:	1009883a 	mov	r4,r2
   41ba4:	180b883a 	mov	r5,r3
   41ba8:	00430940 	call	43094 <__adddf3>
   41bac:	90800015 	stw	r2,0(r18)
   41bb0:	90c00115 	stw	r3,4(r18)
   41bb4:	85c00015 	stw	r23,0(r16)
   41bb8:	84c00115 	stw	r19,4(r16)
   41bbc:	843ffe04 	addi	r16,r16,-8
   41bc0:	94bffe04 	addi	r18,r18,-8
   41bc4:	b82d883a 	mov	r22,r23
   41bc8:	9829883a 	mov	r20,r19
   41bcc:	da009b17 	ldw	r8,620(sp)
   41bd0:	ac3fe21e 	bne	r21,r16,41b5c <__alt_data_end+0xfffdaa5c>
   41bd4:	4023883a 	mov	r17,r8
   41bd8:	dc002a04 	addi	r16,sp,168
   41bdc:	0005883a 	mov	r2,zero
   41be0:	0007883a 	mov	r3,zero
   41be4:	89800017 	ldw	r6,0(r17)
   41be8:	89c00117 	ldw	r7,4(r17)
   41bec:	1009883a 	mov	r4,r2
   41bf0:	8c7ffe04 	addi	r17,r17,-8
   41bf4:	180b883a 	mov	r5,r3
   41bf8:	00430940 	call	43094 <__adddf3>
   41bfc:	847ff91e 	bne	r16,r17,41be4 <__alt_data_end+0xfffdaae4>
   41c00:	da008d17 	ldw	r8,564(sp)
   41c04:	40004726 	beq	r8,zero,41d24 <__kernel_rem_pio2+0xcb0>
   41c08:	d9002b17 	ldw	r4,172(sp)
   41c0c:	d9402917 	ldw	r5,164(sp)
   41c10:	d9802a17 	ldw	r6,168(sp)
   41c14:	da008f17 	ldw	r8,572(sp)
   41c18:	d9c02817 	ldw	r7,160(sp)
   41c1c:	2960003c 	xorhi	r5,r5,32768
   41c20:	2120003c 	xorhi	r4,r4,32768
   41c24:	18e0003c 	xorhi	r3,r3,32768
   41c28:	41c00015 	stw	r7,0(r8)
   41c2c:	41400115 	stw	r5,4(r8)
   41c30:	41800215 	stw	r6,8(r8)
   41c34:	41000315 	stw	r4,12(r8)
   41c38:	40800415 	stw	r2,16(r8)
   41c3c:	40c00515 	stw	r3,20(r8)
   41c40:	003f3706 	br	41920 <__alt_data_end+0xfffda820>
   41c44:	da008e17 	ldw	r8,568(sp)
   41c48:	d8802804 	addi	r2,sp,160
   41c4c:	dc002604 	addi	r16,sp,152
   41c50:	1225883a 	add	r18,r2,r8
   41c54:	0007883a 	mov	r3,zero
   41c58:	0005883a 	mov	r2,zero
   41c5c:	91800017 	ldw	r6,0(r18)
   41c60:	91c00117 	ldw	r7,4(r18)
   41c64:	1009883a 	mov	r4,r2
   41c68:	94bffe04 	addi	r18,r18,-8
   41c6c:	180b883a 	mov	r5,r3
   41c70:	00430940 	call	43094 <__adddf3>
   41c74:	943ff91e 	bne	r18,r16,41c5c <__alt_data_end+0xfffdab5c>
   41c78:	da008d17 	ldw	r8,564(sp)
   41c7c:	d9002817 	ldw	r4,160(sp)
   41c80:	d9402917 	ldw	r5,164(sp)
   41c84:	40001a26 	beq	r8,zero,41cf0 <__kernel_rem_pio2+0xc7c>
   41c88:	da008f17 	ldw	r8,572(sp)
   41c8c:	19a0003c 	xorhi	r6,r3,32768
   41c90:	180f883a 	mov	r7,r3
   41c94:	41800115 	stw	r6,4(r8)
   41c98:	40800015 	stw	r2,0(r8)
   41c9c:	100d883a 	mov	r6,r2
   41ca0:	0044aa40 	call	44aa4 <__subdf3>
   41ca4:	04400c0e 	bge	zero,r17,41cd8 <__kernel_rem_pio2+0xc64>
   41ca8:	dc002a04 	addi	r16,sp,168
   41cac:	04800044 	movi	r18,1
   41cb0:	81800017 	ldw	r6,0(r16)
   41cb4:	81c00117 	ldw	r7,4(r16)
   41cb8:	1009883a 	mov	r4,r2
   41cbc:	180b883a 	mov	r5,r3
   41cc0:	94800044 	addi	r18,r18,1
   41cc4:	00430940 	call	43094 <__adddf3>
   41cc8:	84000204 	addi	r16,r16,8
   41ccc:	8cbff80e 	bge	r17,r18,41cb0 <__alt_data_end+0xfffdabb0>
   41cd0:	da008d17 	ldw	r8,564(sp)
   41cd4:	40004226 	beq	r8,zero,41de0 <__kernel_rem_pio2+0xd6c>
   41cd8:	da008f17 	ldw	r8,572(sp)
   41cdc:	1009883a 	mov	r4,r2
   41ce0:	18a0003c 	xorhi	r2,r3,32768
   41ce4:	41000215 	stw	r4,8(r8)
   41ce8:	40800315 	stw	r2,12(r8)
   41cec:	003f0c06 	br	41920 <__alt_data_end+0xfffda820>
   41cf0:	da008f17 	ldw	r8,572(sp)
   41cf4:	100d883a 	mov	r6,r2
   41cf8:	180f883a 	mov	r7,r3
   41cfc:	40800015 	stw	r2,0(r8)
   41d00:	40c00115 	stw	r3,4(r8)
   41d04:	0044aa40 	call	44aa4 <__subdf3>
   41d08:	047fe716 	blt	zero,r17,41ca8 <__alt_data_end+0xfffdaba8>
   41d0c:	da008f17 	ldw	r8,572(sp)
   41d10:	1009883a 	mov	r4,r2
   41d14:	1805883a 	mov	r2,r3
   41d18:	41000215 	stw	r4,8(r8)
   41d1c:	40800315 	stw	r2,12(r8)
   41d20:	003eff06 	br	41920 <__alt_data_end+0xfffda820>
   41d24:	da008f17 	ldw	r8,572(sp)
   41d28:	d9802817 	ldw	r6,160(sp)
   41d2c:	d9402a17 	ldw	r5,168(sp)
   41d30:	d9002b17 	ldw	r4,172(sp)
   41d34:	41800015 	stw	r6,0(r8)
   41d38:	d9802917 	ldw	r6,164(sp)
   41d3c:	41400215 	stw	r5,8(r8)
   41d40:	41000315 	stw	r4,12(r8)
   41d44:	41800115 	stw	r6,4(r8)
   41d48:	40800415 	stw	r2,16(r8)
   41d4c:	40c00515 	stw	r3,20(r8)
   41d50:	003ef306 	br	41920 <__alt_data_end+0xfffda820>
   41d54:	da00a617 	ldw	r8,664(sp)
   41d58:	008000c4 	movi	r2,3
   41d5c:	40bef01e 	bne	r8,r2,41920 <__alt_data_end+0xfffda820>
   41d60:	0005883a 	mov	r2,zero
   41d64:	0007883a 	mov	r3,zero
   41d68:	003fa506 	br	41c00 <__alt_data_end+0xfffdab00>
   41d6c:	9485883a 	add	r2,r18,r18
   41d70:	1085883a 	add	r2,r2,r2
   41d74:	d8a1883a 	add	r16,sp,r2
   41d78:	880b883a 	mov	r5,r17
   41d7c:	a809883a 	mov	r4,r21
   41d80:	84007804 	addi	r16,r16,480
   41d84:	00453a00 	call	453a0 <__fixdfsi>
   41d88:	80800015 	stw	r2,0(r16)
   41d8c:	9023883a 	mov	r17,r18
   41d90:	003e7e06 	br	4178c <__alt_data_end+0xfffda68c>
   41d94:	a80d883a 	mov	r6,r21
   41d98:	400f883a 	mov	r7,r8
   41d9c:	0009883a 	mov	r4,zero
   41da0:	014ffc34 	movhi	r5,16368
   41da4:	0044aa40 	call	44aa4 <__subdf3>
   41da8:	102b883a 	mov	r21,r2
   41dac:	1811883a 	mov	r8,r3
   41db0:	04c00084 	movi	r19,2
   41db4:	003dc006 	br	414b8 <__alt_data_end+0xfffda3b8>
   41db8:	da00a617 	ldw	r8,664(sp)
   41dbc:	00800084 	movi	r2,2
   41dc0:	123fe416 	blt	r2,r8,41d54 <__alt_data_end+0xfffdac54>
   41dc4:	02000c16 	blt	zero,r8,41df8 <__kernel_rem_pio2+0xd84>
   41dc8:	403ed51e 	bne	r8,zero,41920 <__alt_data_end+0xfffda820>
   41dcc:	0005883a 	mov	r2,zero
   41dd0:	0007883a 	mov	r3,zero
   41dd4:	003ecc06 	br	41908 <__alt_data_end+0xfffda808>
   41dd8:	d8009215 	stw	zero,584(sp)
   41ddc:	003cc306 	br	410ec <__alt_data_end+0xfffd9fec>
   41de0:	da008f17 	ldw	r8,572(sp)
   41de4:	1009883a 	mov	r4,r2
   41de8:	1805883a 	mov	r2,r3
   41dec:	41000215 	stw	r4,8(r8)
   41df0:	40800315 	stw	r2,12(r8)
   41df4:	003eca06 	br	41920 <__alt_data_end+0xfffda820>
   41df8:	0005883a 	mov	r2,zero
   41dfc:	0007883a 	mov	r3,zero
   41e00:	003f9d06 	br	41c78 <__alt_data_end+0xfffdab78>

00041e04 <__kernel_sin>:
   41e04:	00a00034 	movhi	r2,32768
   41e08:	defff404 	addi	sp,sp,-48
   41e0c:	10bfffc4 	addi	r2,r2,-1
   41e10:	00cf9034 	movhi	r3,15936
   41e14:	ddc00915 	stw	r23,36(sp)
   41e18:	dd800815 	stw	r22,32(sp)
   41e1c:	dc400315 	stw	r17,12(sp)
   41e20:	dc000215 	stw	r16,8(sp)
   41e24:	dfc00b15 	stw	ra,44(sp)
   41e28:	df000a15 	stw	fp,40(sp)
   41e2c:	dd400715 	stw	r21,28(sp)
   41e30:	dd000615 	stw	r20,24(sp)
   41e34:	dcc00515 	stw	r19,20(sp)
   41e38:	dc800415 	stw	r18,16(sp)
   41e3c:	2884703a 	and	r2,r5,r2
   41e40:	18ffffc4 	addi	r3,r3,-1
   41e44:	2821883a 	mov	r16,r5
   41e48:	2023883a 	mov	r17,r4
   41e4c:	302f883a 	mov	r23,r6
   41e50:	382d883a 	mov	r22,r7
   41e54:	18800216 	blt	r3,r2,41e60 <__kernel_sin+0x5c>
   41e58:	00453a00 	call	453a0 <__fixdfsi>
   41e5c:	10009926 	beq	r2,zero,420c4 <__kernel_sin+0x2c0>
   41e60:	880d883a 	mov	r6,r17
   41e64:	800f883a 	mov	r7,r16
   41e68:	8809883a 	mov	r4,r17
   41e6c:	800b883a 	mov	r5,r16
   41e70:	004438c0 	call	4438c <__muldf3>
   41e74:	100d883a 	mov	r6,r2
   41e78:	180f883a 	mov	r7,r3
   41e7c:	8809883a 	mov	r4,r17
   41e80:	800b883a 	mov	r5,r16
   41e84:	1027883a 	mov	r19,r2
   41e88:	1825883a 	mov	r18,r3
   41e8c:	004438c0 	call	4438c <__muldf3>
   41e90:	0196b434 	movhi	r6,23248
   41e94:	01cf79b4 	movhi	r7,15846
   41e98:	31b55f04 	addi	r6,r6,-10884
   41e9c:	39f64e84 	addi	r7,r7,-9926
   41ea0:	9809883a 	mov	r4,r19
   41ea4:	900b883a 	mov	r5,r18
   41ea8:	102b883a 	mov	r21,r2
   41eac:	1829883a 	mov	r20,r3
   41eb0:	004438c0 	call	4438c <__muldf3>
   41eb4:	01a28b34 	movhi	r6,35372
   41eb8:	01cf96f4 	movhi	r7,15963
   41ebc:	31a73ac4 	addi	r6,r6,-25365
   41ec0:	39f97984 	addi	r7,r7,-6682
   41ec4:	1009883a 	mov	r4,r2
   41ec8:	180b883a 	mov	r5,r3
   41ecc:	0044aa40 	call	44aa4 <__subdf3>
   41ed0:	980d883a 	mov	r6,r19
   41ed4:	900f883a 	mov	r7,r18
   41ed8:	1009883a 	mov	r4,r2
   41edc:	180b883a 	mov	r5,r3
   41ee0:	004438c0 	call	4438c <__muldf3>
   41ee4:	0195ecb4 	movhi	r6,22450
   41ee8:	01cfb1f4 	movhi	r7,16071
   41eec:	31bf9f44 	addi	r6,r6,-387
   41ef0:	39c778c4 	addi	r7,r7,7651
   41ef4:	1009883a 	mov	r4,r2
   41ef8:	180b883a 	mov	r5,r3
   41efc:	00430940 	call	43094 <__adddf3>
   41f00:	980d883a 	mov	r6,r19
   41f04:	900f883a 	mov	r7,r18
   41f08:	1009883a 	mov	r4,r2
   41f0c:	180b883a 	mov	r5,r3
   41f10:	004438c0 	call	4438c <__muldf3>
   41f14:	01867074 	movhi	r6,6593
   41f18:	01cfcab4 	movhi	r7,16170
   41f1c:	31987544 	addi	r6,r6,25045
   41f20:	39c06804 	addi	r7,r7,416
   41f24:	1009883a 	mov	r4,r2
   41f28:	180b883a 	mov	r5,r3
   41f2c:	0044aa40 	call	44aa4 <__subdf3>
   41f30:	980d883a 	mov	r6,r19
   41f34:	900f883a 	mov	r7,r18
   41f38:	1009883a 	mov	r4,r2
   41f3c:	180b883a 	mov	r5,r3
   41f40:	004438c0 	call	4438c <__muldf3>
   41f44:	01844474 	movhi	r6,4369
   41f48:	01cfe074 	movhi	r7,16257
   41f4c:	31be2984 	addi	r6,r6,-1882
   41f50:	39c44444 	addi	r7,r7,4369
   41f54:	1009883a 	mov	r4,r2
   41f58:	180b883a 	mov	r5,r3
   41f5c:	00430940 	call	43094 <__adddf3>
   41f60:	1011883a 	mov	r8,r2
   41f64:	d8800c17 	ldw	r2,48(sp)
   41f68:	1839883a 	mov	fp,r3
   41f6c:	10003e26 	beq	r2,zero,42068 <__kernel_sin+0x264>
   41f70:	000d883a 	mov	r6,zero
   41f74:	01cff834 	movhi	r7,16352
   41f78:	b809883a 	mov	r4,r23
   41f7c:	b00b883a 	mov	r5,r22
   41f80:	da000015 	stw	r8,0(sp)
   41f84:	004438c0 	call	4438c <__muldf3>
   41f88:	da000017 	ldw	r8,0(sp)
   41f8c:	e00f883a 	mov	r7,fp
   41f90:	a809883a 	mov	r4,r21
   41f94:	400d883a 	mov	r6,r8
   41f98:	a00b883a 	mov	r5,r20
   41f9c:	d8c00115 	stw	r3,4(sp)
   41fa0:	d8800015 	stw	r2,0(sp)
   41fa4:	004438c0 	call	4438c <__muldf3>
   41fa8:	da800017 	ldw	r10,0(sp)
   41fac:	da400117 	ldw	r9,4(sp)
   41fb0:	100d883a 	mov	r6,r2
   41fb4:	5009883a 	mov	r4,r10
   41fb8:	480b883a 	mov	r5,r9
   41fbc:	180f883a 	mov	r7,r3
   41fc0:	0044aa40 	call	44aa4 <__subdf3>
   41fc4:	980d883a 	mov	r6,r19
   41fc8:	900f883a 	mov	r7,r18
   41fcc:	1009883a 	mov	r4,r2
   41fd0:	180b883a 	mov	r5,r3
   41fd4:	004438c0 	call	4438c <__muldf3>
   41fd8:	b80d883a 	mov	r6,r23
   41fdc:	b00f883a 	mov	r7,r22
   41fe0:	1009883a 	mov	r4,r2
   41fe4:	180b883a 	mov	r5,r3
   41fe8:	0044aa40 	call	44aa4 <__subdf3>
   41fec:	01955574 	movhi	r6,21845
   41ff0:	01cff174 	movhi	r7,16325
   41ff4:	31955244 	addi	r6,r6,21833
   41ff8:	39d55544 	addi	r7,r7,21845
   41ffc:	a809883a 	mov	r4,r21
   42000:	a00b883a 	mov	r5,r20
   42004:	1027883a 	mov	r19,r2
   42008:	1825883a 	mov	r18,r3
   4200c:	004438c0 	call	4438c <__muldf3>
   42010:	100d883a 	mov	r6,r2
   42014:	180f883a 	mov	r7,r3
   42018:	9809883a 	mov	r4,r19
   4201c:	900b883a 	mov	r5,r18
   42020:	00430940 	call	43094 <__adddf3>
   42024:	100d883a 	mov	r6,r2
   42028:	180f883a 	mov	r7,r3
   4202c:	8809883a 	mov	r4,r17
   42030:	800b883a 	mov	r5,r16
   42034:	0044aa40 	call	44aa4 <__subdf3>
   42038:	dfc00b17 	ldw	ra,44(sp)
   4203c:	df000a17 	ldw	fp,40(sp)
   42040:	ddc00917 	ldw	r23,36(sp)
   42044:	dd800817 	ldw	r22,32(sp)
   42048:	dd400717 	ldw	r21,28(sp)
   4204c:	dd000617 	ldw	r20,24(sp)
   42050:	dcc00517 	ldw	r19,20(sp)
   42054:	dc800417 	ldw	r18,16(sp)
   42058:	dc400317 	ldw	r17,12(sp)
   4205c:	dc000217 	ldw	r16,8(sp)
   42060:	dec00c04 	addi	sp,sp,48
   42064:	f800283a 	ret
   42068:	400d883a 	mov	r6,r8
   4206c:	9809883a 	mov	r4,r19
   42070:	900b883a 	mov	r5,r18
   42074:	180f883a 	mov	r7,r3
   42078:	004438c0 	call	4438c <__muldf3>
   4207c:	01955574 	movhi	r6,21845
   42080:	01cff174 	movhi	r7,16325
   42084:	31955244 	addi	r6,r6,21833
   42088:	39d55544 	addi	r7,r7,21845
   4208c:	1009883a 	mov	r4,r2
   42090:	180b883a 	mov	r5,r3
   42094:	0044aa40 	call	44aa4 <__subdf3>
   42098:	a80d883a 	mov	r6,r21
   4209c:	a00f883a 	mov	r7,r20
   420a0:	1009883a 	mov	r4,r2
   420a4:	180b883a 	mov	r5,r3
   420a8:	004438c0 	call	4438c <__muldf3>
   420ac:	880d883a 	mov	r6,r17
   420b0:	800f883a 	mov	r7,r16
   420b4:	1009883a 	mov	r4,r2
   420b8:	180b883a 	mov	r5,r3
   420bc:	00430940 	call	43094 <__adddf3>
   420c0:	003fdd06 	br	42038 <__alt_data_end+0xfffdaf38>
   420c4:	8805883a 	mov	r2,r17
   420c8:	8007883a 	mov	r3,r16
   420cc:	003fda06 	br	42038 <__alt_data_end+0xfffdaf38>

000420d0 <fabs>:
   420d0:	00e00034 	movhi	r3,32768
   420d4:	18ffffc4 	addi	r3,r3,-1
   420d8:	2005883a 	mov	r2,r4
   420dc:	28c6703a 	and	r3,r5,r3
   420e0:	f800283a 	ret

000420e4 <floor>:
   420e4:	2811d53a 	srai	r8,r5,20
   420e8:	defffa04 	addi	sp,sp,-24
   420ec:	dcc00315 	stw	r19,12(sp)
   420f0:	4201ffcc 	andi	r8,r8,2047
   420f4:	dc800215 	stw	r18,8(sp)
   420f8:	dc400115 	stw	r17,4(sp)
   420fc:	dc000015 	stw	r16,0(sp)
   42100:	dfc00515 	stw	ra,20(sp)
   42104:	dd000415 	stw	r20,16(sp)
   42108:	44bf0044 	addi	r18,r8,-1023
   4210c:	018004c4 	movi	r6,19
   42110:	2821883a 	mov	r16,r5
   42114:	2005883a 	mov	r2,r4
   42118:	280f883a 	mov	r7,r5
   4211c:	2827883a 	mov	r19,r5
   42120:	2023883a 	mov	r17,r4
   42124:	34801916 	blt	r6,r18,4218c <floor+0xa8>
   42128:	90003c16 	blt	r18,zero,4221c <floor+0x138>
   4212c:	05000434 	movhi	r20,16
   42130:	a53fffc4 	addi	r20,r20,-1
   42134:	a4a9d83a 	sra	r20,r20,r18
   42138:	2d0c703a 	and	r6,r5,r20
   4213c:	310cb03a 	or	r6,r6,r4
   42140:	30001626 	beq	r6,zero,4219c <floor+0xb8>
   42144:	01a20034 	movhi	r6,34816
   42148:	01df8e34 	movhi	r7,32312
   4214c:	319d6704 	addi	r6,r6,30108
   42150:	39f90f04 	addi	r7,r7,-7108
   42154:	00430940 	call	43094 <__adddf3>
   42158:	000d883a 	mov	r6,zero
   4215c:	000f883a 	mov	r7,zero
   42160:	1009883a 	mov	r4,r2
   42164:	180b883a 	mov	r5,r3
   42168:	00442b00 	call	442b0 <__gedf2>
   4216c:	0080040e 	bge	zero,r2,42180 <floor+0x9c>
   42170:	80003c16 	blt	r16,zero,42264 <floor+0x180>
   42174:	0520303a 	nor	r16,zero,r20
   42178:	84e0703a 	and	r16,r16,r19
   4217c:	0023883a 	mov	r17,zero
   42180:	8805883a 	mov	r2,r17
   42184:	8007883a 	mov	r3,r16
   42188:	00000506 	br	421a0 <floor+0xbc>
   4218c:	01800cc4 	movi	r6,51
   42190:	34800b0e 	bge	r6,r18,421c0 <floor+0xdc>
   42194:	01810004 	movi	r6,1024
   42198:	91802f26 	beq	r18,r6,42258 <floor+0x174>
   4219c:	3807883a 	mov	r3,r7
   421a0:	dfc00517 	ldw	ra,20(sp)
   421a4:	dd000417 	ldw	r20,16(sp)
   421a8:	dcc00317 	ldw	r19,12(sp)
   421ac:	dc800217 	ldw	r18,8(sp)
   421b0:	dc400117 	ldw	r17,4(sp)
   421b4:	dc000017 	ldw	r16,0(sp)
   421b8:	dec00604 	addi	sp,sp,24
   421bc:	f800283a 	ret
   421c0:	423efb44 	addi	r8,r8,-1043
   421c4:	053fffc4 	movi	r20,-1
   421c8:	a228d83a 	srl	r20,r20,r8
   421cc:	250c703a 	and	r6,r4,r20
   421d0:	303ff226 	beq	r6,zero,4219c <__alt_data_end+0xfffdb09c>
   421d4:	01a20034 	movhi	r6,34816
   421d8:	01df8e34 	movhi	r7,32312
   421dc:	319d6704 	addi	r6,r6,30108
   421e0:	39f90f04 	addi	r7,r7,-7108
   421e4:	00430940 	call	43094 <__adddf3>
   421e8:	000d883a 	mov	r6,zero
   421ec:	000f883a 	mov	r7,zero
   421f0:	1009883a 	mov	r4,r2
   421f4:	180b883a 	mov	r5,r3
   421f8:	00442b00 	call	442b0 <__gedf2>
   421fc:	00bfe00e 	bge	zero,r2,42180 <__alt_data_end+0xfffdb080>
   42200:	80001c16 	blt	r16,zero,42274 <floor+0x190>
   42204:	0510303a 	nor	r8,zero,r20
   42208:	9821883a 	mov	r16,r19
   4220c:	8a22703a 	and	r17,r17,r8
   42210:	8805883a 	mov	r2,r17
   42214:	8007883a 	mov	r3,r16
   42218:	003fe106 	br	421a0 <__alt_data_end+0xfffdb0a0>
   4221c:	01a20034 	movhi	r6,34816
   42220:	01df8e34 	movhi	r7,32312
   42224:	319d6704 	addi	r6,r6,30108
   42228:	39f90f04 	addi	r7,r7,-7108
   4222c:	00430940 	call	43094 <__adddf3>
   42230:	000d883a 	mov	r6,zero
   42234:	000f883a 	mov	r7,zero
   42238:	1009883a 	mov	r4,r2
   4223c:	180b883a 	mov	r5,r3
   42240:	00442b00 	call	442b0 <__gedf2>
   42244:	00bfce0e 	bge	zero,r2,42180 <__alt_data_end+0xfffdb080>
   42248:	80001516 	blt	r16,zero,422a0 <floor+0x1bc>
   4224c:	0023883a 	mov	r17,zero
   42250:	0021883a 	mov	r16,zero
   42254:	003fca06 	br	42180 <__alt_data_end+0xfffdb080>
   42258:	200d883a 	mov	r6,r4
   4225c:	00430940 	call	43094 <__adddf3>
   42260:	003fcf06 	br	421a0 <__alt_data_end+0xfffdb0a0>
   42264:	00800434 	movhi	r2,16
   42268:	14a5d83a 	sra	r18,r2,r18
   4226c:	84a7883a 	add	r19,r16,r18
   42270:	003fc006 	br	42174 <__alt_data_end+0xfffdb074>
   42274:	00800504 	movi	r2,20
   42278:	90801326 	beq	r18,r2,422c8 <floor+0x1e4>
   4227c:	00800d04 	movi	r2,52
   42280:	14a5c83a 	sub	r18,r2,r18
   42284:	00800044 	movi	r2,1
   42288:	1484983a 	sll	r2,r2,r18
   4228c:	1445883a 	add	r2,r2,r17
   42290:	14400b2e 	bgeu	r2,r17,422c0 <floor+0x1dc>
   42294:	84c00044 	addi	r19,r16,1
   42298:	1023883a 	mov	r17,r2
   4229c:	003fd906 	br	42204 <__alt_data_end+0xfffdb104>
   422a0:	00a00034 	movhi	r2,32768
   422a4:	10bfffc4 	addi	r2,r2,-1
   422a8:	8084703a 	and	r2,r16,r2
   422ac:	1462b03a 	or	r17,r2,r17
   422b0:	883fb326 	beq	r17,zero,42180 <__alt_data_end+0xfffdb080>
   422b4:	0023883a 	mov	r17,zero
   422b8:	042ffc34 	movhi	r16,49136
   422bc:	003fb006 	br	42180 <__alt_data_end+0xfffdb080>
   422c0:	1023883a 	mov	r17,r2
   422c4:	003fcf06 	br	42204 <__alt_data_end+0xfffdb104>
   422c8:	84c00044 	addi	r19,r16,1
   422cc:	003fcd06 	br	42204 <__alt_data_end+0xfffdb104>

000422d0 <scalbn>:
   422d0:	2a1ffc2c 	andhi	r8,r5,32752
   422d4:	4011d53a 	srai	r8,r8,20
   422d8:	defffe04 	addi	sp,sp,-8
   422dc:	dc000015 	stw	r16,0(sp)
   422e0:	dfc00115 	stw	ra,4(sp)
   422e4:	280f883a 	mov	r7,r5
   422e8:	2015883a 	mov	r10,r4
   422ec:	3021883a 	mov	r16,r6
   422f0:	40001e1e 	bne	r8,zero,4236c <scalbn+0x9c>
   422f4:	00a00034 	movhi	r2,32768
   422f8:	10bfffc4 	addi	r2,r2,-1
   422fc:	2884703a 	and	r2,r5,r2
   42300:	1104b03a 	or	r2,r2,r4
   42304:	10002226 	beq	r2,zero,42390 <scalbn+0xc0>
   42308:	01d0d434 	movhi	r7,17232
   4230c:	000d883a 	mov	r6,zero
   42310:	004438c0 	call	4438c <__muldf3>
   42314:	013ffff4 	movhi	r4,65535
   42318:	210f2c04 	addi	r4,r4,15536
   4231c:	1015883a 	mov	r10,r2
   42320:	180f883a 	mov	r7,r3
   42324:	81002a16 	blt	r16,r4,423d0 <scalbn+0x100>
   42328:	191ffc2c 	andhi	r4,r3,32752
   4232c:	2009d53a 	srai	r4,r4,20
   42330:	223ff284 	addi	r8,r4,-54
   42334:	8211883a 	add	r8,r16,r8
   42338:	0081ff84 	movi	r2,2046
   4233c:	12002f16 	blt	r2,r8,423fc <scalbn+0x12c>
   42340:	0200190e 	bge	zero,r8,423a8 <scalbn+0xd8>
   42344:	4010953a 	slli	r8,r8,20
   42348:	01600434 	movhi	r5,32784
   4234c:	297fffc4 	addi	r5,r5,-1
   42350:	194e703a 	and	r7,r3,r5
   42354:	5005883a 	mov	r2,r10
   42358:	3a06b03a 	or	r3,r7,r8
   4235c:	dfc00117 	ldw	ra,4(sp)
   42360:	dc000017 	ldw	r16,0(sp)
   42364:	dec00204 	addi	sp,sp,8
   42368:	f800283a 	ret
   4236c:	0081ffc4 	movi	r2,2047
   42370:	2807883a 	mov	r3,r5
   42374:	40bfef1e 	bne	r8,r2,42334 <__alt_data_end+0xfffdb234>
   42378:	200d883a 	mov	r6,r4
   4237c:	00430940 	call	43094 <__adddf3>
   42380:	dfc00117 	ldw	ra,4(sp)
   42384:	dc000017 	ldw	r16,0(sp)
   42388:	dec00204 	addi	sp,sp,8
   4238c:	f800283a 	ret
   42390:	2005883a 	mov	r2,r4
   42394:	2807883a 	mov	r3,r5
   42398:	dfc00117 	ldw	ra,4(sp)
   4239c:	dc000017 	ldw	r16,0(sp)
   423a0:	dec00204 	addi	sp,sp,8
   423a4:	f800283a 	ret
   423a8:	00bff2c4 	movi	r2,-53
   423ac:	4080240e 	bge	r8,r2,42440 <scalbn+0x170>
   423b0:	00b0d414 	movui	r2,50000
   423b4:	14001116 	blt	r2,r16,423fc <scalbn+0x12c>
   423b8:	0130be74 	movhi	r4,49913
   423bc:	01406974 	movhi	r5,421
   423c0:	213cd644 	addi	r4,r4,-3239
   423c4:	295b87c4 	addi	r5,r5,28191
   423c8:	500d883a 	mov	r6,r10
   423cc:	004246c0 	call	4246c <copysign>
   423d0:	01b0be74 	movhi	r6,49913
   423d4:	01c06974 	movhi	r7,421
   423d8:	31bcd644 	addi	r6,r6,-3239
   423dc:	39db87c4 	addi	r7,r7,28191
   423e0:	1009883a 	mov	r4,r2
   423e4:	180b883a 	mov	r5,r3
   423e8:	004438c0 	call	4438c <__muldf3>
   423ec:	dfc00117 	ldw	ra,4(sp)
   423f0:	dc000017 	ldw	r16,0(sp)
   423f4:	dec00204 	addi	sp,sp,8
   423f8:	f800283a 	ret
   423fc:	01220034 	movhi	r4,34816
   42400:	015f8e34 	movhi	r5,32312
   42404:	500d883a 	mov	r6,r10
   42408:	211d6704 	addi	r4,r4,30108
   4240c:	29790f04 	addi	r5,r5,-7108
   42410:	004246c0 	call	4246c <copysign>
   42414:	01a20034 	movhi	r6,34816
   42418:	01df8e34 	movhi	r7,32312
   4241c:	319d6704 	addi	r6,r6,30108
   42420:	39f90f04 	addi	r7,r7,-7108
   42424:	1009883a 	mov	r4,r2
   42428:	180b883a 	mov	r5,r3
   4242c:	004438c0 	call	4438c <__muldf3>
   42430:	dfc00117 	ldw	ra,4(sp)
   42434:	dc000017 	ldw	r16,0(sp)
   42438:	dec00204 	addi	sp,sp,8
   4243c:	f800283a 	ret
   42440:	42000d84 	addi	r8,r8,54
   42444:	4012953a 	slli	r9,r8,20
   42448:	01e00434 	movhi	r7,32784
   4244c:	39ffffc4 	addi	r7,r7,-1
   42450:	19ca703a 	and	r5,r3,r7
   42454:	000d883a 	mov	r6,zero
   42458:	01cf2434 	movhi	r7,15504
   4245c:	5009883a 	mov	r4,r10
   42460:	494ab03a 	or	r5,r9,r5
   42464:	004438c0 	call	4438c <__muldf3>
   42468:	003fbc06 	br	4235c <__alt_data_end+0xfffdb25c>

0004246c <copysign>:
   4246c:	2005883a 	mov	r2,r4
   42470:	01200034 	movhi	r4,32768
   42474:	213fffc4 	addi	r4,r4,-1
   42478:	38e0002c 	andhi	r3,r7,32768
   4247c:	290a703a 	and	r5,r5,r4
   42480:	28c6b03a 	or	r3,r5,r3
   42484:	f800283a 	ret

00042488 <__divsi3>:
   42488:	20001b16 	blt	r4,zero,424f8 <__divsi3+0x70>
   4248c:	000f883a 	mov	r7,zero
   42490:	28001616 	blt	r5,zero,424ec <__divsi3+0x64>
   42494:	200d883a 	mov	r6,r4
   42498:	29001a2e 	bgeu	r5,r4,42504 <__divsi3+0x7c>
   4249c:	00800804 	movi	r2,32
   424a0:	00c00044 	movi	r3,1
   424a4:	00000106 	br	424ac <__divsi3+0x24>
   424a8:	10000d26 	beq	r2,zero,424e0 <__divsi3+0x58>
   424ac:	294b883a 	add	r5,r5,r5
   424b0:	10bfffc4 	addi	r2,r2,-1
   424b4:	18c7883a 	add	r3,r3,r3
   424b8:	293ffb36 	bltu	r5,r4,424a8 <__alt_data_end+0xfffdb3a8>
   424bc:	0005883a 	mov	r2,zero
   424c0:	18000726 	beq	r3,zero,424e0 <__divsi3+0x58>
   424c4:	0005883a 	mov	r2,zero
   424c8:	31400236 	bltu	r6,r5,424d4 <__divsi3+0x4c>
   424cc:	314dc83a 	sub	r6,r6,r5
   424d0:	10c4b03a 	or	r2,r2,r3
   424d4:	1806d07a 	srli	r3,r3,1
   424d8:	280ad07a 	srli	r5,r5,1
   424dc:	183ffa1e 	bne	r3,zero,424c8 <__alt_data_end+0xfffdb3c8>
   424e0:	38000126 	beq	r7,zero,424e8 <__divsi3+0x60>
   424e4:	0085c83a 	sub	r2,zero,r2
   424e8:	f800283a 	ret
   424ec:	014bc83a 	sub	r5,zero,r5
   424f0:	39c0005c 	xori	r7,r7,1
   424f4:	003fe706 	br	42494 <__alt_data_end+0xfffdb394>
   424f8:	0109c83a 	sub	r4,zero,r4
   424fc:	01c00044 	movi	r7,1
   42500:	003fe306 	br	42490 <__alt_data_end+0xfffdb390>
   42504:	00c00044 	movi	r3,1
   42508:	003fee06 	br	424c4 <__alt_data_end+0xfffdb3c4>

0004250c <__modsi3>:
   4250c:	20001716 	blt	r4,zero,4256c <__modsi3+0x60>
   42510:	000f883a 	mov	r7,zero
   42514:	2005883a 	mov	r2,r4
   42518:	28001216 	blt	r5,zero,42564 <__modsi3+0x58>
   4251c:	2900162e 	bgeu	r5,r4,42578 <__modsi3+0x6c>
   42520:	01800804 	movi	r6,32
   42524:	00c00044 	movi	r3,1
   42528:	00000106 	br	42530 <__modsi3+0x24>
   4252c:	30000a26 	beq	r6,zero,42558 <__modsi3+0x4c>
   42530:	294b883a 	add	r5,r5,r5
   42534:	31bfffc4 	addi	r6,r6,-1
   42538:	18c7883a 	add	r3,r3,r3
   4253c:	293ffb36 	bltu	r5,r4,4252c <__alt_data_end+0xfffdb42c>
   42540:	18000526 	beq	r3,zero,42558 <__modsi3+0x4c>
   42544:	1806d07a 	srli	r3,r3,1
   42548:	11400136 	bltu	r2,r5,42550 <__modsi3+0x44>
   4254c:	1145c83a 	sub	r2,r2,r5
   42550:	280ad07a 	srli	r5,r5,1
   42554:	183ffb1e 	bne	r3,zero,42544 <__alt_data_end+0xfffdb444>
   42558:	38000126 	beq	r7,zero,42560 <__modsi3+0x54>
   4255c:	0085c83a 	sub	r2,zero,r2
   42560:	f800283a 	ret
   42564:	014bc83a 	sub	r5,zero,r5
   42568:	003fec06 	br	4251c <__alt_data_end+0xfffdb41c>
   4256c:	0109c83a 	sub	r4,zero,r4
   42570:	01c00044 	movi	r7,1
   42574:	003fe706 	br	42514 <__alt_data_end+0xfffdb414>
   42578:	00c00044 	movi	r3,1
   4257c:	003ff106 	br	42544 <__alt_data_end+0xfffdb444>

00042580 <__udivsi3>:
   42580:	200d883a 	mov	r6,r4
   42584:	2900152e 	bgeu	r5,r4,425dc <__udivsi3+0x5c>
   42588:	28001416 	blt	r5,zero,425dc <__udivsi3+0x5c>
   4258c:	00800804 	movi	r2,32
   42590:	00c00044 	movi	r3,1
   42594:	00000206 	br	425a0 <__udivsi3+0x20>
   42598:	10000e26 	beq	r2,zero,425d4 <__udivsi3+0x54>
   4259c:	28000516 	blt	r5,zero,425b4 <__udivsi3+0x34>
   425a0:	294b883a 	add	r5,r5,r5
   425a4:	10bfffc4 	addi	r2,r2,-1
   425a8:	18c7883a 	add	r3,r3,r3
   425ac:	293ffa36 	bltu	r5,r4,42598 <__alt_data_end+0xfffdb498>
   425b0:	18000826 	beq	r3,zero,425d4 <__udivsi3+0x54>
   425b4:	0005883a 	mov	r2,zero
   425b8:	31400236 	bltu	r6,r5,425c4 <__udivsi3+0x44>
   425bc:	314dc83a 	sub	r6,r6,r5
   425c0:	10c4b03a 	or	r2,r2,r3
   425c4:	1806d07a 	srli	r3,r3,1
   425c8:	280ad07a 	srli	r5,r5,1
   425cc:	183ffa1e 	bne	r3,zero,425b8 <__alt_data_end+0xfffdb4b8>
   425d0:	f800283a 	ret
   425d4:	0005883a 	mov	r2,zero
   425d8:	f800283a 	ret
   425dc:	00c00044 	movi	r3,1
   425e0:	003ff406 	br	425b4 <__alt_data_end+0xfffdb4b4>

000425e4 <__umodsi3>:
   425e4:	2005883a 	mov	r2,r4
   425e8:	2900122e 	bgeu	r5,r4,42634 <__umodsi3+0x50>
   425ec:	28001116 	blt	r5,zero,42634 <__umodsi3+0x50>
   425f0:	01800804 	movi	r6,32
   425f4:	00c00044 	movi	r3,1
   425f8:	00000206 	br	42604 <__umodsi3+0x20>
   425fc:	30000c26 	beq	r6,zero,42630 <__umodsi3+0x4c>
   42600:	28000516 	blt	r5,zero,42618 <__umodsi3+0x34>
   42604:	294b883a 	add	r5,r5,r5
   42608:	31bfffc4 	addi	r6,r6,-1
   4260c:	18c7883a 	add	r3,r3,r3
   42610:	293ffa36 	bltu	r5,r4,425fc <__alt_data_end+0xfffdb4fc>
   42614:	18000626 	beq	r3,zero,42630 <__umodsi3+0x4c>
   42618:	1806d07a 	srli	r3,r3,1
   4261c:	11400136 	bltu	r2,r5,42624 <__umodsi3+0x40>
   42620:	1145c83a 	sub	r2,r2,r5
   42624:	280ad07a 	srli	r5,r5,1
   42628:	183ffb1e 	bne	r3,zero,42618 <__alt_data_end+0xfffdb518>
   4262c:	f800283a 	ret
   42630:	f800283a 	ret
   42634:	00c00044 	movi	r3,1
   42638:	003ff706 	br	42618 <__alt_data_end+0xfffdb518>

0004263c <__addsf3>:
   4263c:	defffc04 	addi	sp,sp,-16
   42640:	2004d7fa 	srli	r2,r4,31
   42644:	280cd5fa 	srli	r6,r5,23
   42648:	dc000015 	stw	r16,0(sp)
   4264c:	00c02034 	movhi	r3,128
   42650:	2020d5fa 	srli	r16,r4,23
   42654:	280ed7fa 	srli	r7,r5,31
   42658:	18ffffc4 	addi	r3,r3,-1
   4265c:	dc400115 	stw	r17,4(sp)
   42660:	1908703a 	and	r4,r3,r4
   42664:	194a703a 	and	r5,r3,r5
   42668:	dfc00315 	stw	ra,12(sp)
   4266c:	dc800215 	stw	r18,8(sp)
   42670:	14403fcc 	andi	r17,r2,255
   42674:	84003fcc 	andi	r16,r16,255
   42678:	200890fa 	slli	r4,r4,3
   4267c:	31803fcc 	andi	r6,r6,255
   42680:	280a90fa 	slli	r5,r5,3
   42684:	89c05026 	beq	r17,r7,427c8 <__addsf3+0x18c>
   42688:	8185c83a 	sub	r2,r16,r6
   4268c:	00807a0e 	bge	zero,r2,42878 <__addsf3+0x23c>
   42690:	30001e1e 	bne	r6,zero,4270c <__addsf3+0xd0>
   42694:	28006d1e 	bne	r5,zero,4284c <__addsf3+0x210>
   42698:	208001cc 	andi	r2,r4,7
   4269c:	10000426 	beq	r2,zero,426b0 <__addsf3+0x74>
   426a0:	208003cc 	andi	r2,r4,15
   426a4:	00c00104 	movi	r3,4
   426a8:	10c00126 	beq	r2,r3,426b0 <__addsf3+0x74>
   426ac:	20c9883a 	add	r4,r4,r3
   426b0:	2081002c 	andhi	r2,r4,1024
   426b4:	10003926 	beq	r2,zero,4279c <__addsf3+0x160>
   426b8:	84000044 	addi	r16,r16,1
   426bc:	00803fc4 	movi	r2,255
   426c0:	80807826 	beq	r16,r2,428a4 <__addsf3+0x268>
   426c4:	200891ba 	slli	r4,r4,6
   426c8:	8805883a 	mov	r2,r17
   426cc:	2008d27a 	srli	r4,r4,9
   426d0:	84003fcc 	andi	r16,r16,255
   426d4:	800695fa 	slli	r3,r16,23
   426d8:	10803fcc 	andi	r2,r2,255
   426dc:	04002034 	movhi	r16,128
   426e0:	843fffc4 	addi	r16,r16,-1
   426e4:	100497fa 	slli	r2,r2,31
   426e8:	2408703a 	and	r4,r4,r16
   426ec:	20e0b03a 	or	r16,r4,r3
   426f0:	8084b03a 	or	r2,r16,r2
   426f4:	dfc00317 	ldw	ra,12(sp)
   426f8:	dc800217 	ldw	r18,8(sp)
   426fc:	dc400117 	ldw	r17,4(sp)
   42700:	dc000017 	ldw	r16,0(sp)
   42704:	dec00404 	addi	sp,sp,16
   42708:	f800283a 	ret
   4270c:	00c03fc4 	movi	r3,255
   42710:	80ffe126 	beq	r16,r3,42698 <__alt_data_end+0xfffdb598>
   42714:	29410034 	orhi	r5,r5,1024
   42718:	00c006c4 	movi	r3,27
   4271c:	18807516 	blt	r3,r2,428f4 <__addsf3+0x2b8>
   42720:	00c00804 	movi	r3,32
   42724:	1887c83a 	sub	r3,r3,r2
   42728:	28c6983a 	sll	r3,r5,r3
   4272c:	288ad83a 	srl	r5,r5,r2
   42730:	1804c03a 	cmpne	r2,r3,zero
   42734:	288ab03a 	or	r5,r5,r2
   42738:	2149c83a 	sub	r4,r4,r5
   4273c:	2081002c 	andhi	r2,r4,1024
   42740:	10001426 	beq	r2,zero,42794 <__addsf3+0x158>
   42744:	04810034 	movhi	r18,1024
   42748:	94bfffc4 	addi	r18,r18,-1
   4274c:	24a4703a 	and	r18,r4,r18
   42750:	9009883a 	mov	r4,r18
   42754:	00457b40 	call	457b4 <__clzsi2>
   42758:	10bffec4 	addi	r2,r2,-5
   4275c:	90a4983a 	sll	r18,r18,r2
   42760:	14005416 	blt	r2,r16,428b4 <__addsf3+0x278>
   42764:	1405c83a 	sub	r2,r2,r16
   42768:	11000044 	addi	r4,r2,1
   4276c:	00800804 	movi	r2,32
   42770:	1105c83a 	sub	r2,r2,r4
   42774:	9084983a 	sll	r2,r18,r2
   42778:	9124d83a 	srl	r18,r18,r4
   4277c:	0021883a 	mov	r16,zero
   42780:	1008c03a 	cmpne	r4,r2,zero
   42784:	9108b03a 	or	r4,r18,r4
   42788:	003fc306 	br	42698 <__alt_data_end+0xfffdb598>
   4278c:	1000db26 	beq	r2,zero,42afc <__addsf3+0x4c0>
   42790:	1009883a 	mov	r4,r2
   42794:	208001cc 	andi	r2,r4,7
   42798:	103fc11e 	bne	r2,zero,426a0 <__alt_data_end+0xfffdb5a0>
   4279c:	2006d0fa 	srli	r3,r4,3
   427a0:	01003fc4 	movi	r4,255
   427a4:	8805883a 	mov	r2,r17
   427a8:	8100241e 	bne	r16,r4,4283c <__addsf3+0x200>
   427ac:	18006e26 	beq	r3,zero,42968 <__addsf3+0x32c>
   427b0:	19001034 	orhi	r4,r3,64
   427b4:	00c02034 	movhi	r3,128
   427b8:	18ffffc4 	addi	r3,r3,-1
   427bc:	043fffc4 	movi	r16,-1
   427c0:	20c8703a 	and	r4,r4,r3
   427c4:	003fc206 	br	426d0 <__alt_data_end+0xfffdb5d0>
   427c8:	8187c83a 	sub	r3,r16,r6
   427cc:	00c03e0e 	bge	zero,r3,428c8 <__addsf3+0x28c>
   427d0:	30002326 	beq	r6,zero,42860 <__addsf3+0x224>
   427d4:	01803fc4 	movi	r6,255
   427d8:	81bfaf26 	beq	r16,r6,42698 <__alt_data_end+0xfffdb598>
   427dc:	29410034 	orhi	r5,r5,1024
   427e0:	018006c4 	movi	r6,27
   427e4:	30c07416 	blt	r6,r3,429b8 <__addsf3+0x37c>
   427e8:	01800804 	movi	r6,32
   427ec:	30cdc83a 	sub	r6,r6,r3
   427f0:	298c983a 	sll	r6,r5,r6
   427f4:	28cad83a 	srl	r5,r5,r3
   427f8:	3006c03a 	cmpne	r3,r6,zero
   427fc:	28cab03a 	or	r5,r5,r3
   42800:	2149883a 	add	r4,r4,r5
   42804:	20c1002c 	andhi	r3,r4,1024
   42808:	183fe226 	beq	r3,zero,42794 <__alt_data_end+0xfffdb694>
   4280c:	84000044 	addi	r16,r16,1
   42810:	00c03fc4 	movi	r3,255
   42814:	80c05426 	beq	r16,r3,42968 <__addsf3+0x32c>
   42818:	00bf0034 	movhi	r2,64512
   4281c:	10bfffc4 	addi	r2,r2,-1
   42820:	20c0004c 	andi	r3,r4,1
   42824:	2088703a 	and	r4,r4,r2
   42828:	2008d07a 	srli	r4,r4,1
   4282c:	20c8b03a 	or	r4,r4,r3
   42830:	003f9906 	br	42698 <__alt_data_end+0xfffdb598>
   42834:	0007883a 	mov	r3,zero
   42838:	0005883a 	mov	r2,zero
   4283c:	01002034 	movhi	r4,128
   42840:	213fffc4 	addi	r4,r4,-1
   42844:	1908703a 	and	r4,r3,r4
   42848:	003fa106 	br	426d0 <__alt_data_end+0xfffdb5d0>
   4284c:	10bfffc4 	addi	r2,r2,-1
   42850:	103fb926 	beq	r2,zero,42738 <__alt_data_end+0xfffdb638>
   42854:	00c03fc4 	movi	r3,255
   42858:	80ffaf1e 	bne	r16,r3,42718 <__alt_data_end+0xfffdb618>
   4285c:	003f8e06 	br	42698 <__alt_data_end+0xfffdb598>
   42860:	283f8d26 	beq	r5,zero,42698 <__alt_data_end+0xfffdb598>
   42864:	18ffffc4 	addi	r3,r3,-1
   42868:	183fe526 	beq	r3,zero,42800 <__alt_data_end+0xfffdb700>
   4286c:	01803fc4 	movi	r6,255
   42870:	81bfdb1e 	bne	r16,r6,427e0 <__alt_data_end+0xfffdb6e0>
   42874:	003f8806 	br	42698 <__alt_data_end+0xfffdb598>
   42878:	1000201e 	bne	r2,zero,428fc <__addsf3+0x2c0>
   4287c:	80800044 	addi	r2,r16,1
   42880:	10803fcc 	andi	r2,r2,255
   42884:	01800044 	movi	r6,1
   42888:	3080450e 	bge	r6,r2,429a0 <__addsf3+0x364>
   4288c:	2165c83a 	sub	r18,r4,r5
   42890:	90c1002c 	andhi	r3,r18,1024
   42894:	18002b26 	beq	r3,zero,42944 <__addsf3+0x308>
   42898:	2925c83a 	sub	r18,r5,r4
   4289c:	3823883a 	mov	r17,r7
   428a0:	003fab06 	br	42750 <__alt_data_end+0xfffdb650>
   428a4:	8805883a 	mov	r2,r17
   428a8:	043fffc4 	movi	r16,-1
   428ac:	0009883a 	mov	r4,zero
   428b0:	003f8706 	br	426d0 <__alt_data_end+0xfffdb5d0>
   428b4:	013f0034 	movhi	r4,64512
   428b8:	213fffc4 	addi	r4,r4,-1
   428bc:	80a1c83a 	sub	r16,r16,r2
   428c0:	9108703a 	and	r4,r18,r4
   428c4:	003f7406 	br	42698 <__alt_data_end+0xfffdb598>
   428c8:	1800411e 	bne	r3,zero,429d0 <__addsf3+0x394>
   428cc:	80c00044 	addi	r3,r16,1
   428d0:	19c03fcc 	andi	r7,r3,255
   428d4:	01800044 	movi	r6,1
   428d8:	31c0260e 	bge	r6,r7,42974 <__addsf3+0x338>
   428dc:	01803fc4 	movi	r6,255
   428e0:	19802126 	beq	r3,r6,42968 <__addsf3+0x32c>
   428e4:	2149883a 	add	r4,r4,r5
   428e8:	2008d07a 	srli	r4,r4,1
   428ec:	1821883a 	mov	r16,r3
   428f0:	003f6906 	br	42698 <__alt_data_end+0xfffdb598>
   428f4:	01400044 	movi	r5,1
   428f8:	003f8f06 	br	42738 <__alt_data_end+0xfffdb638>
   428fc:	8000151e 	bne	r16,zero,42954 <__addsf3+0x318>
   42900:	20002f26 	beq	r4,zero,429c0 <__addsf3+0x384>
   42904:	0084303a 	nor	r2,zero,r2
   42908:	10000a26 	beq	r2,zero,42934 <__addsf3+0x2f8>
   4290c:	00c03fc4 	movi	r3,255
   42910:	30c02b26 	beq	r6,r3,429c0 <__addsf3+0x384>
   42914:	00c006c4 	movi	r3,27
   42918:	18806d16 	blt	r3,r2,42ad0 <__addsf3+0x494>
   4291c:	00c00804 	movi	r3,32
   42920:	1887c83a 	sub	r3,r3,r2
   42924:	20c6983a 	sll	r3,r4,r3
   42928:	2084d83a 	srl	r2,r4,r2
   4292c:	1808c03a 	cmpne	r4,r3,zero
   42930:	1108b03a 	or	r4,r2,r4
   42934:	2909c83a 	sub	r4,r5,r4
   42938:	3021883a 	mov	r16,r6
   4293c:	3823883a 	mov	r17,r7
   42940:	003f7e06 	br	4273c <__alt_data_end+0xfffdb63c>
   42944:	903f821e 	bne	r18,zero,42750 <__alt_data_end+0xfffdb650>
   42948:	0005883a 	mov	r2,zero
   4294c:	0021883a 	mov	r16,zero
   42950:	003fba06 	br	4283c <__alt_data_end+0xfffdb73c>
   42954:	00c03fc4 	movi	r3,255
   42958:	30c01926 	beq	r6,r3,429c0 <__addsf3+0x384>
   4295c:	0085c83a 	sub	r2,zero,r2
   42960:	21010034 	orhi	r4,r4,1024
   42964:	003feb06 	br	42914 <__alt_data_end+0xfffdb814>
   42968:	043fffc4 	movi	r16,-1
   4296c:	0009883a 	mov	r4,zero
   42970:	003f5706 	br	426d0 <__alt_data_end+0xfffdb5d0>
   42974:	80004a1e 	bne	r16,zero,42aa0 <__addsf3+0x464>
   42978:	20005926 	beq	r4,zero,42ae0 <__addsf3+0x4a4>
   4297c:	283f4626 	beq	r5,zero,42698 <__alt_data_end+0xfffdb598>
   42980:	2149883a 	add	r4,r4,r5
   42984:	2081002c 	andhi	r2,r4,1024
   42988:	103f8226 	beq	r2,zero,42794 <__alt_data_end+0xfffdb694>
   4298c:	00bf0034 	movhi	r2,64512
   42990:	10bfffc4 	addi	r2,r2,-1
   42994:	3021883a 	mov	r16,r6
   42998:	2088703a 	and	r4,r4,r2
   4299c:	003f3e06 	br	42698 <__alt_data_end+0xfffdb598>
   429a0:	8000121e 	bne	r16,zero,429ec <__addsf3+0x3b0>
   429a4:	2000261e 	bne	r4,zero,42a40 <__addsf3+0x404>
   429a8:	283fa226 	beq	r5,zero,42834 <__alt_data_end+0xfffdb734>
   429ac:	2809883a 	mov	r4,r5
   429b0:	3823883a 	mov	r17,r7
   429b4:	003f3806 	br	42698 <__alt_data_end+0xfffdb598>
   429b8:	01400044 	movi	r5,1
   429bc:	003f9006 	br	42800 <__alt_data_end+0xfffdb700>
   429c0:	2809883a 	mov	r4,r5
   429c4:	3021883a 	mov	r16,r6
   429c8:	3823883a 	mov	r17,r7
   429cc:	003f3206 	br	42698 <__alt_data_end+0xfffdb598>
   429d0:	80000c1e 	bne	r16,zero,42a04 <__addsf3+0x3c8>
   429d4:	20002f26 	beq	r4,zero,42a94 <__addsf3+0x458>
   429d8:	00c6303a 	nor	r3,zero,r3
   429dc:	18002b1e 	bne	r3,zero,42a8c <__addsf3+0x450>
   429e0:	2149883a 	add	r4,r4,r5
   429e4:	3021883a 	mov	r16,r6
   429e8:	003f8606 	br	42804 <__alt_data_end+0xfffdb704>
   429ec:	20001b1e 	bne	r4,zero,42a5c <__addsf3+0x420>
   429f0:	28003926 	beq	r5,zero,42ad8 <__addsf3+0x49c>
   429f4:	2809883a 	mov	r4,r5
   429f8:	3823883a 	mov	r17,r7
   429fc:	04003fc4 	movi	r16,255
   42a00:	003f2506 	br	42698 <__alt_data_end+0xfffdb598>
   42a04:	01c03fc4 	movi	r7,255
   42a08:	31c02226 	beq	r6,r7,42a94 <__addsf3+0x458>
   42a0c:	00c7c83a 	sub	r3,zero,r3
   42a10:	21010034 	orhi	r4,r4,1024
   42a14:	01c006c4 	movi	r7,27
   42a18:	38c03616 	blt	r7,r3,42af4 <__addsf3+0x4b8>
   42a1c:	01c00804 	movi	r7,32
   42a20:	38cfc83a 	sub	r7,r7,r3
   42a24:	21ce983a 	sll	r7,r4,r7
   42a28:	20c6d83a 	srl	r3,r4,r3
   42a2c:	3808c03a 	cmpne	r4,r7,zero
   42a30:	1906b03a 	or	r3,r3,r4
   42a34:	1949883a 	add	r4,r3,r5
   42a38:	3021883a 	mov	r16,r6
   42a3c:	003f7106 	br	42804 <__alt_data_end+0xfffdb704>
   42a40:	283f1526 	beq	r5,zero,42698 <__alt_data_end+0xfffdb598>
   42a44:	2145c83a 	sub	r2,r4,r5
   42a48:	10c1002c 	andhi	r3,r2,1024
   42a4c:	183f4f26 	beq	r3,zero,4278c <__alt_data_end+0xfffdb68c>
   42a50:	2909c83a 	sub	r4,r5,r4
   42a54:	3823883a 	mov	r17,r7
   42a58:	003f0f06 	br	42698 <__alt_data_end+0xfffdb598>
   42a5c:	28001a26 	beq	r5,zero,42ac8 <__addsf3+0x48c>
   42a60:	2008d0fa 	srli	r4,r4,3
   42a64:	2080102c 	andhi	r2,r4,64
   42a68:	10000526 	beq	r2,zero,42a80 <__addsf3+0x444>
   42a6c:	280ad0fa 	srli	r5,r5,3
   42a70:	2880102c 	andhi	r2,r5,64
   42a74:	1000021e 	bne	r2,zero,42a80 <__addsf3+0x444>
   42a78:	2809883a 	mov	r4,r5
   42a7c:	3823883a 	mov	r17,r7
   42a80:	200890fa 	slli	r4,r4,3
   42a84:	04003fc4 	movi	r16,255
   42a88:	003f0306 	br	42698 <__alt_data_end+0xfffdb598>
   42a8c:	01c03fc4 	movi	r7,255
   42a90:	31ffe01e 	bne	r6,r7,42a14 <__alt_data_end+0xfffdb914>
   42a94:	2809883a 	mov	r4,r5
   42a98:	3021883a 	mov	r16,r6
   42a9c:	003efe06 	br	42698 <__alt_data_end+0xfffdb598>
   42aa0:	20001126 	beq	r4,zero,42ae8 <__addsf3+0x4ac>
   42aa4:	28000826 	beq	r5,zero,42ac8 <__addsf3+0x48c>
   42aa8:	2008d0fa 	srli	r4,r4,3
   42aac:	2080102c 	andhi	r2,r4,64
   42ab0:	103ff326 	beq	r2,zero,42a80 <__alt_data_end+0xfffdb980>
   42ab4:	280ad0fa 	srli	r5,r5,3
   42ab8:	2880102c 	andhi	r2,r5,64
   42abc:	103ff01e 	bne	r2,zero,42a80 <__alt_data_end+0xfffdb980>
   42ac0:	2809883a 	mov	r4,r5
   42ac4:	003fee06 	br	42a80 <__alt_data_end+0xfffdb980>
   42ac8:	04003fc4 	movi	r16,255
   42acc:	003ef206 	br	42698 <__alt_data_end+0xfffdb598>
   42ad0:	01000044 	movi	r4,1
   42ad4:	003f9706 	br	42934 <__alt_data_end+0xfffdb834>
   42ad8:	0005883a 	mov	r2,zero
   42adc:	003f3406 	br	427b0 <__alt_data_end+0xfffdb6b0>
   42ae0:	2809883a 	mov	r4,r5
   42ae4:	003eec06 	br	42698 <__alt_data_end+0xfffdb598>
   42ae8:	2809883a 	mov	r4,r5
   42aec:	04003fc4 	movi	r16,255
   42af0:	003ee906 	br	42698 <__alt_data_end+0xfffdb598>
   42af4:	00c00044 	movi	r3,1
   42af8:	003fce06 	br	42a34 <__alt_data_end+0xfffdb934>
   42afc:	0005883a 	mov	r2,zero
   42b00:	003f4e06 	br	4283c <__alt_data_end+0xfffdb73c>

00042b04 <__mulsf3>:
   42b04:	defff504 	addi	sp,sp,-44
   42b08:	dc000115 	stw	r16,4(sp)
   42b0c:	2020d5fa 	srli	r16,r4,23
   42b10:	dd400615 	stw	r21,24(sp)
   42b14:	202ad7fa 	srli	r21,r4,31
   42b18:	dc800315 	stw	r18,12(sp)
   42b1c:	04802034 	movhi	r18,128
   42b20:	df000915 	stw	fp,36(sp)
   42b24:	dd000515 	stw	r20,20(sp)
   42b28:	94bfffc4 	addi	r18,r18,-1
   42b2c:	dfc00a15 	stw	ra,40(sp)
   42b30:	ddc00815 	stw	r23,32(sp)
   42b34:	dd800715 	stw	r22,28(sp)
   42b38:	dcc00415 	stw	r19,16(sp)
   42b3c:	dc400215 	stw	r17,8(sp)
   42b40:	84003fcc 	andi	r16,r16,255
   42b44:	9124703a 	and	r18,r18,r4
   42b48:	a829883a 	mov	r20,r21
   42b4c:	af003fcc 	andi	fp,r21,255
   42b50:	80005426 	beq	r16,zero,42ca4 <__mulsf3+0x1a0>
   42b54:	00803fc4 	movi	r2,255
   42b58:	80802f26 	beq	r16,r2,42c18 <__mulsf3+0x114>
   42b5c:	91002034 	orhi	r4,r18,128
   42b60:	202490fa 	slli	r18,r4,3
   42b64:	843fe044 	addi	r16,r16,-127
   42b68:	0023883a 	mov	r17,zero
   42b6c:	002f883a 	mov	r23,zero
   42b70:	2804d5fa 	srli	r2,r5,23
   42b74:	282cd7fa 	srli	r22,r5,31
   42b78:	01002034 	movhi	r4,128
   42b7c:	213fffc4 	addi	r4,r4,-1
   42b80:	10803fcc 	andi	r2,r2,255
   42b84:	2166703a 	and	r19,r4,r5
   42b88:	b1803fcc 	andi	r6,r22,255
   42b8c:	10004c26 	beq	r2,zero,42cc0 <__mulsf3+0x1bc>
   42b90:	00c03fc4 	movi	r3,255
   42b94:	10c04726 	beq	r2,r3,42cb4 <__mulsf3+0x1b0>
   42b98:	99002034 	orhi	r4,r19,128
   42b9c:	202690fa 	slli	r19,r4,3
   42ba0:	10bfe044 	addi	r2,r2,-127
   42ba4:	0007883a 	mov	r3,zero
   42ba8:	80a1883a 	add	r16,r16,r2
   42bac:	010003c4 	movi	r4,15
   42bb0:	1c44b03a 	or	r2,r3,r17
   42bb4:	b56af03a 	xor	r21,r22,r21
   42bb8:	81c00044 	addi	r7,r16,1
   42bbc:	20806b36 	bltu	r4,r2,42d6c <__mulsf3+0x268>
   42bc0:	100490ba 	slli	r2,r2,2
   42bc4:	01000134 	movhi	r4,4
   42bc8:	210af604 	addi	r4,r4,11224
   42bcc:	1105883a 	add	r2,r2,r4
   42bd0:	10800017 	ldw	r2,0(r2)
   42bd4:	1000683a 	jmp	r2
   42bd8:	00042d6c 	andhi	zero,zero,4277
   42bdc:	00042c2c 	andhi	zero,zero,4272
   42be0:	00042c2c 	andhi	zero,zero,4272
   42be4:	00042c28 	cmpgeui	zero,zero,4272
   42be8:	00042d50 	cmplti	zero,zero,4277
   42bec:	00042d50 	cmplti	zero,zero,4277
   42bf0:	00042d3c 	xorhi	zero,zero,4276
   42bf4:	00042c28 	cmpgeui	zero,zero,4272
   42bf8:	00042d50 	cmplti	zero,zero,4277
   42bfc:	00042d3c 	xorhi	zero,zero,4276
   42c00:	00042d50 	cmplti	zero,zero,4277
   42c04:	00042c28 	cmpgeui	zero,zero,4272
   42c08:	00042d5c 	xori	zero,zero,4277
   42c0c:	00042d5c 	xori	zero,zero,4277
   42c10:	00042d5c 	xori	zero,zero,4277
   42c14:	00042e38 	rdprs	zero,zero,4280
   42c18:	90003b1e 	bne	r18,zero,42d08 <__mulsf3+0x204>
   42c1c:	04400204 	movi	r17,8
   42c20:	05c00084 	movi	r23,2
   42c24:	003fd206 	br	42b70 <__alt_data_end+0xfffdba70>
   42c28:	302b883a 	mov	r21,r6
   42c2c:	00800084 	movi	r2,2
   42c30:	18802626 	beq	r3,r2,42ccc <__mulsf3+0x1c8>
   42c34:	008000c4 	movi	r2,3
   42c38:	1880ab26 	beq	r3,r2,42ee8 <__mulsf3+0x3e4>
   42c3c:	00800044 	movi	r2,1
   42c40:	1880a21e 	bne	r3,r2,42ecc <__mulsf3+0x3c8>
   42c44:	a829883a 	mov	r20,r21
   42c48:	0007883a 	mov	r3,zero
   42c4c:	0009883a 	mov	r4,zero
   42c50:	18803fcc 	andi	r2,r3,255
   42c54:	100695fa 	slli	r3,r2,23
   42c58:	a0803fcc 	andi	r2,r20,255
   42c5c:	100a97fa 	slli	r5,r2,31
   42c60:	00802034 	movhi	r2,128
   42c64:	10bfffc4 	addi	r2,r2,-1
   42c68:	2084703a 	and	r2,r4,r2
   42c6c:	10c4b03a 	or	r2,r2,r3
   42c70:	1144b03a 	or	r2,r2,r5
   42c74:	dfc00a17 	ldw	ra,40(sp)
   42c78:	df000917 	ldw	fp,36(sp)
   42c7c:	ddc00817 	ldw	r23,32(sp)
   42c80:	dd800717 	ldw	r22,28(sp)
   42c84:	dd400617 	ldw	r21,24(sp)
   42c88:	dd000517 	ldw	r20,20(sp)
   42c8c:	dcc00417 	ldw	r19,16(sp)
   42c90:	dc800317 	ldw	r18,12(sp)
   42c94:	dc400217 	ldw	r17,8(sp)
   42c98:	dc000117 	ldw	r16,4(sp)
   42c9c:	dec00b04 	addi	sp,sp,44
   42ca0:	f800283a 	ret
   42ca4:	90000d1e 	bne	r18,zero,42cdc <__mulsf3+0x1d8>
   42ca8:	04400104 	movi	r17,4
   42cac:	05c00044 	movi	r23,1
   42cb0:	003faf06 	br	42b70 <__alt_data_end+0xfffdba70>
   42cb4:	9806c03a 	cmpne	r3,r19,zero
   42cb8:	18c00084 	addi	r3,r3,2
   42cbc:	003fba06 	br	42ba8 <__alt_data_end+0xfffdbaa8>
   42cc0:	9800141e 	bne	r19,zero,42d14 <__mulsf3+0x210>
   42cc4:	00c00044 	movi	r3,1
   42cc8:	003fb706 	br	42ba8 <__alt_data_end+0xfffdbaa8>
   42ccc:	a829883a 	mov	r20,r21
   42cd0:	00ffffc4 	movi	r3,-1
   42cd4:	0009883a 	mov	r4,zero
   42cd8:	003fdd06 	br	42c50 <__alt_data_end+0xfffdbb50>
   42cdc:	9009883a 	mov	r4,r18
   42ce0:	d9400015 	stw	r5,0(sp)
   42ce4:	00457b40 	call	457b4 <__clzsi2>
   42ce8:	10fffec4 	addi	r3,r2,-5
   42cec:	10801d84 	addi	r2,r2,118
   42cf0:	90e4983a 	sll	r18,r18,r3
   42cf4:	00a1c83a 	sub	r16,zero,r2
   42cf8:	0023883a 	mov	r17,zero
   42cfc:	002f883a 	mov	r23,zero
   42d00:	d9400017 	ldw	r5,0(sp)
   42d04:	003f9a06 	br	42b70 <__alt_data_end+0xfffdba70>
   42d08:	04400304 	movi	r17,12
   42d0c:	05c000c4 	movi	r23,3
   42d10:	003f9706 	br	42b70 <__alt_data_end+0xfffdba70>
   42d14:	9809883a 	mov	r4,r19
   42d18:	d9800015 	stw	r6,0(sp)
   42d1c:	00457b40 	call	457b4 <__clzsi2>
   42d20:	10fffec4 	addi	r3,r2,-5
   42d24:	10801d84 	addi	r2,r2,118
   42d28:	98e6983a 	sll	r19,r19,r3
   42d2c:	0085c83a 	sub	r2,zero,r2
   42d30:	0007883a 	mov	r3,zero
   42d34:	d9800017 	ldw	r6,0(sp)
   42d38:	003f9b06 	br	42ba8 <__alt_data_end+0xfffdbaa8>
   42d3c:	01002034 	movhi	r4,128
   42d40:	0029883a 	mov	r20,zero
   42d44:	213fffc4 	addi	r4,r4,-1
   42d48:	00ffffc4 	movi	r3,-1
   42d4c:	003fc006 	br	42c50 <__alt_data_end+0xfffdbb50>
   42d50:	9027883a 	mov	r19,r18
   42d54:	b807883a 	mov	r3,r23
   42d58:	003fb406 	br	42c2c <__alt_data_end+0xfffdbb2c>
   42d5c:	9027883a 	mov	r19,r18
   42d60:	e02b883a 	mov	r21,fp
   42d64:	b807883a 	mov	r3,r23
   42d68:	003fb006 	br	42c2c <__alt_data_end+0xfffdbb2c>
   42d6c:	9004d43a 	srli	r2,r18,16
   42d70:	9810d43a 	srli	r8,r19,16
   42d74:	94bfffcc 	andi	r18,r18,65535
   42d78:	993fffcc 	andi	r4,r19,65535
   42d7c:	910d383a 	mul	r6,r18,r4
   42d80:	20a7383a 	mul	r19,r4,r2
   42d84:	9225383a 	mul	r18,r18,r8
   42d88:	3006d43a 	srli	r3,r6,16
   42d8c:	1211383a 	mul	r8,r2,r8
   42d90:	94e5883a 	add	r18,r18,r19
   42d94:	1c87883a 	add	r3,r3,r18
   42d98:	1cc0022e 	bgeu	r3,r19,42da4 <__mulsf3+0x2a0>
   42d9c:	00800074 	movhi	r2,1
   42da0:	4091883a 	add	r8,r8,r2
   42da4:	1804943a 	slli	r2,r3,16
   42da8:	31bfffcc 	andi	r6,r6,65535
   42dac:	1806d43a 	srli	r3,r3,16
   42db0:	1185883a 	add	r2,r2,r6
   42db4:	102691ba 	slli	r19,r2,6
   42db8:	1a07883a 	add	r3,r3,r8
   42dbc:	1004d6ba 	srli	r2,r2,26
   42dc0:	180891ba 	slli	r4,r3,6
   42dc4:	9826c03a 	cmpne	r19,r19,zero
   42dc8:	9884b03a 	or	r2,r19,r2
   42dcc:	1126b03a 	or	r19,r2,r4
   42dd0:	9882002c 	andhi	r2,r19,2048
   42dd4:	10000426 	beq	r2,zero,42de8 <__mulsf3+0x2e4>
   42dd8:	9804d07a 	srli	r2,r19,1
   42ddc:	9900004c 	andi	r4,r19,1
   42de0:	3821883a 	mov	r16,r7
   42de4:	1126b03a 	or	r19,r2,r4
   42de8:	80c01fc4 	addi	r3,r16,127
   42dec:	00c0210e 	bge	zero,r3,42e74 <__mulsf3+0x370>
   42df0:	988001cc 	andi	r2,r19,7
   42df4:	10000426 	beq	r2,zero,42e08 <__mulsf3+0x304>
   42df8:	988003cc 	andi	r2,r19,15
   42dfc:	01000104 	movi	r4,4
   42e00:	11000126 	beq	r2,r4,42e08 <__mulsf3+0x304>
   42e04:	9927883a 	add	r19,r19,r4
   42e08:	9882002c 	andhi	r2,r19,2048
   42e0c:	10000426 	beq	r2,zero,42e20 <__mulsf3+0x31c>
   42e10:	00be0034 	movhi	r2,63488
   42e14:	10bfffc4 	addi	r2,r2,-1
   42e18:	80c02004 	addi	r3,r16,128
   42e1c:	98a6703a 	and	r19,r19,r2
   42e20:	00803f84 	movi	r2,254
   42e24:	10ffa916 	blt	r2,r3,42ccc <__alt_data_end+0xfffdbbcc>
   42e28:	980891ba 	slli	r4,r19,6
   42e2c:	a829883a 	mov	r20,r21
   42e30:	2008d27a 	srli	r4,r4,9
   42e34:	003f8606 	br	42c50 <__alt_data_end+0xfffdbb50>
   42e38:	9080102c 	andhi	r2,r18,64
   42e3c:	10000826 	beq	r2,zero,42e60 <__mulsf3+0x35c>
   42e40:	9880102c 	andhi	r2,r19,64
   42e44:	1000061e 	bne	r2,zero,42e60 <__mulsf3+0x35c>
   42e48:	00802034 	movhi	r2,128
   42e4c:	99001034 	orhi	r4,r19,64
   42e50:	10bfffc4 	addi	r2,r2,-1
   42e54:	b029883a 	mov	r20,r22
   42e58:	2088703a 	and	r4,r4,r2
   42e5c:	003fba06 	br	42d48 <__alt_data_end+0xfffdbc48>
   42e60:	00802034 	movhi	r2,128
   42e64:	91001034 	orhi	r4,r18,64
   42e68:	10bfffc4 	addi	r2,r2,-1
   42e6c:	2088703a 	and	r4,r4,r2
   42e70:	003fb506 	br	42d48 <__alt_data_end+0xfffdbc48>
   42e74:	00800044 	movi	r2,1
   42e78:	10c7c83a 	sub	r3,r2,r3
   42e7c:	008006c4 	movi	r2,27
   42e80:	10ff7016 	blt	r2,r3,42c44 <__alt_data_end+0xfffdbb44>
   42e84:	00800804 	movi	r2,32
   42e88:	10c5c83a 	sub	r2,r2,r3
   42e8c:	9884983a 	sll	r2,r19,r2
   42e90:	98c6d83a 	srl	r3,r19,r3
   42e94:	1004c03a 	cmpne	r2,r2,zero
   42e98:	1884b03a 	or	r2,r3,r2
   42e9c:	10c001cc 	andi	r3,r2,7
   42ea0:	18000426 	beq	r3,zero,42eb4 <__mulsf3+0x3b0>
   42ea4:	10c003cc 	andi	r3,r2,15
   42ea8:	01000104 	movi	r4,4
   42eac:	19000126 	beq	r3,r4,42eb4 <__mulsf3+0x3b0>
   42eb0:	1105883a 	add	r2,r2,r4
   42eb4:	10c1002c 	andhi	r3,r2,1024
   42eb8:	18000626 	beq	r3,zero,42ed4 <__mulsf3+0x3d0>
   42ebc:	a829883a 	mov	r20,r21
   42ec0:	00c00044 	movi	r3,1
   42ec4:	0009883a 	mov	r4,zero
   42ec8:	003f6106 	br	42c50 <__alt_data_end+0xfffdbb50>
   42ecc:	3821883a 	mov	r16,r7
   42ed0:	003fc506 	br	42de8 <__alt_data_end+0xfffdbce8>
   42ed4:	100491ba 	slli	r2,r2,6
   42ed8:	a829883a 	mov	r20,r21
   42edc:	0007883a 	mov	r3,zero
   42ee0:	1008d27a 	srli	r4,r2,9
   42ee4:	003f5a06 	br	42c50 <__alt_data_end+0xfffdbb50>
   42ee8:	00802034 	movhi	r2,128
   42eec:	99001034 	orhi	r4,r19,64
   42ef0:	10bfffc4 	addi	r2,r2,-1
   42ef4:	a829883a 	mov	r20,r21
   42ef8:	2088703a 	and	r4,r4,r2
   42efc:	003f9206 	br	42d48 <__alt_data_end+0xfffdbc48>

00042f00 <__fixsfsi>:
   42f00:	200ad5fa 	srli	r5,r4,23
   42f04:	00c02034 	movhi	r3,128
   42f08:	18ffffc4 	addi	r3,r3,-1
   42f0c:	29403fcc 	andi	r5,r5,255
   42f10:	00801f84 	movi	r2,126
   42f14:	1906703a 	and	r3,r3,r4
   42f18:	2008d7fa 	srli	r4,r4,31
   42f1c:	11400e0e 	bge	r2,r5,42f58 <__fixsfsi+0x58>
   42f20:	00802744 	movi	r2,157
   42f24:	11400816 	blt	r2,r5,42f48 <__fixsfsi+0x48>
   42f28:	00802544 	movi	r2,149
   42f2c:	18c02034 	orhi	r3,r3,128
   42f30:	11400b0e 	bge	r2,r5,42f60 <__fixsfsi+0x60>
   42f34:	28bfda84 	addi	r2,r5,-150
   42f38:	1884983a 	sll	r2,r3,r2
   42f3c:	20000726 	beq	r4,zero,42f5c <__fixsfsi+0x5c>
   42f40:	0085c83a 	sub	r2,zero,r2
   42f44:	f800283a 	ret
   42f48:	00a00034 	movhi	r2,32768
   42f4c:	10bfffc4 	addi	r2,r2,-1
   42f50:	2085883a 	add	r2,r4,r2
   42f54:	f800283a 	ret
   42f58:	0005883a 	mov	r2,zero
   42f5c:	f800283a 	ret
   42f60:	00802584 	movi	r2,150
   42f64:	1145c83a 	sub	r2,r2,r5
   42f68:	1884d83a 	srl	r2,r3,r2
   42f6c:	003ff306 	br	42f3c <__alt_data_end+0xfffdbe3c>

00042f70 <__floatsisf>:
   42f70:	defffd04 	addi	sp,sp,-12
   42f74:	dfc00215 	stw	ra,8(sp)
   42f78:	dc400115 	stw	r17,4(sp)
   42f7c:	dc000015 	stw	r16,0(sp)
   42f80:	20003526 	beq	r4,zero,43058 <__floatsisf+0xe8>
   42f84:	2021883a 	mov	r16,r4
   42f88:	2022d7fa 	srli	r17,r4,31
   42f8c:	20003616 	blt	r4,zero,43068 <__floatsisf+0xf8>
   42f90:	8009883a 	mov	r4,r16
   42f94:	00457b40 	call	457b4 <__clzsi2>
   42f98:	00c02784 	movi	r3,158
   42f9c:	1887c83a 	sub	r3,r3,r2
   42fa0:	01002584 	movi	r4,150
   42fa4:	20c01416 	blt	r4,r3,42ff8 <__floatsisf+0x88>
   42fa8:	20c9c83a 	sub	r4,r4,r3
   42fac:	8120983a 	sll	r16,r16,r4
   42fb0:	00802034 	movhi	r2,128
   42fb4:	10bfffc4 	addi	r2,r2,-1
   42fb8:	8809883a 	mov	r4,r17
   42fbc:	80a0703a 	and	r16,r16,r2
   42fc0:	18803fcc 	andi	r2,r3,255
   42fc4:	100695fa 	slli	r3,r2,23
   42fc8:	20803fcc 	andi	r2,r4,255
   42fcc:	100897fa 	slli	r4,r2,31
   42fd0:	00802034 	movhi	r2,128
   42fd4:	10bfffc4 	addi	r2,r2,-1
   42fd8:	8084703a 	and	r2,r16,r2
   42fdc:	10c4b03a 	or	r2,r2,r3
   42fe0:	1104b03a 	or	r2,r2,r4
   42fe4:	dfc00217 	ldw	ra,8(sp)
   42fe8:	dc400117 	ldw	r17,4(sp)
   42fec:	dc000017 	ldw	r16,0(sp)
   42ff0:	dec00304 	addi	sp,sp,12
   42ff4:	f800283a 	ret
   42ff8:	01002644 	movi	r4,153
   42ffc:	20c01c16 	blt	r4,r3,43070 <__floatsisf+0x100>
   43000:	20c9c83a 	sub	r4,r4,r3
   43004:	8120983a 	sll	r16,r16,r4
   43008:	013f0034 	movhi	r4,64512
   4300c:	213fffc4 	addi	r4,r4,-1
   43010:	814001cc 	andi	r5,r16,7
   43014:	8108703a 	and	r4,r16,r4
   43018:	28000426 	beq	r5,zero,4302c <__floatsisf+0xbc>
   4301c:	840003cc 	andi	r16,r16,15
   43020:	01400104 	movi	r5,4
   43024:	81400126 	beq	r16,r5,4302c <__floatsisf+0xbc>
   43028:	2149883a 	add	r4,r4,r5
   4302c:	2141002c 	andhi	r5,r4,1024
   43030:	28000526 	beq	r5,zero,43048 <__floatsisf+0xd8>
   43034:	00c027c4 	movi	r3,159
   43038:	1887c83a 	sub	r3,r3,r2
   4303c:	00bf0034 	movhi	r2,64512
   43040:	10bfffc4 	addi	r2,r2,-1
   43044:	2088703a 	and	r4,r4,r2
   43048:	202091ba 	slli	r16,r4,6
   4304c:	8809883a 	mov	r4,r17
   43050:	8020d27a 	srli	r16,r16,9
   43054:	003fda06 	br	42fc0 <__alt_data_end+0xfffdbec0>
   43058:	0009883a 	mov	r4,zero
   4305c:	0007883a 	mov	r3,zero
   43060:	0021883a 	mov	r16,zero
   43064:	003fd606 	br	42fc0 <__alt_data_end+0xfffdbec0>
   43068:	0121c83a 	sub	r16,zero,r4
   4306c:	003fc806 	br	42f90 <__alt_data_end+0xfffdbe90>
   43070:	01002e44 	movi	r4,185
   43074:	20c9c83a 	sub	r4,r4,r3
   43078:	01400144 	movi	r5,5
   4307c:	8108983a 	sll	r4,r16,r4
   43080:	288bc83a 	sub	r5,r5,r2
   43084:	8160d83a 	srl	r16,r16,r5
   43088:	2008c03a 	cmpne	r4,r4,zero
   4308c:	8120b03a 	or	r16,r16,r4
   43090:	003fdd06 	br	43008 <__alt_data_end+0xfffdbf08>

00043094 <__adddf3>:
   43094:	02c00434 	movhi	r11,16
   43098:	5affffc4 	addi	r11,r11,-1
   4309c:	2806d7fa 	srli	r3,r5,31
   430a0:	2ad4703a 	and	r10,r5,r11
   430a4:	3ad2703a 	and	r9,r7,r11
   430a8:	3804d53a 	srli	r2,r7,20
   430ac:	3018d77a 	srli	r12,r6,29
   430b0:	280ad53a 	srli	r5,r5,20
   430b4:	501490fa 	slli	r10,r10,3
   430b8:	2010d77a 	srli	r8,r4,29
   430bc:	481290fa 	slli	r9,r9,3
   430c0:	380ed7fa 	srli	r7,r7,31
   430c4:	defffb04 	addi	sp,sp,-20
   430c8:	dc800215 	stw	r18,8(sp)
   430cc:	dc400115 	stw	r17,4(sp)
   430d0:	dc000015 	stw	r16,0(sp)
   430d4:	dfc00415 	stw	ra,16(sp)
   430d8:	dcc00315 	stw	r19,12(sp)
   430dc:	1c803fcc 	andi	r18,r3,255
   430e0:	2c01ffcc 	andi	r16,r5,2047
   430e4:	5210b03a 	or	r8,r10,r8
   430e8:	202290fa 	slli	r17,r4,3
   430ec:	1081ffcc 	andi	r2,r2,2047
   430f0:	4b12b03a 	or	r9,r9,r12
   430f4:	300c90fa 	slli	r6,r6,3
   430f8:	91c07526 	beq	r18,r7,432d0 <__adddf3+0x23c>
   430fc:	8087c83a 	sub	r3,r16,r2
   43100:	00c0ab0e 	bge	zero,r3,433b0 <__adddf3+0x31c>
   43104:	10002a1e 	bne	r2,zero,431b0 <__adddf3+0x11c>
   43108:	4984b03a 	or	r2,r9,r6
   4310c:	1000961e 	bne	r2,zero,43368 <__adddf3+0x2d4>
   43110:	888001cc 	andi	r2,r17,7
   43114:	10000726 	beq	r2,zero,43134 <__adddf3+0xa0>
   43118:	888003cc 	andi	r2,r17,15
   4311c:	00c00104 	movi	r3,4
   43120:	10c00426 	beq	r2,r3,43134 <__adddf3+0xa0>
   43124:	88c7883a 	add	r3,r17,r3
   43128:	1c63803a 	cmpltu	r17,r3,r17
   4312c:	4451883a 	add	r8,r8,r17
   43130:	1823883a 	mov	r17,r3
   43134:	4080202c 	andhi	r2,r8,128
   43138:	10005926 	beq	r2,zero,432a0 <__adddf3+0x20c>
   4313c:	84000044 	addi	r16,r16,1
   43140:	0081ffc4 	movi	r2,2047
   43144:	8080ba26 	beq	r16,r2,43430 <__adddf3+0x39c>
   43148:	00bfe034 	movhi	r2,65408
   4314c:	10bfffc4 	addi	r2,r2,-1
   43150:	4090703a 	and	r8,r8,r2
   43154:	4004977a 	slli	r2,r8,29
   43158:	4010927a 	slli	r8,r8,9
   4315c:	8822d0fa 	srli	r17,r17,3
   43160:	8401ffcc 	andi	r16,r16,2047
   43164:	4010d33a 	srli	r8,r8,12
   43168:	9007883a 	mov	r3,r18
   4316c:	1444b03a 	or	r2,r2,r17
   43170:	8401ffcc 	andi	r16,r16,2047
   43174:	8020953a 	slli	r16,r16,20
   43178:	18c03fcc 	andi	r3,r3,255
   4317c:	01000434 	movhi	r4,16
   43180:	213fffc4 	addi	r4,r4,-1
   43184:	180697fa 	slli	r3,r3,31
   43188:	4110703a 	and	r8,r8,r4
   4318c:	4410b03a 	or	r8,r8,r16
   43190:	40c6b03a 	or	r3,r8,r3
   43194:	dfc00417 	ldw	ra,16(sp)
   43198:	dcc00317 	ldw	r19,12(sp)
   4319c:	dc800217 	ldw	r18,8(sp)
   431a0:	dc400117 	ldw	r17,4(sp)
   431a4:	dc000017 	ldw	r16,0(sp)
   431a8:	dec00504 	addi	sp,sp,20
   431ac:	f800283a 	ret
   431b0:	0081ffc4 	movi	r2,2047
   431b4:	80bfd626 	beq	r16,r2,43110 <__alt_data_end+0xfffdc010>
   431b8:	4a402034 	orhi	r9,r9,128
   431bc:	00800e04 	movi	r2,56
   431c0:	10c09f16 	blt	r2,r3,43440 <__adddf3+0x3ac>
   431c4:	008007c4 	movi	r2,31
   431c8:	10c0c216 	blt	r2,r3,434d4 <__adddf3+0x440>
   431cc:	00800804 	movi	r2,32
   431d0:	10c5c83a 	sub	r2,r2,r3
   431d4:	488a983a 	sll	r5,r9,r2
   431d8:	30c8d83a 	srl	r4,r6,r3
   431dc:	3084983a 	sll	r2,r6,r2
   431e0:	48c6d83a 	srl	r3,r9,r3
   431e4:	290cb03a 	or	r6,r5,r4
   431e8:	1004c03a 	cmpne	r2,r2,zero
   431ec:	308cb03a 	or	r6,r6,r2
   431f0:	898dc83a 	sub	r6,r17,r6
   431f4:	89a3803a 	cmpltu	r17,r17,r6
   431f8:	40d1c83a 	sub	r8,r8,r3
   431fc:	4451c83a 	sub	r8,r8,r17
   43200:	3023883a 	mov	r17,r6
   43204:	4080202c 	andhi	r2,r8,128
   43208:	10002326 	beq	r2,zero,43298 <__adddf3+0x204>
   4320c:	04c02034 	movhi	r19,128
   43210:	9cffffc4 	addi	r19,r19,-1
   43214:	44e6703a 	and	r19,r8,r19
   43218:	98007626 	beq	r19,zero,433f4 <__adddf3+0x360>
   4321c:	9809883a 	mov	r4,r19
   43220:	00457b40 	call	457b4 <__clzsi2>
   43224:	10fffe04 	addi	r3,r2,-8
   43228:	010007c4 	movi	r4,31
   4322c:	20c07716 	blt	r4,r3,4340c <__adddf3+0x378>
   43230:	00800804 	movi	r2,32
   43234:	10c5c83a 	sub	r2,r2,r3
   43238:	8884d83a 	srl	r2,r17,r2
   4323c:	98d0983a 	sll	r8,r19,r3
   43240:	88e2983a 	sll	r17,r17,r3
   43244:	1204b03a 	or	r2,r2,r8
   43248:	1c007416 	blt	r3,r16,4341c <__adddf3+0x388>
   4324c:	1c21c83a 	sub	r16,r3,r16
   43250:	82000044 	addi	r8,r16,1
   43254:	00c007c4 	movi	r3,31
   43258:	1a009116 	blt	r3,r8,434a0 <__adddf3+0x40c>
   4325c:	00c00804 	movi	r3,32
   43260:	1a07c83a 	sub	r3,r3,r8
   43264:	8a08d83a 	srl	r4,r17,r8
   43268:	88e2983a 	sll	r17,r17,r3
   4326c:	10c6983a 	sll	r3,r2,r3
   43270:	1210d83a 	srl	r8,r2,r8
   43274:	8804c03a 	cmpne	r2,r17,zero
   43278:	1906b03a 	or	r3,r3,r4
   4327c:	18a2b03a 	or	r17,r3,r2
   43280:	0021883a 	mov	r16,zero
   43284:	003fa206 	br	43110 <__alt_data_end+0xfffdc010>
   43288:	1890b03a 	or	r8,r3,r2
   4328c:	40017d26 	beq	r8,zero,43884 <__adddf3+0x7f0>
   43290:	1011883a 	mov	r8,r2
   43294:	1823883a 	mov	r17,r3
   43298:	888001cc 	andi	r2,r17,7
   4329c:	103f9e1e 	bne	r2,zero,43118 <__alt_data_end+0xfffdc018>
   432a0:	4004977a 	slli	r2,r8,29
   432a4:	8822d0fa 	srli	r17,r17,3
   432a8:	4010d0fa 	srli	r8,r8,3
   432ac:	9007883a 	mov	r3,r18
   432b0:	1444b03a 	or	r2,r2,r17
   432b4:	0101ffc4 	movi	r4,2047
   432b8:	81002426 	beq	r16,r4,4334c <__adddf3+0x2b8>
   432bc:	8120703a 	and	r16,r16,r4
   432c0:	01000434 	movhi	r4,16
   432c4:	213fffc4 	addi	r4,r4,-1
   432c8:	4110703a 	and	r8,r8,r4
   432cc:	003fa806 	br	43170 <__alt_data_end+0xfffdc070>
   432d0:	8089c83a 	sub	r4,r16,r2
   432d4:	01005e0e 	bge	zero,r4,43450 <__adddf3+0x3bc>
   432d8:	10002b26 	beq	r2,zero,43388 <__adddf3+0x2f4>
   432dc:	0081ffc4 	movi	r2,2047
   432e0:	80bf8b26 	beq	r16,r2,43110 <__alt_data_end+0xfffdc010>
   432e4:	4a402034 	orhi	r9,r9,128
   432e8:	00800e04 	movi	r2,56
   432ec:	1100a40e 	bge	r2,r4,43580 <__adddf3+0x4ec>
   432f0:	498cb03a 	or	r6,r9,r6
   432f4:	300ac03a 	cmpne	r5,r6,zero
   432f8:	0013883a 	mov	r9,zero
   432fc:	2c4b883a 	add	r5,r5,r17
   43300:	2c63803a 	cmpltu	r17,r5,r17
   43304:	4a11883a 	add	r8,r9,r8
   43308:	8a11883a 	add	r8,r17,r8
   4330c:	2823883a 	mov	r17,r5
   43310:	4080202c 	andhi	r2,r8,128
   43314:	103fe026 	beq	r2,zero,43298 <__alt_data_end+0xfffdc198>
   43318:	84000044 	addi	r16,r16,1
   4331c:	0081ffc4 	movi	r2,2047
   43320:	8080d226 	beq	r16,r2,4366c <__adddf3+0x5d8>
   43324:	00bfe034 	movhi	r2,65408
   43328:	10bfffc4 	addi	r2,r2,-1
   4332c:	4090703a 	and	r8,r8,r2
   43330:	880ad07a 	srli	r5,r17,1
   43334:	400897fa 	slli	r4,r8,31
   43338:	88c0004c 	andi	r3,r17,1
   4333c:	28e2b03a 	or	r17,r5,r3
   43340:	4010d07a 	srli	r8,r8,1
   43344:	2462b03a 	or	r17,r4,r17
   43348:	003f7106 	br	43110 <__alt_data_end+0xfffdc010>
   4334c:	4088b03a 	or	r4,r8,r2
   43350:	20014526 	beq	r4,zero,43868 <__adddf3+0x7d4>
   43354:	01000434 	movhi	r4,16
   43358:	42000234 	orhi	r8,r8,8
   4335c:	213fffc4 	addi	r4,r4,-1
   43360:	4110703a 	and	r8,r8,r4
   43364:	003f8206 	br	43170 <__alt_data_end+0xfffdc070>
   43368:	18ffffc4 	addi	r3,r3,-1
   4336c:	1800491e 	bne	r3,zero,43494 <__adddf3+0x400>
   43370:	898bc83a 	sub	r5,r17,r6
   43374:	8963803a 	cmpltu	r17,r17,r5
   43378:	4251c83a 	sub	r8,r8,r9
   4337c:	4451c83a 	sub	r8,r8,r17
   43380:	2823883a 	mov	r17,r5
   43384:	003f9f06 	br	43204 <__alt_data_end+0xfffdc104>
   43388:	4984b03a 	or	r2,r9,r6
   4338c:	103f6026 	beq	r2,zero,43110 <__alt_data_end+0xfffdc010>
   43390:	213fffc4 	addi	r4,r4,-1
   43394:	2000931e 	bne	r4,zero,435e4 <__adddf3+0x550>
   43398:	898d883a 	add	r6,r17,r6
   4339c:	3463803a 	cmpltu	r17,r6,r17
   433a0:	4251883a 	add	r8,r8,r9
   433a4:	8a11883a 	add	r8,r17,r8
   433a8:	3023883a 	mov	r17,r6
   433ac:	003fd806 	br	43310 <__alt_data_end+0xfffdc210>
   433b0:	1800541e 	bne	r3,zero,43504 <__adddf3+0x470>
   433b4:	80800044 	addi	r2,r16,1
   433b8:	1081ffcc 	andi	r2,r2,2047
   433bc:	00c00044 	movi	r3,1
   433c0:	1880a00e 	bge	r3,r2,43644 <__adddf3+0x5b0>
   433c4:	8989c83a 	sub	r4,r17,r6
   433c8:	8905803a 	cmpltu	r2,r17,r4
   433cc:	4267c83a 	sub	r19,r8,r9
   433d0:	98a7c83a 	sub	r19,r19,r2
   433d4:	9880202c 	andhi	r2,r19,128
   433d8:	10006326 	beq	r2,zero,43568 <__adddf3+0x4d4>
   433dc:	3463c83a 	sub	r17,r6,r17
   433e0:	4a07c83a 	sub	r3,r9,r8
   433e4:	344d803a 	cmpltu	r6,r6,r17
   433e8:	19a7c83a 	sub	r19,r3,r6
   433ec:	3825883a 	mov	r18,r7
   433f0:	983f8a1e 	bne	r19,zero,4321c <__alt_data_end+0xfffdc11c>
   433f4:	8809883a 	mov	r4,r17
   433f8:	00457b40 	call	457b4 <__clzsi2>
   433fc:	10800804 	addi	r2,r2,32
   43400:	10fffe04 	addi	r3,r2,-8
   43404:	010007c4 	movi	r4,31
   43408:	20ff890e 	bge	r4,r3,43230 <__alt_data_end+0xfffdc130>
   4340c:	10bff604 	addi	r2,r2,-40
   43410:	8884983a 	sll	r2,r17,r2
   43414:	0023883a 	mov	r17,zero
   43418:	1c3f8c0e 	bge	r3,r16,4324c <__alt_data_end+0xfffdc14c>
   4341c:	023fe034 	movhi	r8,65408
   43420:	423fffc4 	addi	r8,r8,-1
   43424:	80e1c83a 	sub	r16,r16,r3
   43428:	1210703a 	and	r8,r2,r8
   4342c:	003f3806 	br	43110 <__alt_data_end+0xfffdc010>
   43430:	9007883a 	mov	r3,r18
   43434:	0011883a 	mov	r8,zero
   43438:	0005883a 	mov	r2,zero
   4343c:	003f4c06 	br	43170 <__alt_data_end+0xfffdc070>
   43440:	498cb03a 	or	r6,r9,r6
   43444:	300cc03a 	cmpne	r6,r6,zero
   43448:	0007883a 	mov	r3,zero
   4344c:	003f6806 	br	431f0 <__alt_data_end+0xfffdc0f0>
   43450:	20009c1e 	bne	r4,zero,436c4 <__adddf3+0x630>
   43454:	80800044 	addi	r2,r16,1
   43458:	1141ffcc 	andi	r5,r2,2047
   4345c:	01000044 	movi	r4,1
   43460:	2140670e 	bge	r4,r5,43600 <__adddf3+0x56c>
   43464:	0101ffc4 	movi	r4,2047
   43468:	11007f26 	beq	r2,r4,43668 <__adddf3+0x5d4>
   4346c:	898d883a 	add	r6,r17,r6
   43470:	4247883a 	add	r3,r8,r9
   43474:	3451803a 	cmpltu	r8,r6,r17
   43478:	40d1883a 	add	r8,r8,r3
   4347c:	402297fa 	slli	r17,r8,31
   43480:	300cd07a 	srli	r6,r6,1
   43484:	4010d07a 	srli	r8,r8,1
   43488:	1021883a 	mov	r16,r2
   4348c:	89a2b03a 	or	r17,r17,r6
   43490:	003f1f06 	br	43110 <__alt_data_end+0xfffdc010>
   43494:	0081ffc4 	movi	r2,2047
   43498:	80bf481e 	bne	r16,r2,431bc <__alt_data_end+0xfffdc0bc>
   4349c:	003f1c06 	br	43110 <__alt_data_end+0xfffdc010>
   434a0:	843ff844 	addi	r16,r16,-31
   434a4:	01000804 	movi	r4,32
   434a8:	1406d83a 	srl	r3,r2,r16
   434ac:	41005026 	beq	r8,r4,435f0 <__adddf3+0x55c>
   434b0:	01001004 	movi	r4,64
   434b4:	2211c83a 	sub	r8,r4,r8
   434b8:	1204983a 	sll	r2,r2,r8
   434bc:	88a2b03a 	or	r17,r17,r2
   434c0:	8822c03a 	cmpne	r17,r17,zero
   434c4:	1c62b03a 	or	r17,r3,r17
   434c8:	0011883a 	mov	r8,zero
   434cc:	0021883a 	mov	r16,zero
   434d0:	003f7106 	br	43298 <__alt_data_end+0xfffdc198>
   434d4:	193ff804 	addi	r4,r3,-32
   434d8:	00800804 	movi	r2,32
   434dc:	4908d83a 	srl	r4,r9,r4
   434e0:	18804526 	beq	r3,r2,435f8 <__adddf3+0x564>
   434e4:	00801004 	movi	r2,64
   434e8:	10c5c83a 	sub	r2,r2,r3
   434ec:	4886983a 	sll	r3,r9,r2
   434f0:	198cb03a 	or	r6,r3,r6
   434f4:	300cc03a 	cmpne	r6,r6,zero
   434f8:	218cb03a 	or	r6,r4,r6
   434fc:	0007883a 	mov	r3,zero
   43500:	003f3b06 	br	431f0 <__alt_data_end+0xfffdc0f0>
   43504:	80002a26 	beq	r16,zero,435b0 <__adddf3+0x51c>
   43508:	0101ffc4 	movi	r4,2047
   4350c:	11006826 	beq	r2,r4,436b0 <__adddf3+0x61c>
   43510:	00c7c83a 	sub	r3,zero,r3
   43514:	42002034 	orhi	r8,r8,128
   43518:	01000e04 	movi	r4,56
   4351c:	20c07c16 	blt	r4,r3,43710 <__adddf3+0x67c>
   43520:	010007c4 	movi	r4,31
   43524:	20c0da16 	blt	r4,r3,43890 <__adddf3+0x7fc>
   43528:	01000804 	movi	r4,32
   4352c:	20c9c83a 	sub	r4,r4,r3
   43530:	4114983a 	sll	r10,r8,r4
   43534:	88cad83a 	srl	r5,r17,r3
   43538:	8908983a 	sll	r4,r17,r4
   4353c:	40c6d83a 	srl	r3,r8,r3
   43540:	5162b03a 	or	r17,r10,r5
   43544:	2008c03a 	cmpne	r4,r4,zero
   43548:	8922b03a 	or	r17,r17,r4
   4354c:	3463c83a 	sub	r17,r6,r17
   43550:	48c7c83a 	sub	r3,r9,r3
   43554:	344d803a 	cmpltu	r6,r6,r17
   43558:	1991c83a 	sub	r8,r3,r6
   4355c:	1021883a 	mov	r16,r2
   43560:	3825883a 	mov	r18,r7
   43564:	003f2706 	br	43204 <__alt_data_end+0xfffdc104>
   43568:	24d0b03a 	or	r8,r4,r19
   4356c:	40001b1e 	bne	r8,zero,435dc <__adddf3+0x548>
   43570:	0005883a 	mov	r2,zero
   43574:	0007883a 	mov	r3,zero
   43578:	0021883a 	mov	r16,zero
   4357c:	003f4d06 	br	432b4 <__alt_data_end+0xfffdc1b4>
   43580:	008007c4 	movi	r2,31
   43584:	11003c16 	blt	r2,r4,43678 <__adddf3+0x5e4>
   43588:	00800804 	movi	r2,32
   4358c:	1105c83a 	sub	r2,r2,r4
   43590:	488e983a 	sll	r7,r9,r2
   43594:	310ad83a 	srl	r5,r6,r4
   43598:	3084983a 	sll	r2,r6,r2
   4359c:	4912d83a 	srl	r9,r9,r4
   435a0:	394ab03a 	or	r5,r7,r5
   435a4:	1004c03a 	cmpne	r2,r2,zero
   435a8:	288ab03a 	or	r5,r5,r2
   435ac:	003f5306 	br	432fc <__alt_data_end+0xfffdc1fc>
   435b0:	4448b03a 	or	r4,r8,r17
   435b4:	20003e26 	beq	r4,zero,436b0 <__adddf3+0x61c>
   435b8:	00c6303a 	nor	r3,zero,r3
   435bc:	18003a1e 	bne	r3,zero,436a8 <__adddf3+0x614>
   435c0:	3463c83a 	sub	r17,r6,r17
   435c4:	4a07c83a 	sub	r3,r9,r8
   435c8:	344d803a 	cmpltu	r6,r6,r17
   435cc:	1991c83a 	sub	r8,r3,r6
   435d0:	1021883a 	mov	r16,r2
   435d4:	3825883a 	mov	r18,r7
   435d8:	003f0a06 	br	43204 <__alt_data_end+0xfffdc104>
   435dc:	2023883a 	mov	r17,r4
   435e0:	003f0d06 	br	43218 <__alt_data_end+0xfffdc118>
   435e4:	0081ffc4 	movi	r2,2047
   435e8:	80bf3f1e 	bne	r16,r2,432e8 <__alt_data_end+0xfffdc1e8>
   435ec:	003ec806 	br	43110 <__alt_data_end+0xfffdc010>
   435f0:	0005883a 	mov	r2,zero
   435f4:	003fb106 	br	434bc <__alt_data_end+0xfffdc3bc>
   435f8:	0007883a 	mov	r3,zero
   435fc:	003fbc06 	br	434f0 <__alt_data_end+0xfffdc3f0>
   43600:	4444b03a 	or	r2,r8,r17
   43604:	8000871e 	bne	r16,zero,43824 <__adddf3+0x790>
   43608:	1000ba26 	beq	r2,zero,438f4 <__adddf3+0x860>
   4360c:	4984b03a 	or	r2,r9,r6
   43610:	103ebf26 	beq	r2,zero,43110 <__alt_data_end+0xfffdc010>
   43614:	8985883a 	add	r2,r17,r6
   43618:	4247883a 	add	r3,r8,r9
   4361c:	1451803a 	cmpltu	r8,r2,r17
   43620:	40d1883a 	add	r8,r8,r3
   43624:	40c0202c 	andhi	r3,r8,128
   43628:	1023883a 	mov	r17,r2
   4362c:	183f1a26 	beq	r3,zero,43298 <__alt_data_end+0xfffdc198>
   43630:	00bfe034 	movhi	r2,65408
   43634:	10bfffc4 	addi	r2,r2,-1
   43638:	2021883a 	mov	r16,r4
   4363c:	4090703a 	and	r8,r8,r2
   43640:	003eb306 	br	43110 <__alt_data_end+0xfffdc010>
   43644:	4444b03a 	or	r2,r8,r17
   43648:	8000291e 	bne	r16,zero,436f0 <__adddf3+0x65c>
   4364c:	10004b1e 	bne	r2,zero,4377c <__adddf3+0x6e8>
   43650:	4990b03a 	or	r8,r9,r6
   43654:	40008b26 	beq	r8,zero,43884 <__adddf3+0x7f0>
   43658:	4811883a 	mov	r8,r9
   4365c:	3023883a 	mov	r17,r6
   43660:	3825883a 	mov	r18,r7
   43664:	003eaa06 	br	43110 <__alt_data_end+0xfffdc010>
   43668:	1021883a 	mov	r16,r2
   4366c:	0011883a 	mov	r8,zero
   43670:	0005883a 	mov	r2,zero
   43674:	003f0f06 	br	432b4 <__alt_data_end+0xfffdc1b4>
   43678:	217ff804 	addi	r5,r4,-32
   4367c:	00800804 	movi	r2,32
   43680:	494ad83a 	srl	r5,r9,r5
   43684:	20807d26 	beq	r4,r2,4387c <__adddf3+0x7e8>
   43688:	00801004 	movi	r2,64
   4368c:	1109c83a 	sub	r4,r2,r4
   43690:	4912983a 	sll	r9,r9,r4
   43694:	498cb03a 	or	r6,r9,r6
   43698:	300cc03a 	cmpne	r6,r6,zero
   4369c:	298ab03a 	or	r5,r5,r6
   436a0:	0013883a 	mov	r9,zero
   436a4:	003f1506 	br	432fc <__alt_data_end+0xfffdc1fc>
   436a8:	0101ffc4 	movi	r4,2047
   436ac:	113f9a1e 	bne	r2,r4,43518 <__alt_data_end+0xfffdc418>
   436b0:	4811883a 	mov	r8,r9
   436b4:	3023883a 	mov	r17,r6
   436b8:	1021883a 	mov	r16,r2
   436bc:	3825883a 	mov	r18,r7
   436c0:	003e9306 	br	43110 <__alt_data_end+0xfffdc010>
   436c4:	8000161e 	bne	r16,zero,43720 <__adddf3+0x68c>
   436c8:	444ab03a 	or	r5,r8,r17
   436cc:	28005126 	beq	r5,zero,43814 <__adddf3+0x780>
   436d0:	0108303a 	nor	r4,zero,r4
   436d4:	20004d1e 	bne	r4,zero,4380c <__adddf3+0x778>
   436d8:	89a3883a 	add	r17,r17,r6
   436dc:	4253883a 	add	r9,r8,r9
   436e0:	898d803a 	cmpltu	r6,r17,r6
   436e4:	3251883a 	add	r8,r6,r9
   436e8:	1021883a 	mov	r16,r2
   436ec:	003f0806 	br	43310 <__alt_data_end+0xfffdc210>
   436f0:	1000301e 	bne	r2,zero,437b4 <__adddf3+0x720>
   436f4:	4984b03a 	or	r2,r9,r6
   436f8:	10007126 	beq	r2,zero,438c0 <__adddf3+0x82c>
   436fc:	4811883a 	mov	r8,r9
   43700:	3023883a 	mov	r17,r6
   43704:	3825883a 	mov	r18,r7
   43708:	0401ffc4 	movi	r16,2047
   4370c:	003e8006 	br	43110 <__alt_data_end+0xfffdc010>
   43710:	4462b03a 	or	r17,r8,r17
   43714:	8822c03a 	cmpne	r17,r17,zero
   43718:	0007883a 	mov	r3,zero
   4371c:	003f8b06 	br	4354c <__alt_data_end+0xfffdc44c>
   43720:	0141ffc4 	movi	r5,2047
   43724:	11403b26 	beq	r2,r5,43814 <__adddf3+0x780>
   43728:	0109c83a 	sub	r4,zero,r4
   4372c:	42002034 	orhi	r8,r8,128
   43730:	01400e04 	movi	r5,56
   43734:	29006716 	blt	r5,r4,438d4 <__adddf3+0x840>
   43738:	014007c4 	movi	r5,31
   4373c:	29007016 	blt	r5,r4,43900 <__adddf3+0x86c>
   43740:	01400804 	movi	r5,32
   43744:	290bc83a 	sub	r5,r5,r4
   43748:	4154983a 	sll	r10,r8,r5
   4374c:	890ed83a 	srl	r7,r17,r4
   43750:	894a983a 	sll	r5,r17,r5
   43754:	4108d83a 	srl	r4,r8,r4
   43758:	51e2b03a 	or	r17,r10,r7
   4375c:	280ac03a 	cmpne	r5,r5,zero
   43760:	8962b03a 	or	r17,r17,r5
   43764:	89a3883a 	add	r17,r17,r6
   43768:	2253883a 	add	r9,r4,r9
   4376c:	898d803a 	cmpltu	r6,r17,r6
   43770:	3251883a 	add	r8,r6,r9
   43774:	1021883a 	mov	r16,r2
   43778:	003ee506 	br	43310 <__alt_data_end+0xfffdc210>
   4377c:	4984b03a 	or	r2,r9,r6
   43780:	103e6326 	beq	r2,zero,43110 <__alt_data_end+0xfffdc010>
   43784:	8987c83a 	sub	r3,r17,r6
   43788:	88c9803a 	cmpltu	r4,r17,r3
   4378c:	4245c83a 	sub	r2,r8,r9
   43790:	1105c83a 	sub	r2,r2,r4
   43794:	1100202c 	andhi	r4,r2,128
   43798:	203ebb26 	beq	r4,zero,43288 <__alt_data_end+0xfffdc188>
   4379c:	3463c83a 	sub	r17,r6,r17
   437a0:	4a07c83a 	sub	r3,r9,r8
   437a4:	344d803a 	cmpltu	r6,r6,r17
   437a8:	1991c83a 	sub	r8,r3,r6
   437ac:	3825883a 	mov	r18,r7
   437b0:	003e5706 	br	43110 <__alt_data_end+0xfffdc010>
   437b4:	4984b03a 	or	r2,r9,r6
   437b8:	10002e26 	beq	r2,zero,43874 <__adddf3+0x7e0>
   437bc:	4004d0fa 	srli	r2,r8,3
   437c0:	8822d0fa 	srli	r17,r17,3
   437c4:	4010977a 	slli	r8,r8,29
   437c8:	10c0022c 	andhi	r3,r2,8
   437cc:	4462b03a 	or	r17,r8,r17
   437d0:	18000826 	beq	r3,zero,437f4 <__adddf3+0x760>
   437d4:	4808d0fa 	srli	r4,r9,3
   437d8:	20c0022c 	andhi	r3,r4,8
   437dc:	1800051e 	bne	r3,zero,437f4 <__adddf3+0x760>
   437e0:	300cd0fa 	srli	r6,r6,3
   437e4:	4806977a 	slli	r3,r9,29
   437e8:	2005883a 	mov	r2,r4
   437ec:	3825883a 	mov	r18,r7
   437f0:	19a2b03a 	or	r17,r3,r6
   437f4:	8810d77a 	srli	r8,r17,29
   437f8:	100490fa 	slli	r2,r2,3
   437fc:	882290fa 	slli	r17,r17,3
   43800:	0401ffc4 	movi	r16,2047
   43804:	4090b03a 	or	r8,r8,r2
   43808:	003e4106 	br	43110 <__alt_data_end+0xfffdc010>
   4380c:	0141ffc4 	movi	r5,2047
   43810:	117fc71e 	bne	r2,r5,43730 <__alt_data_end+0xfffdc630>
   43814:	4811883a 	mov	r8,r9
   43818:	3023883a 	mov	r17,r6
   4381c:	1021883a 	mov	r16,r2
   43820:	003e3b06 	br	43110 <__alt_data_end+0xfffdc010>
   43824:	10002f26 	beq	r2,zero,438e4 <__adddf3+0x850>
   43828:	4984b03a 	or	r2,r9,r6
   4382c:	10001126 	beq	r2,zero,43874 <__adddf3+0x7e0>
   43830:	4004d0fa 	srli	r2,r8,3
   43834:	8822d0fa 	srli	r17,r17,3
   43838:	4010977a 	slli	r8,r8,29
   4383c:	10c0022c 	andhi	r3,r2,8
   43840:	4462b03a 	or	r17,r8,r17
   43844:	183feb26 	beq	r3,zero,437f4 <__alt_data_end+0xfffdc6f4>
   43848:	4808d0fa 	srli	r4,r9,3
   4384c:	20c0022c 	andhi	r3,r4,8
   43850:	183fe81e 	bne	r3,zero,437f4 <__alt_data_end+0xfffdc6f4>
   43854:	300cd0fa 	srli	r6,r6,3
   43858:	4806977a 	slli	r3,r9,29
   4385c:	2005883a 	mov	r2,r4
   43860:	19a2b03a 	or	r17,r3,r6
   43864:	003fe306 	br	437f4 <__alt_data_end+0xfffdc6f4>
   43868:	0011883a 	mov	r8,zero
   4386c:	0005883a 	mov	r2,zero
   43870:	003e3f06 	br	43170 <__alt_data_end+0xfffdc070>
   43874:	0401ffc4 	movi	r16,2047
   43878:	003e2506 	br	43110 <__alt_data_end+0xfffdc010>
   4387c:	0013883a 	mov	r9,zero
   43880:	003f8406 	br	43694 <__alt_data_end+0xfffdc594>
   43884:	0005883a 	mov	r2,zero
   43888:	0007883a 	mov	r3,zero
   4388c:	003e8906 	br	432b4 <__alt_data_end+0xfffdc1b4>
   43890:	197ff804 	addi	r5,r3,-32
   43894:	01000804 	movi	r4,32
   43898:	414ad83a 	srl	r5,r8,r5
   4389c:	19002426 	beq	r3,r4,43930 <__adddf3+0x89c>
   438a0:	01001004 	movi	r4,64
   438a4:	20c7c83a 	sub	r3,r4,r3
   438a8:	40c6983a 	sll	r3,r8,r3
   438ac:	1c46b03a 	or	r3,r3,r17
   438b0:	1806c03a 	cmpne	r3,r3,zero
   438b4:	28e2b03a 	or	r17,r5,r3
   438b8:	0007883a 	mov	r3,zero
   438bc:	003f2306 	br	4354c <__alt_data_end+0xfffdc44c>
   438c0:	0007883a 	mov	r3,zero
   438c4:	5811883a 	mov	r8,r11
   438c8:	00bfffc4 	movi	r2,-1
   438cc:	0401ffc4 	movi	r16,2047
   438d0:	003e7806 	br	432b4 <__alt_data_end+0xfffdc1b4>
   438d4:	4462b03a 	or	r17,r8,r17
   438d8:	8822c03a 	cmpne	r17,r17,zero
   438dc:	0009883a 	mov	r4,zero
   438e0:	003fa006 	br	43764 <__alt_data_end+0xfffdc664>
   438e4:	4811883a 	mov	r8,r9
   438e8:	3023883a 	mov	r17,r6
   438ec:	0401ffc4 	movi	r16,2047
   438f0:	003e0706 	br	43110 <__alt_data_end+0xfffdc010>
   438f4:	4811883a 	mov	r8,r9
   438f8:	3023883a 	mov	r17,r6
   438fc:	003e0406 	br	43110 <__alt_data_end+0xfffdc010>
   43900:	21fff804 	addi	r7,r4,-32
   43904:	01400804 	movi	r5,32
   43908:	41ced83a 	srl	r7,r8,r7
   4390c:	21400a26 	beq	r4,r5,43938 <__adddf3+0x8a4>
   43910:	01401004 	movi	r5,64
   43914:	2909c83a 	sub	r4,r5,r4
   43918:	4108983a 	sll	r4,r8,r4
   4391c:	2448b03a 	or	r4,r4,r17
   43920:	2008c03a 	cmpne	r4,r4,zero
   43924:	3922b03a 	or	r17,r7,r4
   43928:	0009883a 	mov	r4,zero
   4392c:	003f8d06 	br	43764 <__alt_data_end+0xfffdc664>
   43930:	0007883a 	mov	r3,zero
   43934:	003fdd06 	br	438ac <__alt_data_end+0xfffdc7ac>
   43938:	0009883a 	mov	r4,zero
   4393c:	003ff706 	br	4391c <__alt_data_end+0xfffdc81c>

00043940 <__divdf3>:
   43940:	defff204 	addi	sp,sp,-56
   43944:	dd400915 	stw	r21,36(sp)
   43948:	282ad53a 	srli	r21,r5,20
   4394c:	dd000815 	stw	r20,32(sp)
   43950:	2828d7fa 	srli	r20,r5,31
   43954:	dc000415 	stw	r16,16(sp)
   43958:	04000434 	movhi	r16,16
   4395c:	df000c15 	stw	fp,48(sp)
   43960:	843fffc4 	addi	r16,r16,-1
   43964:	dfc00d15 	stw	ra,52(sp)
   43968:	ddc00b15 	stw	r23,44(sp)
   4396c:	dd800a15 	stw	r22,40(sp)
   43970:	dcc00715 	stw	r19,28(sp)
   43974:	dc800615 	stw	r18,24(sp)
   43978:	dc400515 	stw	r17,20(sp)
   4397c:	ad41ffcc 	andi	r21,r21,2047
   43980:	2c20703a 	and	r16,r5,r16
   43984:	a7003fcc 	andi	fp,r20,255
   43988:	a8006126 	beq	r21,zero,43b10 <__divdf3+0x1d0>
   4398c:	0081ffc4 	movi	r2,2047
   43990:	2025883a 	mov	r18,r4
   43994:	a8803726 	beq	r21,r2,43a74 <__divdf3+0x134>
   43998:	80800434 	orhi	r2,r16,16
   4399c:	100490fa 	slli	r2,r2,3
   439a0:	2020d77a 	srli	r16,r4,29
   439a4:	202490fa 	slli	r18,r4,3
   439a8:	ad7f0044 	addi	r21,r21,-1023
   439ac:	80a0b03a 	or	r16,r16,r2
   439b0:	0027883a 	mov	r19,zero
   439b4:	0013883a 	mov	r9,zero
   439b8:	3804d53a 	srli	r2,r7,20
   439bc:	382cd7fa 	srli	r22,r7,31
   439c0:	04400434 	movhi	r17,16
   439c4:	8c7fffc4 	addi	r17,r17,-1
   439c8:	1081ffcc 	andi	r2,r2,2047
   439cc:	3011883a 	mov	r8,r6
   439d0:	3c62703a 	and	r17,r7,r17
   439d4:	b5c03fcc 	andi	r23,r22,255
   439d8:	10006c26 	beq	r2,zero,43b8c <__divdf3+0x24c>
   439dc:	00c1ffc4 	movi	r3,2047
   439e0:	10c06426 	beq	r2,r3,43b74 <__divdf3+0x234>
   439e4:	88c00434 	orhi	r3,r17,16
   439e8:	180690fa 	slli	r3,r3,3
   439ec:	3022d77a 	srli	r17,r6,29
   439f0:	301090fa 	slli	r8,r6,3
   439f4:	10bf0044 	addi	r2,r2,-1023
   439f8:	88e2b03a 	or	r17,r17,r3
   439fc:	000f883a 	mov	r7,zero
   43a00:	a58cf03a 	xor	r6,r20,r22
   43a04:	3cc8b03a 	or	r4,r7,r19
   43a08:	a8abc83a 	sub	r21,r21,r2
   43a0c:	008003c4 	movi	r2,15
   43a10:	3007883a 	mov	r3,r6
   43a14:	34c03fcc 	andi	r19,r6,255
   43a18:	11009036 	bltu	r2,r4,43c5c <__divdf3+0x31c>
   43a1c:	200890ba 	slli	r4,r4,2
   43a20:	00800134 	movhi	r2,4
   43a24:	108e8d04 	addi	r2,r2,14900
   43a28:	2089883a 	add	r4,r4,r2
   43a2c:	20800017 	ldw	r2,0(r4)
   43a30:	1000683a 	jmp	r2
   43a34:	00043c5c 	xori	zero,zero,4337
   43a38:	00043aac 	andhi	zero,zero,4330
   43a3c:	00043c4c 	andi	zero,zero,4337
   43a40:	00043aa0 	cmpeqi	zero,zero,4330
   43a44:	00043c4c 	andi	zero,zero,4337
   43a48:	00043c20 	cmpeqi	zero,zero,4336
   43a4c:	00043c4c 	andi	zero,zero,4337
   43a50:	00043aa0 	cmpeqi	zero,zero,4330
   43a54:	00043aac 	andhi	zero,zero,4330
   43a58:	00043aac 	andhi	zero,zero,4330
   43a5c:	00043c20 	cmpeqi	zero,zero,4336
   43a60:	00043aa0 	cmpeqi	zero,zero,4330
   43a64:	00043a90 	cmplti	zero,zero,4330
   43a68:	00043a90 	cmplti	zero,zero,4330
   43a6c:	00043a90 	cmplti	zero,zero,4330
   43a70:	00043f40 	call	43f4 <__alt_mem_onchip_memory2-0x3bc0c>
   43a74:	2404b03a 	or	r2,r4,r16
   43a78:	1000661e 	bne	r2,zero,43c14 <__divdf3+0x2d4>
   43a7c:	04c00204 	movi	r19,8
   43a80:	0021883a 	mov	r16,zero
   43a84:	0025883a 	mov	r18,zero
   43a88:	02400084 	movi	r9,2
   43a8c:	003fca06 	br	439b8 <__alt_data_end+0xfffdc8b8>
   43a90:	8023883a 	mov	r17,r16
   43a94:	9011883a 	mov	r8,r18
   43a98:	e02f883a 	mov	r23,fp
   43a9c:	480f883a 	mov	r7,r9
   43aa0:	00800084 	movi	r2,2
   43aa4:	3881311e 	bne	r7,r2,43f6c <__divdf3+0x62c>
   43aa8:	b827883a 	mov	r19,r23
   43aac:	98c0004c 	andi	r3,r19,1
   43ab0:	0081ffc4 	movi	r2,2047
   43ab4:	000b883a 	mov	r5,zero
   43ab8:	0025883a 	mov	r18,zero
   43abc:	1004953a 	slli	r2,r2,20
   43ac0:	18c03fcc 	andi	r3,r3,255
   43ac4:	04400434 	movhi	r17,16
   43ac8:	8c7fffc4 	addi	r17,r17,-1
   43acc:	180697fa 	slli	r3,r3,31
   43ad0:	2c4a703a 	and	r5,r5,r17
   43ad4:	288ab03a 	or	r5,r5,r2
   43ad8:	28c6b03a 	or	r3,r5,r3
   43adc:	9005883a 	mov	r2,r18
   43ae0:	dfc00d17 	ldw	ra,52(sp)
   43ae4:	df000c17 	ldw	fp,48(sp)
   43ae8:	ddc00b17 	ldw	r23,44(sp)
   43aec:	dd800a17 	ldw	r22,40(sp)
   43af0:	dd400917 	ldw	r21,36(sp)
   43af4:	dd000817 	ldw	r20,32(sp)
   43af8:	dcc00717 	ldw	r19,28(sp)
   43afc:	dc800617 	ldw	r18,24(sp)
   43b00:	dc400517 	ldw	r17,20(sp)
   43b04:	dc000417 	ldw	r16,16(sp)
   43b08:	dec00e04 	addi	sp,sp,56
   43b0c:	f800283a 	ret
   43b10:	2404b03a 	or	r2,r4,r16
   43b14:	2027883a 	mov	r19,r4
   43b18:	10003926 	beq	r2,zero,43c00 <__divdf3+0x2c0>
   43b1c:	80012e26 	beq	r16,zero,43fd8 <__divdf3+0x698>
   43b20:	8009883a 	mov	r4,r16
   43b24:	d9800315 	stw	r6,12(sp)
   43b28:	d9c00215 	stw	r7,8(sp)
   43b2c:	00457b40 	call	457b4 <__clzsi2>
   43b30:	d9800317 	ldw	r6,12(sp)
   43b34:	d9c00217 	ldw	r7,8(sp)
   43b38:	113ffd44 	addi	r4,r2,-11
   43b3c:	00c00704 	movi	r3,28
   43b40:	19012116 	blt	r3,r4,43fc8 <__divdf3+0x688>
   43b44:	00c00744 	movi	r3,29
   43b48:	147ffe04 	addi	r17,r2,-8
   43b4c:	1907c83a 	sub	r3,r3,r4
   43b50:	8460983a 	sll	r16,r16,r17
   43b54:	98c6d83a 	srl	r3,r19,r3
   43b58:	9c64983a 	sll	r18,r19,r17
   43b5c:	1c20b03a 	or	r16,r3,r16
   43b60:	1080fcc4 	addi	r2,r2,1011
   43b64:	00abc83a 	sub	r21,zero,r2
   43b68:	0027883a 	mov	r19,zero
   43b6c:	0013883a 	mov	r9,zero
   43b70:	003f9106 	br	439b8 <__alt_data_end+0xfffdc8b8>
   43b74:	3446b03a 	or	r3,r6,r17
   43b78:	18001f1e 	bne	r3,zero,43bf8 <__divdf3+0x2b8>
   43b7c:	0023883a 	mov	r17,zero
   43b80:	0011883a 	mov	r8,zero
   43b84:	01c00084 	movi	r7,2
   43b88:	003f9d06 	br	43a00 <__alt_data_end+0xfffdc900>
   43b8c:	3446b03a 	or	r3,r6,r17
   43b90:	18001526 	beq	r3,zero,43be8 <__divdf3+0x2a8>
   43b94:	88011b26 	beq	r17,zero,44004 <__divdf3+0x6c4>
   43b98:	8809883a 	mov	r4,r17
   43b9c:	d9800315 	stw	r6,12(sp)
   43ba0:	da400115 	stw	r9,4(sp)
   43ba4:	00457b40 	call	457b4 <__clzsi2>
   43ba8:	d9800317 	ldw	r6,12(sp)
   43bac:	da400117 	ldw	r9,4(sp)
   43bb0:	113ffd44 	addi	r4,r2,-11
   43bb4:	00c00704 	movi	r3,28
   43bb8:	19010e16 	blt	r3,r4,43ff4 <__divdf3+0x6b4>
   43bbc:	00c00744 	movi	r3,29
   43bc0:	123ffe04 	addi	r8,r2,-8
   43bc4:	1907c83a 	sub	r3,r3,r4
   43bc8:	8a22983a 	sll	r17,r17,r8
   43bcc:	30c6d83a 	srl	r3,r6,r3
   43bd0:	3210983a 	sll	r8,r6,r8
   43bd4:	1c62b03a 	or	r17,r3,r17
   43bd8:	1080fcc4 	addi	r2,r2,1011
   43bdc:	0085c83a 	sub	r2,zero,r2
   43be0:	000f883a 	mov	r7,zero
   43be4:	003f8606 	br	43a00 <__alt_data_end+0xfffdc900>
   43be8:	0023883a 	mov	r17,zero
   43bec:	0011883a 	mov	r8,zero
   43bf0:	01c00044 	movi	r7,1
   43bf4:	003f8206 	br	43a00 <__alt_data_end+0xfffdc900>
   43bf8:	01c000c4 	movi	r7,3
   43bfc:	003f8006 	br	43a00 <__alt_data_end+0xfffdc900>
   43c00:	04c00104 	movi	r19,4
   43c04:	0021883a 	mov	r16,zero
   43c08:	0025883a 	mov	r18,zero
   43c0c:	02400044 	movi	r9,1
   43c10:	003f6906 	br	439b8 <__alt_data_end+0xfffdc8b8>
   43c14:	04c00304 	movi	r19,12
   43c18:	024000c4 	movi	r9,3
   43c1c:	003f6606 	br	439b8 <__alt_data_end+0xfffdc8b8>
   43c20:	01400434 	movhi	r5,16
   43c24:	0007883a 	mov	r3,zero
   43c28:	297fffc4 	addi	r5,r5,-1
   43c2c:	04bfffc4 	movi	r18,-1
   43c30:	0081ffc4 	movi	r2,2047
   43c34:	003fa106 	br	43abc <__alt_data_end+0xfffdc9bc>
   43c38:	00c00044 	movi	r3,1
   43c3c:	1887c83a 	sub	r3,r3,r2
   43c40:	01000e04 	movi	r4,56
   43c44:	20c1210e 	bge	r4,r3,440cc <__divdf3+0x78c>
   43c48:	98c0004c 	andi	r3,r19,1
   43c4c:	0005883a 	mov	r2,zero
   43c50:	000b883a 	mov	r5,zero
   43c54:	0025883a 	mov	r18,zero
   43c58:	003f9806 	br	43abc <__alt_data_end+0xfffdc9bc>
   43c5c:	8c00fd36 	bltu	r17,r16,44054 <__divdf3+0x714>
   43c60:	8440fb26 	beq	r16,r17,44050 <__divdf3+0x710>
   43c64:	8007883a 	mov	r3,r16
   43c68:	ad7fffc4 	addi	r21,r21,-1
   43c6c:	0021883a 	mov	r16,zero
   43c70:	4004d63a 	srli	r2,r8,24
   43c74:	8822923a 	slli	r17,r17,8
   43c78:	1809883a 	mov	r4,r3
   43c7c:	402c923a 	slli	r22,r8,8
   43c80:	88b8b03a 	or	fp,r17,r2
   43c84:	e028d43a 	srli	r20,fp,16
   43c88:	d8c00015 	stw	r3,0(sp)
   43c8c:	e5ffffcc 	andi	r23,fp,65535
   43c90:	a00b883a 	mov	r5,r20
   43c94:	00425800 	call	42580 <__udivsi3>
   43c98:	d8c00017 	ldw	r3,0(sp)
   43c9c:	a00b883a 	mov	r5,r20
   43ca0:	d8800315 	stw	r2,12(sp)
   43ca4:	1809883a 	mov	r4,r3
   43ca8:	00425e40 	call	425e4 <__umodsi3>
   43cac:	d9800317 	ldw	r6,12(sp)
   43cb0:	1006943a 	slli	r3,r2,16
   43cb4:	9004d43a 	srli	r2,r18,16
   43cb8:	b9a3383a 	mul	r17,r23,r6
   43cbc:	10c4b03a 	or	r2,r2,r3
   43cc0:	1440062e 	bgeu	r2,r17,43cdc <__divdf3+0x39c>
   43cc4:	1705883a 	add	r2,r2,fp
   43cc8:	30ffffc4 	addi	r3,r6,-1
   43ccc:	1700ee36 	bltu	r2,fp,44088 <__divdf3+0x748>
   43cd0:	1440ed2e 	bgeu	r2,r17,44088 <__divdf3+0x748>
   43cd4:	31bfff84 	addi	r6,r6,-2
   43cd8:	1705883a 	add	r2,r2,fp
   43cdc:	1463c83a 	sub	r17,r2,r17
   43ce0:	a00b883a 	mov	r5,r20
   43ce4:	8809883a 	mov	r4,r17
   43ce8:	d9800315 	stw	r6,12(sp)
   43cec:	00425800 	call	42580 <__udivsi3>
   43cf0:	a00b883a 	mov	r5,r20
   43cf4:	8809883a 	mov	r4,r17
   43cf8:	d8800215 	stw	r2,8(sp)
   43cfc:	00425e40 	call	425e4 <__umodsi3>
   43d00:	d9c00217 	ldw	r7,8(sp)
   43d04:	1004943a 	slli	r2,r2,16
   43d08:	94bfffcc 	andi	r18,r18,65535
   43d0c:	b9d1383a 	mul	r8,r23,r7
   43d10:	90a4b03a 	or	r18,r18,r2
   43d14:	d9800317 	ldw	r6,12(sp)
   43d18:	9200062e 	bgeu	r18,r8,43d34 <__divdf3+0x3f4>
   43d1c:	9725883a 	add	r18,r18,fp
   43d20:	38bfffc4 	addi	r2,r7,-1
   43d24:	9700d636 	bltu	r18,fp,44080 <__divdf3+0x740>
   43d28:	9200d52e 	bgeu	r18,r8,44080 <__divdf3+0x740>
   43d2c:	39ffff84 	addi	r7,r7,-2
   43d30:	9725883a 	add	r18,r18,fp
   43d34:	3004943a 	slli	r2,r6,16
   43d38:	b012d43a 	srli	r9,r22,16
   43d3c:	b1bfffcc 	andi	r6,r22,65535
   43d40:	11e2b03a 	or	r17,r2,r7
   43d44:	8806d43a 	srli	r3,r17,16
   43d48:	893fffcc 	andi	r4,r17,65535
   43d4c:	218b383a 	mul	r5,r4,r6
   43d50:	30c5383a 	mul	r2,r6,r3
   43d54:	2249383a 	mul	r4,r4,r9
   43d58:	280ed43a 	srli	r7,r5,16
   43d5c:	9225c83a 	sub	r18,r18,r8
   43d60:	2089883a 	add	r4,r4,r2
   43d64:	3909883a 	add	r4,r7,r4
   43d68:	1a47383a 	mul	r3,r3,r9
   43d6c:	2080022e 	bgeu	r4,r2,43d78 <__divdf3+0x438>
   43d70:	00800074 	movhi	r2,1
   43d74:	1887883a 	add	r3,r3,r2
   43d78:	2004d43a 	srli	r2,r4,16
   43d7c:	2008943a 	slli	r4,r4,16
   43d80:	297fffcc 	andi	r5,r5,65535
   43d84:	10c7883a 	add	r3,r2,r3
   43d88:	2149883a 	add	r4,r4,r5
   43d8c:	90c0a536 	bltu	r18,r3,44024 <__divdf3+0x6e4>
   43d90:	90c0bf26 	beq	r18,r3,44090 <__divdf3+0x750>
   43d94:	90c7c83a 	sub	r3,r18,r3
   43d98:	810fc83a 	sub	r7,r16,r4
   43d9c:	81e5803a 	cmpltu	r18,r16,r7
   43da0:	1ca5c83a 	sub	r18,r3,r18
   43da4:	e480c126 	beq	fp,r18,440ac <__divdf3+0x76c>
   43da8:	a00b883a 	mov	r5,r20
   43dac:	9009883a 	mov	r4,r18
   43db0:	d9800315 	stw	r6,12(sp)
   43db4:	d9c00215 	stw	r7,8(sp)
   43db8:	da400115 	stw	r9,4(sp)
   43dbc:	00425800 	call	42580 <__udivsi3>
   43dc0:	a00b883a 	mov	r5,r20
   43dc4:	9009883a 	mov	r4,r18
   43dc8:	d8800015 	stw	r2,0(sp)
   43dcc:	00425e40 	call	425e4 <__umodsi3>
   43dd0:	d9c00217 	ldw	r7,8(sp)
   43dd4:	da000017 	ldw	r8,0(sp)
   43dd8:	1006943a 	slli	r3,r2,16
   43ddc:	3804d43a 	srli	r2,r7,16
   43de0:	ba21383a 	mul	r16,r23,r8
   43de4:	d9800317 	ldw	r6,12(sp)
   43de8:	10c4b03a 	or	r2,r2,r3
   43dec:	da400117 	ldw	r9,4(sp)
   43df0:	1400062e 	bgeu	r2,r16,43e0c <__divdf3+0x4cc>
   43df4:	1705883a 	add	r2,r2,fp
   43df8:	40ffffc4 	addi	r3,r8,-1
   43dfc:	1700ad36 	bltu	r2,fp,440b4 <__divdf3+0x774>
   43e00:	1400ac2e 	bgeu	r2,r16,440b4 <__divdf3+0x774>
   43e04:	423fff84 	addi	r8,r8,-2
   43e08:	1705883a 	add	r2,r2,fp
   43e0c:	1421c83a 	sub	r16,r2,r16
   43e10:	a00b883a 	mov	r5,r20
   43e14:	8009883a 	mov	r4,r16
   43e18:	d9800315 	stw	r6,12(sp)
   43e1c:	d9c00215 	stw	r7,8(sp)
   43e20:	da000015 	stw	r8,0(sp)
   43e24:	da400115 	stw	r9,4(sp)
   43e28:	00425800 	call	42580 <__udivsi3>
   43e2c:	8009883a 	mov	r4,r16
   43e30:	a00b883a 	mov	r5,r20
   43e34:	1025883a 	mov	r18,r2
   43e38:	00425e40 	call	425e4 <__umodsi3>
   43e3c:	d9c00217 	ldw	r7,8(sp)
   43e40:	1004943a 	slli	r2,r2,16
   43e44:	bcaf383a 	mul	r23,r23,r18
   43e48:	393fffcc 	andi	r4,r7,65535
   43e4c:	2088b03a 	or	r4,r4,r2
   43e50:	d9800317 	ldw	r6,12(sp)
   43e54:	da000017 	ldw	r8,0(sp)
   43e58:	da400117 	ldw	r9,4(sp)
   43e5c:	25c0062e 	bgeu	r4,r23,43e78 <__divdf3+0x538>
   43e60:	2709883a 	add	r4,r4,fp
   43e64:	90bfffc4 	addi	r2,r18,-1
   43e68:	27009436 	bltu	r4,fp,440bc <__divdf3+0x77c>
   43e6c:	25c0932e 	bgeu	r4,r23,440bc <__divdf3+0x77c>
   43e70:	94bfff84 	addi	r18,r18,-2
   43e74:	2709883a 	add	r4,r4,fp
   43e78:	4004943a 	slli	r2,r8,16
   43e7c:	25efc83a 	sub	r23,r4,r23
   43e80:	1490b03a 	or	r8,r2,r18
   43e84:	4008d43a 	srli	r4,r8,16
   43e88:	40ffffcc 	andi	r3,r8,65535
   43e8c:	30c5383a 	mul	r2,r6,r3
   43e90:	1a47383a 	mul	r3,r3,r9
   43e94:	310d383a 	mul	r6,r6,r4
   43e98:	100ad43a 	srli	r5,r2,16
   43e9c:	4913383a 	mul	r9,r9,r4
   43ea0:	1987883a 	add	r3,r3,r6
   43ea4:	28c7883a 	add	r3,r5,r3
   43ea8:	1980022e 	bgeu	r3,r6,43eb4 <__divdf3+0x574>
   43eac:	01000074 	movhi	r4,1
   43eb0:	4913883a 	add	r9,r9,r4
   43eb4:	1808d43a 	srli	r4,r3,16
   43eb8:	1806943a 	slli	r3,r3,16
   43ebc:	10bfffcc 	andi	r2,r2,65535
   43ec0:	2253883a 	add	r9,r4,r9
   43ec4:	1887883a 	add	r3,r3,r2
   43ec8:	ba403836 	bltu	r23,r9,43fac <__divdf3+0x66c>
   43ecc:	ba403626 	beq	r23,r9,43fa8 <__divdf3+0x668>
   43ed0:	42000054 	ori	r8,r8,1
   43ed4:	a880ffc4 	addi	r2,r21,1023
   43ed8:	00bf570e 	bge	zero,r2,43c38 <__alt_data_end+0xfffdcb38>
   43edc:	40c001cc 	andi	r3,r8,7
   43ee0:	18000726 	beq	r3,zero,43f00 <__divdf3+0x5c0>
   43ee4:	40c003cc 	andi	r3,r8,15
   43ee8:	01000104 	movi	r4,4
   43eec:	19000426 	beq	r3,r4,43f00 <__divdf3+0x5c0>
   43ef0:	4107883a 	add	r3,r8,r4
   43ef4:	1a11803a 	cmpltu	r8,r3,r8
   43ef8:	8a23883a 	add	r17,r17,r8
   43efc:	1811883a 	mov	r8,r3
   43f00:	88c0402c 	andhi	r3,r17,256
   43f04:	18000426 	beq	r3,zero,43f18 <__divdf3+0x5d8>
   43f08:	00ffc034 	movhi	r3,65280
   43f0c:	18ffffc4 	addi	r3,r3,-1
   43f10:	a8810004 	addi	r2,r21,1024
   43f14:	88e2703a 	and	r17,r17,r3
   43f18:	00c1ff84 	movi	r3,2046
   43f1c:	18bee316 	blt	r3,r2,43aac <__alt_data_end+0xfffdc9ac>
   43f20:	8824977a 	slli	r18,r17,29
   43f24:	4010d0fa 	srli	r8,r8,3
   43f28:	8822927a 	slli	r17,r17,9
   43f2c:	1081ffcc 	andi	r2,r2,2047
   43f30:	9224b03a 	or	r18,r18,r8
   43f34:	880ad33a 	srli	r5,r17,12
   43f38:	98c0004c 	andi	r3,r19,1
   43f3c:	003edf06 	br	43abc <__alt_data_end+0xfffdc9bc>
   43f40:	8080022c 	andhi	r2,r16,8
   43f44:	10001226 	beq	r2,zero,43f90 <__divdf3+0x650>
   43f48:	8880022c 	andhi	r2,r17,8
   43f4c:	1000101e 	bne	r2,zero,43f90 <__divdf3+0x650>
   43f50:	00800434 	movhi	r2,16
   43f54:	89400234 	orhi	r5,r17,8
   43f58:	10bfffc4 	addi	r2,r2,-1
   43f5c:	b007883a 	mov	r3,r22
   43f60:	288a703a 	and	r5,r5,r2
   43f64:	4025883a 	mov	r18,r8
   43f68:	003f3106 	br	43c30 <__alt_data_end+0xfffdcb30>
   43f6c:	008000c4 	movi	r2,3
   43f70:	3880a626 	beq	r7,r2,4420c <__divdf3+0x8cc>
   43f74:	00800044 	movi	r2,1
   43f78:	3880521e 	bne	r7,r2,440c4 <__divdf3+0x784>
   43f7c:	b807883a 	mov	r3,r23
   43f80:	0005883a 	mov	r2,zero
   43f84:	000b883a 	mov	r5,zero
   43f88:	0025883a 	mov	r18,zero
   43f8c:	003ecb06 	br	43abc <__alt_data_end+0xfffdc9bc>
   43f90:	00800434 	movhi	r2,16
   43f94:	81400234 	orhi	r5,r16,8
   43f98:	10bfffc4 	addi	r2,r2,-1
   43f9c:	a007883a 	mov	r3,r20
   43fa0:	288a703a 	and	r5,r5,r2
   43fa4:	003f2206 	br	43c30 <__alt_data_end+0xfffdcb30>
   43fa8:	183fca26 	beq	r3,zero,43ed4 <__alt_data_end+0xfffdcdd4>
   43fac:	e5ef883a 	add	r23,fp,r23
   43fb0:	40bfffc4 	addi	r2,r8,-1
   43fb4:	bf00392e 	bgeu	r23,fp,4409c <__divdf3+0x75c>
   43fb8:	1011883a 	mov	r8,r2
   43fbc:	ba7fc41e 	bne	r23,r9,43ed0 <__alt_data_end+0xfffdcdd0>
   43fc0:	b0ffc31e 	bne	r22,r3,43ed0 <__alt_data_end+0xfffdcdd0>
   43fc4:	003fc306 	br	43ed4 <__alt_data_end+0xfffdcdd4>
   43fc8:	143ff604 	addi	r16,r2,-40
   43fcc:	9c20983a 	sll	r16,r19,r16
   43fd0:	0025883a 	mov	r18,zero
   43fd4:	003ee206 	br	43b60 <__alt_data_end+0xfffdca60>
   43fd8:	d9800315 	stw	r6,12(sp)
   43fdc:	d9c00215 	stw	r7,8(sp)
   43fe0:	00457b40 	call	457b4 <__clzsi2>
   43fe4:	10800804 	addi	r2,r2,32
   43fe8:	d9c00217 	ldw	r7,8(sp)
   43fec:	d9800317 	ldw	r6,12(sp)
   43ff0:	003ed106 	br	43b38 <__alt_data_end+0xfffdca38>
   43ff4:	147ff604 	addi	r17,r2,-40
   43ff8:	3462983a 	sll	r17,r6,r17
   43ffc:	0011883a 	mov	r8,zero
   44000:	003ef506 	br	43bd8 <__alt_data_end+0xfffdcad8>
   44004:	3009883a 	mov	r4,r6
   44008:	d9800315 	stw	r6,12(sp)
   4400c:	da400115 	stw	r9,4(sp)
   44010:	00457b40 	call	457b4 <__clzsi2>
   44014:	10800804 	addi	r2,r2,32
   44018:	da400117 	ldw	r9,4(sp)
   4401c:	d9800317 	ldw	r6,12(sp)
   44020:	003ee306 	br	43bb0 <__alt_data_end+0xfffdcab0>
   44024:	85a1883a 	add	r16,r16,r22
   44028:	8585803a 	cmpltu	r2,r16,r22
   4402c:	1705883a 	add	r2,r2,fp
   44030:	14a5883a 	add	r18,r2,r18
   44034:	88bfffc4 	addi	r2,r17,-1
   44038:	e4800c2e 	bgeu	fp,r18,4406c <__divdf3+0x72c>
   4403c:	90c03e36 	bltu	r18,r3,44138 <__divdf3+0x7f8>
   44040:	1c806926 	beq	r3,r18,441e8 <__divdf3+0x8a8>
   44044:	90c7c83a 	sub	r3,r18,r3
   44048:	1023883a 	mov	r17,r2
   4404c:	003f5206 	br	43d98 <__alt_data_end+0xfffdcc98>
   44050:	923f0436 	bltu	r18,r8,43c64 <__alt_data_end+0xfffdcb64>
   44054:	800897fa 	slli	r4,r16,31
   44058:	9004d07a 	srli	r2,r18,1
   4405c:	8006d07a 	srli	r3,r16,1
   44060:	902097fa 	slli	r16,r18,31
   44064:	20a4b03a 	or	r18,r4,r2
   44068:	003f0106 	br	43c70 <__alt_data_end+0xfffdcb70>
   4406c:	e4bff51e 	bne	fp,r18,44044 <__alt_data_end+0xfffdcf44>
   44070:	85bff22e 	bgeu	r16,r22,4403c <__alt_data_end+0xfffdcf3c>
   44074:	e0c7c83a 	sub	r3,fp,r3
   44078:	1023883a 	mov	r17,r2
   4407c:	003f4606 	br	43d98 <__alt_data_end+0xfffdcc98>
   44080:	100f883a 	mov	r7,r2
   44084:	003f2b06 	br	43d34 <__alt_data_end+0xfffdcc34>
   44088:	180d883a 	mov	r6,r3
   4408c:	003f1306 	br	43cdc <__alt_data_end+0xfffdcbdc>
   44090:	813fe436 	bltu	r16,r4,44024 <__alt_data_end+0xfffdcf24>
   44094:	0007883a 	mov	r3,zero
   44098:	003f3f06 	br	43d98 <__alt_data_end+0xfffdcc98>
   4409c:	ba402c36 	bltu	r23,r9,44150 <__divdf3+0x810>
   440a0:	4dc05426 	beq	r9,r23,441f4 <__divdf3+0x8b4>
   440a4:	1011883a 	mov	r8,r2
   440a8:	003f8906 	br	43ed0 <__alt_data_end+0xfffdcdd0>
   440ac:	023fffc4 	movi	r8,-1
   440b0:	003f8806 	br	43ed4 <__alt_data_end+0xfffdcdd4>
   440b4:	1811883a 	mov	r8,r3
   440b8:	003f5406 	br	43e0c <__alt_data_end+0xfffdcd0c>
   440bc:	1025883a 	mov	r18,r2
   440c0:	003f6d06 	br	43e78 <__alt_data_end+0xfffdcd78>
   440c4:	b827883a 	mov	r19,r23
   440c8:	003f8206 	br	43ed4 <__alt_data_end+0xfffdcdd4>
   440cc:	010007c4 	movi	r4,31
   440d0:	20c02616 	blt	r4,r3,4416c <__divdf3+0x82c>
   440d4:	00800804 	movi	r2,32
   440d8:	10c5c83a 	sub	r2,r2,r3
   440dc:	888a983a 	sll	r5,r17,r2
   440e0:	40c8d83a 	srl	r4,r8,r3
   440e4:	4084983a 	sll	r2,r8,r2
   440e8:	88e2d83a 	srl	r17,r17,r3
   440ec:	2906b03a 	or	r3,r5,r4
   440f0:	1004c03a 	cmpne	r2,r2,zero
   440f4:	1886b03a 	or	r3,r3,r2
   440f8:	188001cc 	andi	r2,r3,7
   440fc:	10000726 	beq	r2,zero,4411c <__divdf3+0x7dc>
   44100:	188003cc 	andi	r2,r3,15
   44104:	01000104 	movi	r4,4
   44108:	11000426 	beq	r2,r4,4411c <__divdf3+0x7dc>
   4410c:	1805883a 	mov	r2,r3
   44110:	10c00104 	addi	r3,r2,4
   44114:	1885803a 	cmpltu	r2,r3,r2
   44118:	88a3883a 	add	r17,r17,r2
   4411c:	8880202c 	andhi	r2,r17,128
   44120:	10002726 	beq	r2,zero,441c0 <__divdf3+0x880>
   44124:	98c0004c 	andi	r3,r19,1
   44128:	00800044 	movi	r2,1
   4412c:	000b883a 	mov	r5,zero
   44130:	0025883a 	mov	r18,zero
   44134:	003e6106 	br	43abc <__alt_data_end+0xfffdc9bc>
   44138:	85a1883a 	add	r16,r16,r22
   4413c:	8585803a 	cmpltu	r2,r16,r22
   44140:	1705883a 	add	r2,r2,fp
   44144:	14a5883a 	add	r18,r2,r18
   44148:	8c7fff84 	addi	r17,r17,-2
   4414c:	003f1106 	br	43d94 <__alt_data_end+0xfffdcc94>
   44150:	b589883a 	add	r4,r22,r22
   44154:	25ad803a 	cmpltu	r22,r4,r22
   44158:	b739883a 	add	fp,r22,fp
   4415c:	40bfff84 	addi	r2,r8,-2
   44160:	bf2f883a 	add	r23,r23,fp
   44164:	202d883a 	mov	r22,r4
   44168:	003f9306 	br	43fb8 <__alt_data_end+0xfffdceb8>
   4416c:	013ff844 	movi	r4,-31
   44170:	2085c83a 	sub	r2,r4,r2
   44174:	8888d83a 	srl	r4,r17,r2
   44178:	00800804 	movi	r2,32
   4417c:	18802126 	beq	r3,r2,44204 <__divdf3+0x8c4>
   44180:	00801004 	movi	r2,64
   44184:	10c5c83a 	sub	r2,r2,r3
   44188:	8884983a 	sll	r2,r17,r2
   4418c:	1204b03a 	or	r2,r2,r8
   44190:	1004c03a 	cmpne	r2,r2,zero
   44194:	2084b03a 	or	r2,r4,r2
   44198:	144001cc 	andi	r17,r2,7
   4419c:	88000d1e 	bne	r17,zero,441d4 <__divdf3+0x894>
   441a0:	000b883a 	mov	r5,zero
   441a4:	1024d0fa 	srli	r18,r2,3
   441a8:	98c0004c 	andi	r3,r19,1
   441ac:	0005883a 	mov	r2,zero
   441b0:	9464b03a 	or	r18,r18,r17
   441b4:	003e4106 	br	43abc <__alt_data_end+0xfffdc9bc>
   441b8:	1007883a 	mov	r3,r2
   441bc:	0023883a 	mov	r17,zero
   441c0:	880a927a 	slli	r5,r17,9
   441c4:	1805883a 	mov	r2,r3
   441c8:	8822977a 	slli	r17,r17,29
   441cc:	280ad33a 	srli	r5,r5,12
   441d0:	003ff406 	br	441a4 <__alt_data_end+0xfffdd0a4>
   441d4:	10c003cc 	andi	r3,r2,15
   441d8:	01000104 	movi	r4,4
   441dc:	193ff626 	beq	r3,r4,441b8 <__alt_data_end+0xfffdd0b8>
   441e0:	0023883a 	mov	r17,zero
   441e4:	003fca06 	br	44110 <__alt_data_end+0xfffdd010>
   441e8:	813fd336 	bltu	r16,r4,44138 <__alt_data_end+0xfffdd038>
   441ec:	1023883a 	mov	r17,r2
   441f0:	003fa806 	br	44094 <__alt_data_end+0xfffdcf94>
   441f4:	b0ffd636 	bltu	r22,r3,44150 <__alt_data_end+0xfffdd050>
   441f8:	1011883a 	mov	r8,r2
   441fc:	b0ff341e 	bne	r22,r3,43ed0 <__alt_data_end+0xfffdcdd0>
   44200:	003f3406 	br	43ed4 <__alt_data_end+0xfffdcdd4>
   44204:	0005883a 	mov	r2,zero
   44208:	003fe006 	br	4418c <__alt_data_end+0xfffdd08c>
   4420c:	00800434 	movhi	r2,16
   44210:	89400234 	orhi	r5,r17,8
   44214:	10bfffc4 	addi	r2,r2,-1
   44218:	b807883a 	mov	r3,r23
   4421c:	288a703a 	and	r5,r5,r2
   44220:	4025883a 	mov	r18,r8
   44224:	003e8206 	br	43c30 <__alt_data_end+0xfffdcb30>

00044228 <__eqdf2>:
   44228:	2804d53a 	srli	r2,r5,20
   4422c:	3806d53a 	srli	r3,r7,20
   44230:	02000434 	movhi	r8,16
   44234:	423fffc4 	addi	r8,r8,-1
   44238:	1081ffcc 	andi	r2,r2,2047
   4423c:	0281ffc4 	movi	r10,2047
   44240:	2a12703a 	and	r9,r5,r8
   44244:	18c1ffcc 	andi	r3,r3,2047
   44248:	3a10703a 	and	r8,r7,r8
   4424c:	280ad7fa 	srli	r5,r5,31
   44250:	380ed7fa 	srli	r7,r7,31
   44254:	12801026 	beq	r2,r10,44298 <__eqdf2+0x70>
   44258:	0281ffc4 	movi	r10,2047
   4425c:	1a800a26 	beq	r3,r10,44288 <__eqdf2+0x60>
   44260:	10c00226 	beq	r2,r3,4426c <__eqdf2+0x44>
   44264:	00800044 	movi	r2,1
   44268:	f800283a 	ret
   4426c:	4a3ffd1e 	bne	r9,r8,44264 <__alt_data_end+0xfffdd164>
   44270:	21bffc1e 	bne	r4,r6,44264 <__alt_data_end+0xfffdd164>
   44274:	29c00c26 	beq	r5,r7,442a8 <__eqdf2+0x80>
   44278:	103ffa1e 	bne	r2,zero,44264 <__alt_data_end+0xfffdd164>
   4427c:	2244b03a 	or	r2,r4,r9
   44280:	1004c03a 	cmpne	r2,r2,zero
   44284:	f800283a 	ret
   44288:	3214b03a 	or	r10,r6,r8
   4428c:	503ff426 	beq	r10,zero,44260 <__alt_data_end+0xfffdd160>
   44290:	00800044 	movi	r2,1
   44294:	f800283a 	ret
   44298:	2254b03a 	or	r10,r4,r9
   4429c:	503fee26 	beq	r10,zero,44258 <__alt_data_end+0xfffdd158>
   442a0:	00800044 	movi	r2,1
   442a4:	f800283a 	ret
   442a8:	0005883a 	mov	r2,zero
   442ac:	f800283a 	ret

000442b0 <__gedf2>:
   442b0:	2804d53a 	srli	r2,r5,20
   442b4:	3806d53a 	srli	r3,r7,20
   442b8:	02000434 	movhi	r8,16
   442bc:	423fffc4 	addi	r8,r8,-1
   442c0:	1081ffcc 	andi	r2,r2,2047
   442c4:	0241ffc4 	movi	r9,2047
   442c8:	2a14703a 	and	r10,r5,r8
   442cc:	18c1ffcc 	andi	r3,r3,2047
   442d0:	3a10703a 	and	r8,r7,r8
   442d4:	280ad7fa 	srli	r5,r5,31
   442d8:	380ed7fa 	srli	r7,r7,31
   442dc:	12401d26 	beq	r2,r9,44354 <__gedf2+0xa4>
   442e0:	0241ffc4 	movi	r9,2047
   442e4:	1a401226 	beq	r3,r9,44330 <__gedf2+0x80>
   442e8:	1000081e 	bne	r2,zero,4430c <__gedf2+0x5c>
   442ec:	2296b03a 	or	r11,r4,r10
   442f0:	5813003a 	cmpeq	r9,r11,zero
   442f4:	1800091e 	bne	r3,zero,4431c <__gedf2+0x6c>
   442f8:	3218b03a 	or	r12,r6,r8
   442fc:	6000071e 	bne	r12,zero,4431c <__gedf2+0x6c>
   44300:	0005883a 	mov	r2,zero
   44304:	5800101e 	bne	r11,zero,44348 <__gedf2+0x98>
   44308:	f800283a 	ret
   4430c:	18000c1e 	bne	r3,zero,44340 <__gedf2+0x90>
   44310:	3212b03a 	or	r9,r6,r8
   44314:	48000c26 	beq	r9,zero,44348 <__gedf2+0x98>
   44318:	0013883a 	mov	r9,zero
   4431c:	39c03fcc 	andi	r7,r7,255
   44320:	48000826 	beq	r9,zero,44344 <__gedf2+0x94>
   44324:	38000926 	beq	r7,zero,4434c <__gedf2+0x9c>
   44328:	00800044 	movi	r2,1
   4432c:	f800283a 	ret
   44330:	3212b03a 	or	r9,r6,r8
   44334:	483fec26 	beq	r9,zero,442e8 <__alt_data_end+0xfffdd1e8>
   44338:	00bfff84 	movi	r2,-2
   4433c:	f800283a 	ret
   44340:	39c03fcc 	andi	r7,r7,255
   44344:	29c00626 	beq	r5,r7,44360 <__gedf2+0xb0>
   44348:	283ff726 	beq	r5,zero,44328 <__alt_data_end+0xfffdd228>
   4434c:	00bfffc4 	movi	r2,-1
   44350:	f800283a 	ret
   44354:	2292b03a 	or	r9,r4,r10
   44358:	483fe126 	beq	r9,zero,442e0 <__alt_data_end+0xfffdd1e0>
   4435c:	003ff606 	br	44338 <__alt_data_end+0xfffdd238>
   44360:	18bff916 	blt	r3,r2,44348 <__alt_data_end+0xfffdd248>
   44364:	10c00316 	blt	r2,r3,44374 <__gedf2+0xc4>
   44368:	42bff736 	bltu	r8,r10,44348 <__alt_data_end+0xfffdd248>
   4436c:	52000326 	beq	r10,r8,4437c <__gedf2+0xcc>
   44370:	5200042e 	bgeu	r10,r8,44384 <__gedf2+0xd4>
   44374:	283fec1e 	bne	r5,zero,44328 <__alt_data_end+0xfffdd228>
   44378:	003ff406 	br	4434c <__alt_data_end+0xfffdd24c>
   4437c:	313ff236 	bltu	r6,r4,44348 <__alt_data_end+0xfffdd248>
   44380:	21bffc36 	bltu	r4,r6,44374 <__alt_data_end+0xfffdd274>
   44384:	0005883a 	mov	r2,zero
   44388:	f800283a 	ret

0004438c <__muldf3>:
   4438c:	defff304 	addi	sp,sp,-52
   44390:	2804d53a 	srli	r2,r5,20
   44394:	dd800915 	stw	r22,36(sp)
   44398:	282cd7fa 	srli	r22,r5,31
   4439c:	dc000315 	stw	r16,12(sp)
   443a0:	04000434 	movhi	r16,16
   443a4:	dd400815 	stw	r21,32(sp)
   443a8:	dc800515 	stw	r18,20(sp)
   443ac:	843fffc4 	addi	r16,r16,-1
   443b0:	dfc00c15 	stw	ra,48(sp)
   443b4:	df000b15 	stw	fp,44(sp)
   443b8:	ddc00a15 	stw	r23,40(sp)
   443bc:	dd000715 	stw	r20,28(sp)
   443c0:	dcc00615 	stw	r19,24(sp)
   443c4:	dc400415 	stw	r17,16(sp)
   443c8:	1481ffcc 	andi	r18,r2,2047
   443cc:	2c20703a 	and	r16,r5,r16
   443d0:	b02b883a 	mov	r21,r22
   443d4:	b2403fcc 	andi	r9,r22,255
   443d8:	90006026 	beq	r18,zero,4455c <__muldf3+0x1d0>
   443dc:	0081ffc4 	movi	r2,2047
   443e0:	2029883a 	mov	r20,r4
   443e4:	90803626 	beq	r18,r2,444c0 <__muldf3+0x134>
   443e8:	80800434 	orhi	r2,r16,16
   443ec:	100490fa 	slli	r2,r2,3
   443f0:	2020d77a 	srli	r16,r4,29
   443f4:	202890fa 	slli	r20,r4,3
   443f8:	94bf0044 	addi	r18,r18,-1023
   443fc:	80a0b03a 	or	r16,r16,r2
   44400:	0027883a 	mov	r19,zero
   44404:	0039883a 	mov	fp,zero
   44408:	3804d53a 	srli	r2,r7,20
   4440c:	382ed7fa 	srli	r23,r7,31
   44410:	04400434 	movhi	r17,16
   44414:	8c7fffc4 	addi	r17,r17,-1
   44418:	1081ffcc 	andi	r2,r2,2047
   4441c:	3011883a 	mov	r8,r6
   44420:	3c62703a 	and	r17,r7,r17
   44424:	ba803fcc 	andi	r10,r23,255
   44428:	10006d26 	beq	r2,zero,445e0 <__muldf3+0x254>
   4442c:	00c1ffc4 	movi	r3,2047
   44430:	10c06526 	beq	r2,r3,445c8 <__muldf3+0x23c>
   44434:	88c00434 	orhi	r3,r17,16
   44438:	180690fa 	slli	r3,r3,3
   4443c:	3022d77a 	srli	r17,r6,29
   44440:	301090fa 	slli	r8,r6,3
   44444:	10bf0044 	addi	r2,r2,-1023
   44448:	88e2b03a 	or	r17,r17,r3
   4444c:	000b883a 	mov	r5,zero
   44450:	9085883a 	add	r2,r18,r2
   44454:	2cc8b03a 	or	r4,r5,r19
   44458:	00c003c4 	movi	r3,15
   4445c:	bdacf03a 	xor	r22,r23,r22
   44460:	12c00044 	addi	r11,r2,1
   44464:	19009936 	bltu	r3,r4,446cc <__muldf3+0x340>
   44468:	200890ba 	slli	r4,r4,2
   4446c:	00c00134 	movhi	r3,4
   44470:	18d12004 	addi	r3,r3,17536
   44474:	20c9883a 	add	r4,r4,r3
   44478:	20c00017 	ldw	r3,0(r4)
   4447c:	1800683a 	jmp	r3
   44480:	000446cc 	andi	zero,zero,4379
   44484:	000444e0 	cmpeqi	zero,zero,4371
   44488:	000444e0 	cmpeqi	zero,zero,4371
   4448c:	000444dc 	xori	zero,zero,4371
   44490:	000446a8 	cmpgeui	zero,zero,4378
   44494:	000446a8 	cmpgeui	zero,zero,4378
   44498:	00044690 	cmplti	zero,zero,4378
   4449c:	000444dc 	xori	zero,zero,4371
   444a0:	000446a8 	cmpgeui	zero,zero,4378
   444a4:	00044690 	cmplti	zero,zero,4378
   444a8:	000446a8 	cmpgeui	zero,zero,4378
   444ac:	000444dc 	xori	zero,zero,4371
   444b0:	000446b8 	rdprs	zero,zero,4378
   444b4:	000446b8 	rdprs	zero,zero,4378
   444b8:	000446b8 	rdprs	zero,zero,4378
   444bc:	000448d4 	movui	zero,4387
   444c0:	2404b03a 	or	r2,r4,r16
   444c4:	10006f1e 	bne	r2,zero,44684 <__muldf3+0x2f8>
   444c8:	04c00204 	movi	r19,8
   444cc:	0021883a 	mov	r16,zero
   444d0:	0029883a 	mov	r20,zero
   444d4:	07000084 	movi	fp,2
   444d8:	003fcb06 	br	44408 <__alt_data_end+0xfffdd308>
   444dc:	502d883a 	mov	r22,r10
   444e0:	00800084 	movi	r2,2
   444e4:	28805726 	beq	r5,r2,44644 <__muldf3+0x2b8>
   444e8:	008000c4 	movi	r2,3
   444ec:	28816626 	beq	r5,r2,44a88 <__muldf3+0x6fc>
   444f0:	00800044 	movi	r2,1
   444f4:	2881411e 	bne	r5,r2,449fc <__muldf3+0x670>
   444f8:	b02b883a 	mov	r21,r22
   444fc:	0005883a 	mov	r2,zero
   44500:	000b883a 	mov	r5,zero
   44504:	0029883a 	mov	r20,zero
   44508:	1004953a 	slli	r2,r2,20
   4450c:	a8c03fcc 	andi	r3,r21,255
   44510:	04400434 	movhi	r17,16
   44514:	8c7fffc4 	addi	r17,r17,-1
   44518:	180697fa 	slli	r3,r3,31
   4451c:	2c4a703a 	and	r5,r5,r17
   44520:	288ab03a 	or	r5,r5,r2
   44524:	28c6b03a 	or	r3,r5,r3
   44528:	a005883a 	mov	r2,r20
   4452c:	dfc00c17 	ldw	ra,48(sp)
   44530:	df000b17 	ldw	fp,44(sp)
   44534:	ddc00a17 	ldw	r23,40(sp)
   44538:	dd800917 	ldw	r22,36(sp)
   4453c:	dd400817 	ldw	r21,32(sp)
   44540:	dd000717 	ldw	r20,28(sp)
   44544:	dcc00617 	ldw	r19,24(sp)
   44548:	dc800517 	ldw	r18,20(sp)
   4454c:	dc400417 	ldw	r17,16(sp)
   44550:	dc000317 	ldw	r16,12(sp)
   44554:	dec00d04 	addi	sp,sp,52
   44558:	f800283a 	ret
   4455c:	2404b03a 	or	r2,r4,r16
   44560:	2027883a 	mov	r19,r4
   44564:	10004226 	beq	r2,zero,44670 <__muldf3+0x2e4>
   44568:	8000fc26 	beq	r16,zero,4495c <__muldf3+0x5d0>
   4456c:	8009883a 	mov	r4,r16
   44570:	d9800215 	stw	r6,8(sp)
   44574:	d9c00015 	stw	r7,0(sp)
   44578:	da400115 	stw	r9,4(sp)
   4457c:	00457b40 	call	457b4 <__clzsi2>
   44580:	d9800217 	ldw	r6,8(sp)
   44584:	d9c00017 	ldw	r7,0(sp)
   44588:	da400117 	ldw	r9,4(sp)
   4458c:	113ffd44 	addi	r4,r2,-11
   44590:	00c00704 	movi	r3,28
   44594:	1900ed16 	blt	r3,r4,4494c <__muldf3+0x5c0>
   44598:	00c00744 	movi	r3,29
   4459c:	147ffe04 	addi	r17,r2,-8
   445a0:	1907c83a 	sub	r3,r3,r4
   445a4:	8460983a 	sll	r16,r16,r17
   445a8:	98c6d83a 	srl	r3,r19,r3
   445ac:	9c68983a 	sll	r20,r19,r17
   445b0:	1c20b03a 	or	r16,r3,r16
   445b4:	1080fcc4 	addi	r2,r2,1011
   445b8:	00a5c83a 	sub	r18,zero,r2
   445bc:	0027883a 	mov	r19,zero
   445c0:	0039883a 	mov	fp,zero
   445c4:	003f9006 	br	44408 <__alt_data_end+0xfffdd308>
   445c8:	3446b03a 	or	r3,r6,r17
   445cc:	1800261e 	bne	r3,zero,44668 <__muldf3+0x2dc>
   445d0:	0023883a 	mov	r17,zero
   445d4:	0011883a 	mov	r8,zero
   445d8:	01400084 	movi	r5,2
   445dc:	003f9c06 	br	44450 <__alt_data_end+0xfffdd350>
   445e0:	3446b03a 	or	r3,r6,r17
   445e4:	18001c26 	beq	r3,zero,44658 <__muldf3+0x2cc>
   445e8:	8800ce26 	beq	r17,zero,44924 <__muldf3+0x598>
   445ec:	8809883a 	mov	r4,r17
   445f0:	d9800215 	stw	r6,8(sp)
   445f4:	da400115 	stw	r9,4(sp)
   445f8:	da800015 	stw	r10,0(sp)
   445fc:	00457b40 	call	457b4 <__clzsi2>
   44600:	d9800217 	ldw	r6,8(sp)
   44604:	da400117 	ldw	r9,4(sp)
   44608:	da800017 	ldw	r10,0(sp)
   4460c:	113ffd44 	addi	r4,r2,-11
   44610:	00c00704 	movi	r3,28
   44614:	1900bf16 	blt	r3,r4,44914 <__muldf3+0x588>
   44618:	00c00744 	movi	r3,29
   4461c:	123ffe04 	addi	r8,r2,-8
   44620:	1907c83a 	sub	r3,r3,r4
   44624:	8a22983a 	sll	r17,r17,r8
   44628:	30c6d83a 	srl	r3,r6,r3
   4462c:	3210983a 	sll	r8,r6,r8
   44630:	1c62b03a 	or	r17,r3,r17
   44634:	1080fcc4 	addi	r2,r2,1011
   44638:	0085c83a 	sub	r2,zero,r2
   4463c:	000b883a 	mov	r5,zero
   44640:	003f8306 	br	44450 <__alt_data_end+0xfffdd350>
   44644:	b02b883a 	mov	r21,r22
   44648:	0081ffc4 	movi	r2,2047
   4464c:	000b883a 	mov	r5,zero
   44650:	0029883a 	mov	r20,zero
   44654:	003fac06 	br	44508 <__alt_data_end+0xfffdd408>
   44658:	0023883a 	mov	r17,zero
   4465c:	0011883a 	mov	r8,zero
   44660:	01400044 	movi	r5,1
   44664:	003f7a06 	br	44450 <__alt_data_end+0xfffdd350>
   44668:	014000c4 	movi	r5,3
   4466c:	003f7806 	br	44450 <__alt_data_end+0xfffdd350>
   44670:	04c00104 	movi	r19,4
   44674:	0021883a 	mov	r16,zero
   44678:	0029883a 	mov	r20,zero
   4467c:	07000044 	movi	fp,1
   44680:	003f6106 	br	44408 <__alt_data_end+0xfffdd308>
   44684:	04c00304 	movi	r19,12
   44688:	070000c4 	movi	fp,3
   4468c:	003f5e06 	br	44408 <__alt_data_end+0xfffdd308>
   44690:	01400434 	movhi	r5,16
   44694:	002b883a 	mov	r21,zero
   44698:	297fffc4 	addi	r5,r5,-1
   4469c:	053fffc4 	movi	r20,-1
   446a0:	0081ffc4 	movi	r2,2047
   446a4:	003f9806 	br	44508 <__alt_data_end+0xfffdd408>
   446a8:	8023883a 	mov	r17,r16
   446ac:	a011883a 	mov	r8,r20
   446b0:	e00b883a 	mov	r5,fp
   446b4:	003f8a06 	br	444e0 <__alt_data_end+0xfffdd3e0>
   446b8:	8023883a 	mov	r17,r16
   446bc:	a011883a 	mov	r8,r20
   446c0:	482d883a 	mov	r22,r9
   446c4:	e00b883a 	mov	r5,fp
   446c8:	003f8506 	br	444e0 <__alt_data_end+0xfffdd3e0>
   446cc:	a00ad43a 	srli	r5,r20,16
   446d0:	401ad43a 	srli	r13,r8,16
   446d4:	a53fffcc 	andi	r20,r20,65535
   446d8:	423fffcc 	andi	r8,r8,65535
   446dc:	4519383a 	mul	r12,r8,r20
   446e0:	4147383a 	mul	r3,r8,r5
   446e4:	6d09383a 	mul	r4,r13,r20
   446e8:	600cd43a 	srli	r6,r12,16
   446ec:	2b5d383a 	mul	r14,r5,r13
   446f0:	20c9883a 	add	r4,r4,r3
   446f4:	310d883a 	add	r6,r6,r4
   446f8:	30c0022e 	bgeu	r6,r3,44704 <__muldf3+0x378>
   446fc:	00c00074 	movhi	r3,1
   44700:	70dd883a 	add	r14,r14,r3
   44704:	8826d43a 	srli	r19,r17,16
   44708:	8bffffcc 	andi	r15,r17,65535
   4470c:	7d23383a 	mul	r17,r15,r20
   44710:	7949383a 	mul	r4,r15,r5
   44714:	9d29383a 	mul	r20,r19,r20
   44718:	8814d43a 	srli	r10,r17,16
   4471c:	3012943a 	slli	r9,r6,16
   44720:	a129883a 	add	r20,r20,r4
   44724:	633fffcc 	andi	r12,r12,65535
   44728:	5515883a 	add	r10,r10,r20
   4472c:	3006d43a 	srli	r3,r6,16
   44730:	4b13883a 	add	r9,r9,r12
   44734:	2ccb383a 	mul	r5,r5,r19
   44738:	5100022e 	bgeu	r10,r4,44744 <__muldf3+0x3b8>
   4473c:	01000074 	movhi	r4,1
   44740:	290b883a 	add	r5,r5,r4
   44744:	802ad43a 	srli	r21,r16,16
   44748:	843fffcc 	andi	r16,r16,65535
   4474c:	440d383a 	mul	r6,r8,r16
   44750:	4565383a 	mul	r18,r8,r21
   44754:	8349383a 	mul	r4,r16,r13
   44758:	500e943a 	slli	r7,r10,16
   4475c:	3010d43a 	srli	r8,r6,16
   44760:	5028d43a 	srli	r20,r10,16
   44764:	2489883a 	add	r4,r4,r18
   44768:	8abfffcc 	andi	r10,r17,65535
   4476c:	3a95883a 	add	r10,r7,r10
   44770:	4119883a 	add	r12,r8,r4
   44774:	a169883a 	add	r20,r20,r5
   44778:	1a87883a 	add	r3,r3,r10
   4477c:	6d5b383a 	mul	r13,r13,r21
   44780:	6480022e 	bgeu	r12,r18,4478c <__muldf3+0x400>
   44784:	01000074 	movhi	r4,1
   44788:	691b883a 	add	r13,r13,r4
   4478c:	7c25383a 	mul	r18,r15,r16
   44790:	7d4b383a 	mul	r5,r15,r21
   44794:	84cf383a 	mul	r7,r16,r19
   44798:	901ed43a 	srli	r15,r18,16
   4479c:	6008d43a 	srli	r4,r12,16
   447a0:	6010943a 	slli	r8,r12,16
   447a4:	394f883a 	add	r7,r7,r5
   447a8:	333fffcc 	andi	r12,r6,65535
   447ac:	79df883a 	add	r15,r15,r7
   447b0:	235b883a 	add	r13,r4,r13
   447b4:	9d63383a 	mul	r17,r19,r21
   447b8:	4309883a 	add	r4,r8,r12
   447bc:	7940022e 	bgeu	r15,r5,447c8 <__muldf3+0x43c>
   447c0:	01400074 	movhi	r5,1
   447c4:	8963883a 	add	r17,r17,r5
   447c8:	780a943a 	slli	r5,r15,16
   447cc:	91bfffcc 	andi	r6,r18,65535
   447d0:	70c7883a 	add	r3,r14,r3
   447d4:	298d883a 	add	r6,r5,r6
   447d8:	1a8f803a 	cmpltu	r7,r3,r10
   447dc:	350b883a 	add	r5,r6,r20
   447e0:	20c7883a 	add	r3,r4,r3
   447e4:	3955883a 	add	r10,r7,r5
   447e8:	1909803a 	cmpltu	r4,r3,r4
   447ec:	6a91883a 	add	r8,r13,r10
   447f0:	780cd43a 	srli	r6,r15,16
   447f4:	2219883a 	add	r12,r4,r8
   447f8:	2d0b803a 	cmpltu	r5,r5,r20
   447fc:	51cf803a 	cmpltu	r7,r10,r7
   44800:	29ceb03a 	or	r7,r5,r7
   44804:	4351803a 	cmpltu	r8,r8,r13
   44808:	610b803a 	cmpltu	r5,r12,r4
   4480c:	4148b03a 	or	r4,r8,r5
   44810:	398f883a 	add	r7,r7,r6
   44814:	3909883a 	add	r4,r7,r4
   44818:	1810927a 	slli	r8,r3,9
   4481c:	2449883a 	add	r4,r4,r17
   44820:	2008927a 	slli	r4,r4,9
   44824:	6022d5fa 	srli	r17,r12,23
   44828:	1806d5fa 	srli	r3,r3,23
   4482c:	4252b03a 	or	r9,r8,r9
   44830:	600a927a 	slli	r5,r12,9
   44834:	4810c03a 	cmpne	r8,r9,zero
   44838:	2462b03a 	or	r17,r4,r17
   4483c:	40c6b03a 	or	r3,r8,r3
   44840:	8900402c 	andhi	r4,r17,256
   44844:	1950b03a 	or	r8,r3,r5
   44848:	20000726 	beq	r4,zero,44868 <__muldf3+0x4dc>
   4484c:	4006d07a 	srli	r3,r8,1
   44850:	880497fa 	slli	r2,r17,31
   44854:	4200004c 	andi	r8,r8,1
   44858:	8822d07a 	srli	r17,r17,1
   4485c:	1a10b03a 	or	r8,r3,r8
   44860:	1210b03a 	or	r8,r2,r8
   44864:	5805883a 	mov	r2,r11
   44868:	1140ffc4 	addi	r5,r2,1023
   4486c:	0140440e 	bge	zero,r5,44980 <__muldf3+0x5f4>
   44870:	40c001cc 	andi	r3,r8,7
   44874:	18000726 	beq	r3,zero,44894 <__muldf3+0x508>
   44878:	40c003cc 	andi	r3,r8,15
   4487c:	01000104 	movi	r4,4
   44880:	19000426 	beq	r3,r4,44894 <__muldf3+0x508>
   44884:	4107883a 	add	r3,r8,r4
   44888:	1a11803a 	cmpltu	r8,r3,r8
   4488c:	8a23883a 	add	r17,r17,r8
   44890:	1811883a 	mov	r8,r3
   44894:	88c0402c 	andhi	r3,r17,256
   44898:	18000426 	beq	r3,zero,448ac <__muldf3+0x520>
   4489c:	11410004 	addi	r5,r2,1024
   448a0:	00bfc034 	movhi	r2,65280
   448a4:	10bfffc4 	addi	r2,r2,-1
   448a8:	88a2703a 	and	r17,r17,r2
   448ac:	0081ff84 	movi	r2,2046
   448b0:	117f6416 	blt	r2,r5,44644 <__alt_data_end+0xfffdd544>
   448b4:	8828977a 	slli	r20,r17,29
   448b8:	4010d0fa 	srli	r8,r8,3
   448bc:	8822927a 	slli	r17,r17,9
   448c0:	2881ffcc 	andi	r2,r5,2047
   448c4:	a228b03a 	or	r20,r20,r8
   448c8:	880ad33a 	srli	r5,r17,12
   448cc:	b02b883a 	mov	r21,r22
   448d0:	003f0d06 	br	44508 <__alt_data_end+0xfffdd408>
   448d4:	8080022c 	andhi	r2,r16,8
   448d8:	10000926 	beq	r2,zero,44900 <__muldf3+0x574>
   448dc:	8880022c 	andhi	r2,r17,8
   448e0:	1000071e 	bne	r2,zero,44900 <__muldf3+0x574>
   448e4:	00800434 	movhi	r2,16
   448e8:	89400234 	orhi	r5,r17,8
   448ec:	10bfffc4 	addi	r2,r2,-1
   448f0:	b82b883a 	mov	r21,r23
   448f4:	288a703a 	and	r5,r5,r2
   448f8:	4029883a 	mov	r20,r8
   448fc:	003f6806 	br	446a0 <__alt_data_end+0xfffdd5a0>
   44900:	00800434 	movhi	r2,16
   44904:	81400234 	orhi	r5,r16,8
   44908:	10bfffc4 	addi	r2,r2,-1
   4490c:	288a703a 	and	r5,r5,r2
   44910:	003f6306 	br	446a0 <__alt_data_end+0xfffdd5a0>
   44914:	147ff604 	addi	r17,r2,-40
   44918:	3462983a 	sll	r17,r6,r17
   4491c:	0011883a 	mov	r8,zero
   44920:	003f4406 	br	44634 <__alt_data_end+0xfffdd534>
   44924:	3009883a 	mov	r4,r6
   44928:	d9800215 	stw	r6,8(sp)
   4492c:	da400115 	stw	r9,4(sp)
   44930:	da800015 	stw	r10,0(sp)
   44934:	00457b40 	call	457b4 <__clzsi2>
   44938:	10800804 	addi	r2,r2,32
   4493c:	da800017 	ldw	r10,0(sp)
   44940:	da400117 	ldw	r9,4(sp)
   44944:	d9800217 	ldw	r6,8(sp)
   44948:	003f3006 	br	4460c <__alt_data_end+0xfffdd50c>
   4494c:	143ff604 	addi	r16,r2,-40
   44950:	9c20983a 	sll	r16,r19,r16
   44954:	0029883a 	mov	r20,zero
   44958:	003f1606 	br	445b4 <__alt_data_end+0xfffdd4b4>
   4495c:	d9800215 	stw	r6,8(sp)
   44960:	d9c00015 	stw	r7,0(sp)
   44964:	da400115 	stw	r9,4(sp)
   44968:	00457b40 	call	457b4 <__clzsi2>
   4496c:	10800804 	addi	r2,r2,32
   44970:	da400117 	ldw	r9,4(sp)
   44974:	d9c00017 	ldw	r7,0(sp)
   44978:	d9800217 	ldw	r6,8(sp)
   4497c:	003f0306 	br	4458c <__alt_data_end+0xfffdd48c>
   44980:	00c00044 	movi	r3,1
   44984:	1947c83a 	sub	r3,r3,r5
   44988:	00800e04 	movi	r2,56
   4498c:	10feda16 	blt	r2,r3,444f8 <__alt_data_end+0xfffdd3f8>
   44990:	008007c4 	movi	r2,31
   44994:	10c01b16 	blt	r2,r3,44a04 <__muldf3+0x678>
   44998:	00800804 	movi	r2,32
   4499c:	10c5c83a 	sub	r2,r2,r3
   449a0:	888a983a 	sll	r5,r17,r2
   449a4:	40c8d83a 	srl	r4,r8,r3
   449a8:	4084983a 	sll	r2,r8,r2
   449ac:	88e2d83a 	srl	r17,r17,r3
   449b0:	2906b03a 	or	r3,r5,r4
   449b4:	1004c03a 	cmpne	r2,r2,zero
   449b8:	1886b03a 	or	r3,r3,r2
   449bc:	188001cc 	andi	r2,r3,7
   449c0:	10000726 	beq	r2,zero,449e0 <__muldf3+0x654>
   449c4:	188003cc 	andi	r2,r3,15
   449c8:	01000104 	movi	r4,4
   449cc:	11000426 	beq	r2,r4,449e0 <__muldf3+0x654>
   449d0:	1805883a 	mov	r2,r3
   449d4:	10c00104 	addi	r3,r2,4
   449d8:	1885803a 	cmpltu	r2,r3,r2
   449dc:	88a3883a 	add	r17,r17,r2
   449e0:	8880202c 	andhi	r2,r17,128
   449e4:	10001c26 	beq	r2,zero,44a58 <__muldf3+0x6cc>
   449e8:	b02b883a 	mov	r21,r22
   449ec:	00800044 	movi	r2,1
   449f0:	000b883a 	mov	r5,zero
   449f4:	0029883a 	mov	r20,zero
   449f8:	003ec306 	br	44508 <__alt_data_end+0xfffdd408>
   449fc:	5805883a 	mov	r2,r11
   44a00:	003f9906 	br	44868 <__alt_data_end+0xfffdd768>
   44a04:	00bff844 	movi	r2,-31
   44a08:	1145c83a 	sub	r2,r2,r5
   44a0c:	8888d83a 	srl	r4,r17,r2
   44a10:	00800804 	movi	r2,32
   44a14:	18801a26 	beq	r3,r2,44a80 <__muldf3+0x6f4>
   44a18:	00801004 	movi	r2,64
   44a1c:	10c5c83a 	sub	r2,r2,r3
   44a20:	8884983a 	sll	r2,r17,r2
   44a24:	1204b03a 	or	r2,r2,r8
   44a28:	1004c03a 	cmpne	r2,r2,zero
   44a2c:	2084b03a 	or	r2,r4,r2
   44a30:	144001cc 	andi	r17,r2,7
   44a34:	88000d1e 	bne	r17,zero,44a6c <__muldf3+0x6e0>
   44a38:	000b883a 	mov	r5,zero
   44a3c:	1028d0fa 	srli	r20,r2,3
   44a40:	b02b883a 	mov	r21,r22
   44a44:	0005883a 	mov	r2,zero
   44a48:	a468b03a 	or	r20,r20,r17
   44a4c:	003eae06 	br	44508 <__alt_data_end+0xfffdd408>
   44a50:	1007883a 	mov	r3,r2
   44a54:	0023883a 	mov	r17,zero
   44a58:	880a927a 	slli	r5,r17,9
   44a5c:	1805883a 	mov	r2,r3
   44a60:	8822977a 	slli	r17,r17,29
   44a64:	280ad33a 	srli	r5,r5,12
   44a68:	003ff406 	br	44a3c <__alt_data_end+0xfffdd93c>
   44a6c:	10c003cc 	andi	r3,r2,15
   44a70:	01000104 	movi	r4,4
   44a74:	193ff626 	beq	r3,r4,44a50 <__alt_data_end+0xfffdd950>
   44a78:	0023883a 	mov	r17,zero
   44a7c:	003fd506 	br	449d4 <__alt_data_end+0xfffdd8d4>
   44a80:	0005883a 	mov	r2,zero
   44a84:	003fe706 	br	44a24 <__alt_data_end+0xfffdd924>
   44a88:	00800434 	movhi	r2,16
   44a8c:	89400234 	orhi	r5,r17,8
   44a90:	10bfffc4 	addi	r2,r2,-1
   44a94:	b02b883a 	mov	r21,r22
   44a98:	288a703a 	and	r5,r5,r2
   44a9c:	4029883a 	mov	r20,r8
   44aa0:	003eff06 	br	446a0 <__alt_data_end+0xfffdd5a0>

00044aa4 <__subdf3>:
   44aa4:	02000434 	movhi	r8,16
   44aa8:	423fffc4 	addi	r8,r8,-1
   44aac:	defffb04 	addi	sp,sp,-20
   44ab0:	2a14703a 	and	r10,r5,r8
   44ab4:	3812d53a 	srli	r9,r7,20
   44ab8:	3a10703a 	and	r8,r7,r8
   44abc:	2006d77a 	srli	r3,r4,29
   44ac0:	3004d77a 	srli	r2,r6,29
   44ac4:	dc000015 	stw	r16,0(sp)
   44ac8:	501490fa 	slli	r10,r10,3
   44acc:	2820d53a 	srli	r16,r5,20
   44ad0:	401090fa 	slli	r8,r8,3
   44ad4:	dc800215 	stw	r18,8(sp)
   44ad8:	dc400115 	stw	r17,4(sp)
   44adc:	dfc00415 	stw	ra,16(sp)
   44ae0:	202290fa 	slli	r17,r4,3
   44ae4:	dcc00315 	stw	r19,12(sp)
   44ae8:	4a41ffcc 	andi	r9,r9,2047
   44aec:	0101ffc4 	movi	r4,2047
   44af0:	2824d7fa 	srli	r18,r5,31
   44af4:	8401ffcc 	andi	r16,r16,2047
   44af8:	50c6b03a 	or	r3,r10,r3
   44afc:	380ed7fa 	srli	r7,r7,31
   44b00:	408ab03a 	or	r5,r8,r2
   44b04:	300c90fa 	slli	r6,r6,3
   44b08:	49009626 	beq	r9,r4,44d64 <__subdf3+0x2c0>
   44b0c:	39c0005c 	xori	r7,r7,1
   44b10:	8245c83a 	sub	r2,r16,r9
   44b14:	3c807426 	beq	r7,r18,44ce8 <__subdf3+0x244>
   44b18:	0080af0e 	bge	zero,r2,44dd8 <__subdf3+0x334>
   44b1c:	48002a1e 	bne	r9,zero,44bc8 <__subdf3+0x124>
   44b20:	2988b03a 	or	r4,r5,r6
   44b24:	20009a1e 	bne	r4,zero,44d90 <__subdf3+0x2ec>
   44b28:	888001cc 	andi	r2,r17,7
   44b2c:	10000726 	beq	r2,zero,44b4c <__subdf3+0xa8>
   44b30:	888003cc 	andi	r2,r17,15
   44b34:	01000104 	movi	r4,4
   44b38:	11000426 	beq	r2,r4,44b4c <__subdf3+0xa8>
   44b3c:	890b883a 	add	r5,r17,r4
   44b40:	2c63803a 	cmpltu	r17,r5,r17
   44b44:	1c47883a 	add	r3,r3,r17
   44b48:	2823883a 	mov	r17,r5
   44b4c:	1880202c 	andhi	r2,r3,128
   44b50:	10005926 	beq	r2,zero,44cb8 <__subdf3+0x214>
   44b54:	84000044 	addi	r16,r16,1
   44b58:	0081ffc4 	movi	r2,2047
   44b5c:	8080be26 	beq	r16,r2,44e58 <__subdf3+0x3b4>
   44b60:	017fe034 	movhi	r5,65408
   44b64:	297fffc4 	addi	r5,r5,-1
   44b68:	1946703a 	and	r3,r3,r5
   44b6c:	1804977a 	slli	r2,r3,29
   44b70:	1806927a 	slli	r3,r3,9
   44b74:	8822d0fa 	srli	r17,r17,3
   44b78:	8401ffcc 	andi	r16,r16,2047
   44b7c:	180ad33a 	srli	r5,r3,12
   44b80:	9100004c 	andi	r4,r18,1
   44b84:	1444b03a 	or	r2,r2,r17
   44b88:	80c1ffcc 	andi	r3,r16,2047
   44b8c:	1820953a 	slli	r16,r3,20
   44b90:	20c03fcc 	andi	r3,r4,255
   44b94:	180897fa 	slli	r4,r3,31
   44b98:	00c00434 	movhi	r3,16
   44b9c:	18ffffc4 	addi	r3,r3,-1
   44ba0:	28c6703a 	and	r3,r5,r3
   44ba4:	1c06b03a 	or	r3,r3,r16
   44ba8:	1906b03a 	or	r3,r3,r4
   44bac:	dfc00417 	ldw	ra,16(sp)
   44bb0:	dcc00317 	ldw	r19,12(sp)
   44bb4:	dc800217 	ldw	r18,8(sp)
   44bb8:	dc400117 	ldw	r17,4(sp)
   44bbc:	dc000017 	ldw	r16,0(sp)
   44bc0:	dec00504 	addi	sp,sp,20
   44bc4:	f800283a 	ret
   44bc8:	0101ffc4 	movi	r4,2047
   44bcc:	813fd626 	beq	r16,r4,44b28 <__alt_data_end+0xfffdda28>
   44bd0:	29402034 	orhi	r5,r5,128
   44bd4:	01000e04 	movi	r4,56
   44bd8:	2080a316 	blt	r4,r2,44e68 <__subdf3+0x3c4>
   44bdc:	010007c4 	movi	r4,31
   44be0:	2080c616 	blt	r4,r2,44efc <__subdf3+0x458>
   44be4:	01000804 	movi	r4,32
   44be8:	2089c83a 	sub	r4,r4,r2
   44bec:	2910983a 	sll	r8,r5,r4
   44bf0:	308ed83a 	srl	r7,r6,r2
   44bf4:	3108983a 	sll	r4,r6,r4
   44bf8:	2884d83a 	srl	r2,r5,r2
   44bfc:	41ccb03a 	or	r6,r8,r7
   44c00:	2008c03a 	cmpne	r4,r4,zero
   44c04:	310cb03a 	or	r6,r6,r4
   44c08:	898dc83a 	sub	r6,r17,r6
   44c0c:	89a3803a 	cmpltu	r17,r17,r6
   44c10:	1887c83a 	sub	r3,r3,r2
   44c14:	1c47c83a 	sub	r3,r3,r17
   44c18:	3023883a 	mov	r17,r6
   44c1c:	1880202c 	andhi	r2,r3,128
   44c20:	10002326 	beq	r2,zero,44cb0 <__subdf3+0x20c>
   44c24:	04c02034 	movhi	r19,128
   44c28:	9cffffc4 	addi	r19,r19,-1
   44c2c:	1ce6703a 	and	r19,r3,r19
   44c30:	98007a26 	beq	r19,zero,44e1c <__subdf3+0x378>
   44c34:	9809883a 	mov	r4,r19
   44c38:	00457b40 	call	457b4 <__clzsi2>
   44c3c:	113ffe04 	addi	r4,r2,-8
   44c40:	00c007c4 	movi	r3,31
   44c44:	19007b16 	blt	r3,r4,44e34 <__subdf3+0x390>
   44c48:	00800804 	movi	r2,32
   44c4c:	1105c83a 	sub	r2,r2,r4
   44c50:	8884d83a 	srl	r2,r17,r2
   44c54:	9906983a 	sll	r3,r19,r4
   44c58:	8922983a 	sll	r17,r17,r4
   44c5c:	10c4b03a 	or	r2,r2,r3
   44c60:	24007816 	blt	r4,r16,44e44 <__subdf3+0x3a0>
   44c64:	2421c83a 	sub	r16,r4,r16
   44c68:	80c00044 	addi	r3,r16,1
   44c6c:	010007c4 	movi	r4,31
   44c70:	20c09516 	blt	r4,r3,44ec8 <__subdf3+0x424>
   44c74:	01400804 	movi	r5,32
   44c78:	28cbc83a 	sub	r5,r5,r3
   44c7c:	88c8d83a 	srl	r4,r17,r3
   44c80:	8962983a 	sll	r17,r17,r5
   44c84:	114a983a 	sll	r5,r2,r5
   44c88:	10c6d83a 	srl	r3,r2,r3
   44c8c:	8804c03a 	cmpne	r2,r17,zero
   44c90:	290ab03a 	or	r5,r5,r4
   44c94:	28a2b03a 	or	r17,r5,r2
   44c98:	0021883a 	mov	r16,zero
   44c9c:	003fa206 	br	44b28 <__alt_data_end+0xfffdda28>
   44ca0:	2090b03a 	or	r8,r4,r2
   44ca4:	40018e26 	beq	r8,zero,452e0 <__subdf3+0x83c>
   44ca8:	1007883a 	mov	r3,r2
   44cac:	2023883a 	mov	r17,r4
   44cb0:	888001cc 	andi	r2,r17,7
   44cb4:	103f9e1e 	bne	r2,zero,44b30 <__alt_data_end+0xfffdda30>
   44cb8:	1804977a 	slli	r2,r3,29
   44cbc:	8822d0fa 	srli	r17,r17,3
   44cc0:	1810d0fa 	srli	r8,r3,3
   44cc4:	9100004c 	andi	r4,r18,1
   44cc8:	1444b03a 	or	r2,r2,r17
   44ccc:	00c1ffc4 	movi	r3,2047
   44cd0:	80c02826 	beq	r16,r3,44d74 <__subdf3+0x2d0>
   44cd4:	01400434 	movhi	r5,16
   44cd8:	297fffc4 	addi	r5,r5,-1
   44cdc:	80e0703a 	and	r16,r16,r3
   44ce0:	414a703a 	and	r5,r8,r5
   44ce4:	003fa806 	br	44b88 <__alt_data_end+0xfffdda88>
   44ce8:	0080630e 	bge	zero,r2,44e78 <__subdf3+0x3d4>
   44cec:	48003026 	beq	r9,zero,44db0 <__subdf3+0x30c>
   44cf0:	0101ffc4 	movi	r4,2047
   44cf4:	813f8c26 	beq	r16,r4,44b28 <__alt_data_end+0xfffdda28>
   44cf8:	29402034 	orhi	r5,r5,128
   44cfc:	01000e04 	movi	r4,56
   44d00:	2080a90e 	bge	r4,r2,44fa8 <__subdf3+0x504>
   44d04:	298cb03a 	or	r6,r5,r6
   44d08:	3012c03a 	cmpne	r9,r6,zero
   44d0c:	0005883a 	mov	r2,zero
   44d10:	4c53883a 	add	r9,r9,r17
   44d14:	4c63803a 	cmpltu	r17,r9,r17
   44d18:	10c7883a 	add	r3,r2,r3
   44d1c:	88c7883a 	add	r3,r17,r3
   44d20:	4823883a 	mov	r17,r9
   44d24:	1880202c 	andhi	r2,r3,128
   44d28:	1000d026 	beq	r2,zero,4506c <__subdf3+0x5c8>
   44d2c:	84000044 	addi	r16,r16,1
   44d30:	0081ffc4 	movi	r2,2047
   44d34:	8080fe26 	beq	r16,r2,45130 <__subdf3+0x68c>
   44d38:	00bfe034 	movhi	r2,65408
   44d3c:	10bfffc4 	addi	r2,r2,-1
   44d40:	1886703a 	and	r3,r3,r2
   44d44:	880ad07a 	srli	r5,r17,1
   44d48:	180497fa 	slli	r2,r3,31
   44d4c:	8900004c 	andi	r4,r17,1
   44d50:	2922b03a 	or	r17,r5,r4
   44d54:	1806d07a 	srli	r3,r3,1
   44d58:	1462b03a 	or	r17,r2,r17
   44d5c:	3825883a 	mov	r18,r7
   44d60:	003f7106 	br	44b28 <__alt_data_end+0xfffdda28>
   44d64:	2984b03a 	or	r2,r5,r6
   44d68:	103f6826 	beq	r2,zero,44b0c <__alt_data_end+0xfffdda0c>
   44d6c:	39c03fcc 	andi	r7,r7,255
   44d70:	003f6706 	br	44b10 <__alt_data_end+0xfffdda10>
   44d74:	4086b03a 	or	r3,r8,r2
   44d78:	18015226 	beq	r3,zero,452c4 <__subdf3+0x820>
   44d7c:	00c00434 	movhi	r3,16
   44d80:	41400234 	orhi	r5,r8,8
   44d84:	18ffffc4 	addi	r3,r3,-1
   44d88:	28ca703a 	and	r5,r5,r3
   44d8c:	003f7e06 	br	44b88 <__alt_data_end+0xfffdda88>
   44d90:	10bfffc4 	addi	r2,r2,-1
   44d94:	1000491e 	bne	r2,zero,44ebc <__subdf3+0x418>
   44d98:	898fc83a 	sub	r7,r17,r6
   44d9c:	89e3803a 	cmpltu	r17,r17,r7
   44da0:	1947c83a 	sub	r3,r3,r5
   44da4:	1c47c83a 	sub	r3,r3,r17
   44da8:	3823883a 	mov	r17,r7
   44dac:	003f9b06 	br	44c1c <__alt_data_end+0xfffddb1c>
   44db0:	2988b03a 	or	r4,r5,r6
   44db4:	203f5c26 	beq	r4,zero,44b28 <__alt_data_end+0xfffdda28>
   44db8:	10bfffc4 	addi	r2,r2,-1
   44dbc:	1000931e 	bne	r2,zero,4500c <__subdf3+0x568>
   44dc0:	898d883a 	add	r6,r17,r6
   44dc4:	3463803a 	cmpltu	r17,r6,r17
   44dc8:	1947883a 	add	r3,r3,r5
   44dcc:	88c7883a 	add	r3,r17,r3
   44dd0:	3023883a 	mov	r17,r6
   44dd4:	003fd306 	br	44d24 <__alt_data_end+0xfffddc24>
   44dd8:	1000541e 	bne	r2,zero,44f2c <__subdf3+0x488>
   44ddc:	80800044 	addi	r2,r16,1
   44de0:	1081ffcc 	andi	r2,r2,2047
   44de4:	01000044 	movi	r4,1
   44de8:	2080a20e 	bge	r4,r2,45074 <__subdf3+0x5d0>
   44dec:	8989c83a 	sub	r4,r17,r6
   44df0:	8905803a 	cmpltu	r2,r17,r4
   44df4:	1967c83a 	sub	r19,r3,r5
   44df8:	98a7c83a 	sub	r19,r19,r2
   44dfc:	9880202c 	andhi	r2,r19,128
   44e00:	10006326 	beq	r2,zero,44f90 <__subdf3+0x4ec>
   44e04:	3463c83a 	sub	r17,r6,r17
   44e08:	28c7c83a 	sub	r3,r5,r3
   44e0c:	344d803a 	cmpltu	r6,r6,r17
   44e10:	19a7c83a 	sub	r19,r3,r6
   44e14:	3825883a 	mov	r18,r7
   44e18:	983f861e 	bne	r19,zero,44c34 <__alt_data_end+0xfffddb34>
   44e1c:	8809883a 	mov	r4,r17
   44e20:	00457b40 	call	457b4 <__clzsi2>
   44e24:	10800804 	addi	r2,r2,32
   44e28:	113ffe04 	addi	r4,r2,-8
   44e2c:	00c007c4 	movi	r3,31
   44e30:	193f850e 	bge	r3,r4,44c48 <__alt_data_end+0xfffddb48>
   44e34:	10bff604 	addi	r2,r2,-40
   44e38:	8884983a 	sll	r2,r17,r2
   44e3c:	0023883a 	mov	r17,zero
   44e40:	243f880e 	bge	r4,r16,44c64 <__alt_data_end+0xfffddb64>
   44e44:	00ffe034 	movhi	r3,65408
   44e48:	18ffffc4 	addi	r3,r3,-1
   44e4c:	8121c83a 	sub	r16,r16,r4
   44e50:	10c6703a 	and	r3,r2,r3
   44e54:	003f3406 	br	44b28 <__alt_data_end+0xfffdda28>
   44e58:	9100004c 	andi	r4,r18,1
   44e5c:	000b883a 	mov	r5,zero
   44e60:	0005883a 	mov	r2,zero
   44e64:	003f4806 	br	44b88 <__alt_data_end+0xfffdda88>
   44e68:	298cb03a 	or	r6,r5,r6
   44e6c:	300cc03a 	cmpne	r6,r6,zero
   44e70:	0005883a 	mov	r2,zero
   44e74:	003f6406 	br	44c08 <__alt_data_end+0xfffddb08>
   44e78:	10009a1e 	bne	r2,zero,450e4 <__subdf3+0x640>
   44e7c:	82400044 	addi	r9,r16,1
   44e80:	4881ffcc 	andi	r2,r9,2047
   44e84:	02800044 	movi	r10,1
   44e88:	5080670e 	bge	r10,r2,45028 <__subdf3+0x584>
   44e8c:	0081ffc4 	movi	r2,2047
   44e90:	4880af26 	beq	r9,r2,45150 <__subdf3+0x6ac>
   44e94:	898d883a 	add	r6,r17,r6
   44e98:	1945883a 	add	r2,r3,r5
   44e9c:	3447803a 	cmpltu	r3,r6,r17
   44ea0:	1887883a 	add	r3,r3,r2
   44ea4:	182297fa 	slli	r17,r3,31
   44ea8:	300cd07a 	srli	r6,r6,1
   44eac:	1806d07a 	srli	r3,r3,1
   44eb0:	4821883a 	mov	r16,r9
   44eb4:	89a2b03a 	or	r17,r17,r6
   44eb8:	003f1b06 	br	44b28 <__alt_data_end+0xfffdda28>
   44ebc:	0101ffc4 	movi	r4,2047
   44ec0:	813f441e 	bne	r16,r4,44bd4 <__alt_data_end+0xfffddad4>
   44ec4:	003f1806 	br	44b28 <__alt_data_end+0xfffdda28>
   44ec8:	843ff844 	addi	r16,r16,-31
   44ecc:	01400804 	movi	r5,32
   44ed0:	1408d83a 	srl	r4,r2,r16
   44ed4:	19405026 	beq	r3,r5,45018 <__subdf3+0x574>
   44ed8:	01401004 	movi	r5,64
   44edc:	28c7c83a 	sub	r3,r5,r3
   44ee0:	10c4983a 	sll	r2,r2,r3
   44ee4:	88a2b03a 	or	r17,r17,r2
   44ee8:	8822c03a 	cmpne	r17,r17,zero
   44eec:	2462b03a 	or	r17,r4,r17
   44ef0:	0007883a 	mov	r3,zero
   44ef4:	0021883a 	mov	r16,zero
   44ef8:	003f6d06 	br	44cb0 <__alt_data_end+0xfffddbb0>
   44efc:	11fff804 	addi	r7,r2,-32
   44f00:	01000804 	movi	r4,32
   44f04:	29ced83a 	srl	r7,r5,r7
   44f08:	11004526 	beq	r2,r4,45020 <__subdf3+0x57c>
   44f0c:	01001004 	movi	r4,64
   44f10:	2089c83a 	sub	r4,r4,r2
   44f14:	2904983a 	sll	r2,r5,r4
   44f18:	118cb03a 	or	r6,r2,r6
   44f1c:	300cc03a 	cmpne	r6,r6,zero
   44f20:	398cb03a 	or	r6,r7,r6
   44f24:	0005883a 	mov	r2,zero
   44f28:	003f3706 	br	44c08 <__alt_data_end+0xfffddb08>
   44f2c:	80002a26 	beq	r16,zero,44fd8 <__subdf3+0x534>
   44f30:	0101ffc4 	movi	r4,2047
   44f34:	49006626 	beq	r9,r4,450d0 <__subdf3+0x62c>
   44f38:	0085c83a 	sub	r2,zero,r2
   44f3c:	18c02034 	orhi	r3,r3,128
   44f40:	01000e04 	movi	r4,56
   44f44:	20807e16 	blt	r4,r2,45140 <__subdf3+0x69c>
   44f48:	010007c4 	movi	r4,31
   44f4c:	2080e716 	blt	r4,r2,452ec <__subdf3+0x848>
   44f50:	01000804 	movi	r4,32
   44f54:	2089c83a 	sub	r4,r4,r2
   44f58:	1914983a 	sll	r10,r3,r4
   44f5c:	8890d83a 	srl	r8,r17,r2
   44f60:	8908983a 	sll	r4,r17,r4
   44f64:	1884d83a 	srl	r2,r3,r2
   44f68:	5222b03a 	or	r17,r10,r8
   44f6c:	2006c03a 	cmpne	r3,r4,zero
   44f70:	88e2b03a 	or	r17,r17,r3
   44f74:	3463c83a 	sub	r17,r6,r17
   44f78:	2885c83a 	sub	r2,r5,r2
   44f7c:	344d803a 	cmpltu	r6,r6,r17
   44f80:	1187c83a 	sub	r3,r2,r6
   44f84:	4821883a 	mov	r16,r9
   44f88:	3825883a 	mov	r18,r7
   44f8c:	003f2306 	br	44c1c <__alt_data_end+0xfffddb1c>
   44f90:	24d0b03a 	or	r8,r4,r19
   44f94:	40001b1e 	bne	r8,zero,45004 <__subdf3+0x560>
   44f98:	0005883a 	mov	r2,zero
   44f9c:	0009883a 	mov	r4,zero
   44fa0:	0021883a 	mov	r16,zero
   44fa4:	003f4906 	br	44ccc <__alt_data_end+0xfffddbcc>
   44fa8:	010007c4 	movi	r4,31
   44fac:	20803a16 	blt	r4,r2,45098 <__subdf3+0x5f4>
   44fb0:	01000804 	movi	r4,32
   44fb4:	2089c83a 	sub	r4,r4,r2
   44fb8:	2912983a 	sll	r9,r5,r4
   44fbc:	3090d83a 	srl	r8,r6,r2
   44fc0:	3108983a 	sll	r4,r6,r4
   44fc4:	2884d83a 	srl	r2,r5,r2
   44fc8:	4a12b03a 	or	r9,r9,r8
   44fcc:	2008c03a 	cmpne	r4,r4,zero
   44fd0:	4912b03a 	or	r9,r9,r4
   44fd4:	003f4e06 	br	44d10 <__alt_data_end+0xfffddc10>
   44fd8:	1c48b03a 	or	r4,r3,r17
   44fdc:	20003c26 	beq	r4,zero,450d0 <__subdf3+0x62c>
   44fe0:	0084303a 	nor	r2,zero,r2
   44fe4:	1000381e 	bne	r2,zero,450c8 <__subdf3+0x624>
   44fe8:	3463c83a 	sub	r17,r6,r17
   44fec:	28c5c83a 	sub	r2,r5,r3
   44ff0:	344d803a 	cmpltu	r6,r6,r17
   44ff4:	1187c83a 	sub	r3,r2,r6
   44ff8:	4821883a 	mov	r16,r9
   44ffc:	3825883a 	mov	r18,r7
   45000:	003f0606 	br	44c1c <__alt_data_end+0xfffddb1c>
   45004:	2023883a 	mov	r17,r4
   45008:	003f0906 	br	44c30 <__alt_data_end+0xfffddb30>
   4500c:	0101ffc4 	movi	r4,2047
   45010:	813f3a1e 	bne	r16,r4,44cfc <__alt_data_end+0xfffddbfc>
   45014:	003ec406 	br	44b28 <__alt_data_end+0xfffdda28>
   45018:	0005883a 	mov	r2,zero
   4501c:	003fb106 	br	44ee4 <__alt_data_end+0xfffddde4>
   45020:	0005883a 	mov	r2,zero
   45024:	003fbc06 	br	44f18 <__alt_data_end+0xfffdde18>
   45028:	1c44b03a 	or	r2,r3,r17
   4502c:	80008e1e 	bne	r16,zero,45268 <__subdf3+0x7c4>
   45030:	1000c826 	beq	r2,zero,45354 <__subdf3+0x8b0>
   45034:	2984b03a 	or	r2,r5,r6
   45038:	103ebb26 	beq	r2,zero,44b28 <__alt_data_end+0xfffdda28>
   4503c:	8989883a 	add	r4,r17,r6
   45040:	1945883a 	add	r2,r3,r5
   45044:	2447803a 	cmpltu	r3,r4,r17
   45048:	1887883a 	add	r3,r3,r2
   4504c:	1880202c 	andhi	r2,r3,128
   45050:	2023883a 	mov	r17,r4
   45054:	103f1626 	beq	r2,zero,44cb0 <__alt_data_end+0xfffddbb0>
   45058:	00bfe034 	movhi	r2,65408
   4505c:	10bfffc4 	addi	r2,r2,-1
   45060:	5021883a 	mov	r16,r10
   45064:	1886703a 	and	r3,r3,r2
   45068:	003eaf06 	br	44b28 <__alt_data_end+0xfffdda28>
   4506c:	3825883a 	mov	r18,r7
   45070:	003f0f06 	br	44cb0 <__alt_data_end+0xfffddbb0>
   45074:	1c44b03a 	or	r2,r3,r17
   45078:	8000251e 	bne	r16,zero,45110 <__subdf3+0x66c>
   4507c:	1000661e 	bne	r2,zero,45218 <__subdf3+0x774>
   45080:	2990b03a 	or	r8,r5,r6
   45084:	40009626 	beq	r8,zero,452e0 <__subdf3+0x83c>
   45088:	2807883a 	mov	r3,r5
   4508c:	3023883a 	mov	r17,r6
   45090:	3825883a 	mov	r18,r7
   45094:	003ea406 	br	44b28 <__alt_data_end+0xfffdda28>
   45098:	127ff804 	addi	r9,r2,-32
   4509c:	01000804 	movi	r4,32
   450a0:	2a52d83a 	srl	r9,r5,r9
   450a4:	11008c26 	beq	r2,r4,452d8 <__subdf3+0x834>
   450a8:	01001004 	movi	r4,64
   450ac:	2085c83a 	sub	r2,r4,r2
   450b0:	2884983a 	sll	r2,r5,r2
   450b4:	118cb03a 	or	r6,r2,r6
   450b8:	300cc03a 	cmpne	r6,r6,zero
   450bc:	4992b03a 	or	r9,r9,r6
   450c0:	0005883a 	mov	r2,zero
   450c4:	003f1206 	br	44d10 <__alt_data_end+0xfffddc10>
   450c8:	0101ffc4 	movi	r4,2047
   450cc:	493f9c1e 	bne	r9,r4,44f40 <__alt_data_end+0xfffdde40>
   450d0:	2807883a 	mov	r3,r5
   450d4:	3023883a 	mov	r17,r6
   450d8:	4821883a 	mov	r16,r9
   450dc:	3825883a 	mov	r18,r7
   450e0:	003e9106 	br	44b28 <__alt_data_end+0xfffdda28>
   450e4:	80001f1e 	bne	r16,zero,45164 <__subdf3+0x6c0>
   450e8:	1c48b03a 	or	r4,r3,r17
   450ec:	20005a26 	beq	r4,zero,45258 <__subdf3+0x7b4>
   450f0:	0084303a 	nor	r2,zero,r2
   450f4:	1000561e 	bne	r2,zero,45250 <__subdf3+0x7ac>
   450f8:	89a3883a 	add	r17,r17,r6
   450fc:	1945883a 	add	r2,r3,r5
   45100:	898d803a 	cmpltu	r6,r17,r6
   45104:	3087883a 	add	r3,r6,r2
   45108:	4821883a 	mov	r16,r9
   4510c:	003f0506 	br	44d24 <__alt_data_end+0xfffddc24>
   45110:	10002b1e 	bne	r2,zero,451c0 <__subdf3+0x71c>
   45114:	2984b03a 	or	r2,r5,r6
   45118:	10008026 	beq	r2,zero,4531c <__subdf3+0x878>
   4511c:	2807883a 	mov	r3,r5
   45120:	3023883a 	mov	r17,r6
   45124:	3825883a 	mov	r18,r7
   45128:	0401ffc4 	movi	r16,2047
   4512c:	003e7e06 	br	44b28 <__alt_data_end+0xfffdda28>
   45130:	3809883a 	mov	r4,r7
   45134:	0011883a 	mov	r8,zero
   45138:	0005883a 	mov	r2,zero
   4513c:	003ee306 	br	44ccc <__alt_data_end+0xfffddbcc>
   45140:	1c62b03a 	or	r17,r3,r17
   45144:	8822c03a 	cmpne	r17,r17,zero
   45148:	0005883a 	mov	r2,zero
   4514c:	003f8906 	br	44f74 <__alt_data_end+0xfffdde74>
   45150:	3809883a 	mov	r4,r7
   45154:	4821883a 	mov	r16,r9
   45158:	0011883a 	mov	r8,zero
   4515c:	0005883a 	mov	r2,zero
   45160:	003eda06 	br	44ccc <__alt_data_end+0xfffddbcc>
   45164:	0101ffc4 	movi	r4,2047
   45168:	49003b26 	beq	r9,r4,45258 <__subdf3+0x7b4>
   4516c:	0085c83a 	sub	r2,zero,r2
   45170:	18c02034 	orhi	r3,r3,128
   45174:	01000e04 	movi	r4,56
   45178:	20806e16 	blt	r4,r2,45334 <__subdf3+0x890>
   4517c:	010007c4 	movi	r4,31
   45180:	20807716 	blt	r4,r2,45360 <__subdf3+0x8bc>
   45184:	01000804 	movi	r4,32
   45188:	2089c83a 	sub	r4,r4,r2
   4518c:	1914983a 	sll	r10,r3,r4
   45190:	8890d83a 	srl	r8,r17,r2
   45194:	8908983a 	sll	r4,r17,r4
   45198:	1884d83a 	srl	r2,r3,r2
   4519c:	5222b03a 	or	r17,r10,r8
   451a0:	2006c03a 	cmpne	r3,r4,zero
   451a4:	88e2b03a 	or	r17,r17,r3
   451a8:	89a3883a 	add	r17,r17,r6
   451ac:	1145883a 	add	r2,r2,r5
   451b0:	898d803a 	cmpltu	r6,r17,r6
   451b4:	3087883a 	add	r3,r6,r2
   451b8:	4821883a 	mov	r16,r9
   451bc:	003ed906 	br	44d24 <__alt_data_end+0xfffddc24>
   451c0:	2984b03a 	or	r2,r5,r6
   451c4:	10004226 	beq	r2,zero,452d0 <__subdf3+0x82c>
   451c8:	1808d0fa 	srli	r4,r3,3
   451cc:	8822d0fa 	srli	r17,r17,3
   451d0:	1806977a 	slli	r3,r3,29
   451d4:	2080022c 	andhi	r2,r4,8
   451d8:	1c62b03a 	or	r17,r3,r17
   451dc:	10000826 	beq	r2,zero,45200 <__subdf3+0x75c>
   451e0:	2812d0fa 	srli	r9,r5,3
   451e4:	4880022c 	andhi	r2,r9,8
   451e8:	1000051e 	bne	r2,zero,45200 <__subdf3+0x75c>
   451ec:	300cd0fa 	srli	r6,r6,3
   451f0:	2804977a 	slli	r2,r5,29
   451f4:	4809883a 	mov	r4,r9
   451f8:	3825883a 	mov	r18,r7
   451fc:	11a2b03a 	or	r17,r2,r6
   45200:	8806d77a 	srli	r3,r17,29
   45204:	200890fa 	slli	r4,r4,3
   45208:	882290fa 	slli	r17,r17,3
   4520c:	0401ffc4 	movi	r16,2047
   45210:	1906b03a 	or	r3,r3,r4
   45214:	003e4406 	br	44b28 <__alt_data_end+0xfffdda28>
   45218:	2984b03a 	or	r2,r5,r6
   4521c:	103e4226 	beq	r2,zero,44b28 <__alt_data_end+0xfffdda28>
   45220:	8989c83a 	sub	r4,r17,r6
   45224:	8911803a 	cmpltu	r8,r17,r4
   45228:	1945c83a 	sub	r2,r3,r5
   4522c:	1205c83a 	sub	r2,r2,r8
   45230:	1200202c 	andhi	r8,r2,128
   45234:	403e9a26 	beq	r8,zero,44ca0 <__alt_data_end+0xfffddba0>
   45238:	3463c83a 	sub	r17,r6,r17
   4523c:	28c5c83a 	sub	r2,r5,r3
   45240:	344d803a 	cmpltu	r6,r6,r17
   45244:	1187c83a 	sub	r3,r2,r6
   45248:	3825883a 	mov	r18,r7
   4524c:	003e3606 	br	44b28 <__alt_data_end+0xfffdda28>
   45250:	0101ffc4 	movi	r4,2047
   45254:	493fc71e 	bne	r9,r4,45174 <__alt_data_end+0xfffde074>
   45258:	2807883a 	mov	r3,r5
   4525c:	3023883a 	mov	r17,r6
   45260:	4821883a 	mov	r16,r9
   45264:	003e3006 	br	44b28 <__alt_data_end+0xfffdda28>
   45268:	10003626 	beq	r2,zero,45344 <__subdf3+0x8a0>
   4526c:	2984b03a 	or	r2,r5,r6
   45270:	10001726 	beq	r2,zero,452d0 <__subdf3+0x82c>
   45274:	1808d0fa 	srli	r4,r3,3
   45278:	8822d0fa 	srli	r17,r17,3
   4527c:	1806977a 	slli	r3,r3,29
   45280:	2080022c 	andhi	r2,r4,8
   45284:	1c62b03a 	or	r17,r3,r17
   45288:	10000726 	beq	r2,zero,452a8 <__subdf3+0x804>
   4528c:	2812d0fa 	srli	r9,r5,3
   45290:	4880022c 	andhi	r2,r9,8
   45294:	1000041e 	bne	r2,zero,452a8 <__subdf3+0x804>
   45298:	300cd0fa 	srli	r6,r6,3
   4529c:	2804977a 	slli	r2,r5,29
   452a0:	4809883a 	mov	r4,r9
   452a4:	11a2b03a 	or	r17,r2,r6
   452a8:	8806d77a 	srli	r3,r17,29
   452ac:	200890fa 	slli	r4,r4,3
   452b0:	882290fa 	slli	r17,r17,3
   452b4:	3825883a 	mov	r18,r7
   452b8:	1906b03a 	or	r3,r3,r4
   452bc:	0401ffc4 	movi	r16,2047
   452c0:	003e1906 	br	44b28 <__alt_data_end+0xfffdda28>
   452c4:	000b883a 	mov	r5,zero
   452c8:	0005883a 	mov	r2,zero
   452cc:	003e2e06 	br	44b88 <__alt_data_end+0xfffdda88>
   452d0:	0401ffc4 	movi	r16,2047
   452d4:	003e1406 	br	44b28 <__alt_data_end+0xfffdda28>
   452d8:	0005883a 	mov	r2,zero
   452dc:	003f7506 	br	450b4 <__alt_data_end+0xfffddfb4>
   452e0:	0005883a 	mov	r2,zero
   452e4:	0009883a 	mov	r4,zero
   452e8:	003e7806 	br	44ccc <__alt_data_end+0xfffddbcc>
   452ec:	123ff804 	addi	r8,r2,-32
   452f0:	01000804 	movi	r4,32
   452f4:	1a10d83a 	srl	r8,r3,r8
   452f8:	11002526 	beq	r2,r4,45390 <__subdf3+0x8ec>
   452fc:	01001004 	movi	r4,64
   45300:	2085c83a 	sub	r2,r4,r2
   45304:	1884983a 	sll	r2,r3,r2
   45308:	1444b03a 	or	r2,r2,r17
   4530c:	1004c03a 	cmpne	r2,r2,zero
   45310:	40a2b03a 	or	r17,r8,r2
   45314:	0005883a 	mov	r2,zero
   45318:	003f1606 	br	44f74 <__alt_data_end+0xfffdde74>
   4531c:	02000434 	movhi	r8,16
   45320:	0009883a 	mov	r4,zero
   45324:	423fffc4 	addi	r8,r8,-1
   45328:	00bfffc4 	movi	r2,-1
   4532c:	0401ffc4 	movi	r16,2047
   45330:	003e6606 	br	44ccc <__alt_data_end+0xfffddbcc>
   45334:	1c62b03a 	or	r17,r3,r17
   45338:	8822c03a 	cmpne	r17,r17,zero
   4533c:	0005883a 	mov	r2,zero
   45340:	003f9906 	br	451a8 <__alt_data_end+0xfffde0a8>
   45344:	2807883a 	mov	r3,r5
   45348:	3023883a 	mov	r17,r6
   4534c:	0401ffc4 	movi	r16,2047
   45350:	003df506 	br	44b28 <__alt_data_end+0xfffdda28>
   45354:	2807883a 	mov	r3,r5
   45358:	3023883a 	mov	r17,r6
   4535c:	003df206 	br	44b28 <__alt_data_end+0xfffdda28>
   45360:	123ff804 	addi	r8,r2,-32
   45364:	01000804 	movi	r4,32
   45368:	1a10d83a 	srl	r8,r3,r8
   4536c:	11000a26 	beq	r2,r4,45398 <__subdf3+0x8f4>
   45370:	01001004 	movi	r4,64
   45374:	2085c83a 	sub	r2,r4,r2
   45378:	1884983a 	sll	r2,r3,r2
   4537c:	1444b03a 	or	r2,r2,r17
   45380:	1004c03a 	cmpne	r2,r2,zero
   45384:	40a2b03a 	or	r17,r8,r2
   45388:	0005883a 	mov	r2,zero
   4538c:	003f8606 	br	451a8 <__alt_data_end+0xfffde0a8>
   45390:	0005883a 	mov	r2,zero
   45394:	003fdc06 	br	45308 <__alt_data_end+0xfffde208>
   45398:	0005883a 	mov	r2,zero
   4539c:	003ff706 	br	4537c <__alt_data_end+0xfffde27c>

000453a0 <__fixdfsi>:
   453a0:	280cd53a 	srli	r6,r5,20
   453a4:	00c00434 	movhi	r3,16
   453a8:	18ffffc4 	addi	r3,r3,-1
   453ac:	3181ffcc 	andi	r6,r6,2047
   453b0:	01c0ff84 	movi	r7,1022
   453b4:	28c6703a 	and	r3,r5,r3
   453b8:	280ad7fa 	srli	r5,r5,31
   453bc:	3980120e 	bge	r7,r6,45408 <__fixdfsi+0x68>
   453c0:	00810744 	movi	r2,1053
   453c4:	11800c16 	blt	r2,r6,453f8 <__fixdfsi+0x58>
   453c8:	00810cc4 	movi	r2,1075
   453cc:	1185c83a 	sub	r2,r2,r6
   453d0:	01c007c4 	movi	r7,31
   453d4:	18c00434 	orhi	r3,r3,16
   453d8:	38800d16 	blt	r7,r2,45410 <__fixdfsi+0x70>
   453dc:	31befb44 	addi	r6,r6,-1043
   453e0:	2084d83a 	srl	r2,r4,r2
   453e4:	1986983a 	sll	r3,r3,r6
   453e8:	1884b03a 	or	r2,r3,r2
   453ec:	28000726 	beq	r5,zero,4540c <__fixdfsi+0x6c>
   453f0:	0085c83a 	sub	r2,zero,r2
   453f4:	f800283a 	ret
   453f8:	00a00034 	movhi	r2,32768
   453fc:	10bfffc4 	addi	r2,r2,-1
   45400:	2885883a 	add	r2,r5,r2
   45404:	f800283a 	ret
   45408:	0005883a 	mov	r2,zero
   4540c:	f800283a 	ret
   45410:	008104c4 	movi	r2,1043
   45414:	1185c83a 	sub	r2,r2,r6
   45418:	1884d83a 	srl	r2,r3,r2
   4541c:	003ff306 	br	453ec <__alt_data_end+0xfffde2ec>

00045420 <__floatsidf>:
   45420:	defffd04 	addi	sp,sp,-12
   45424:	dfc00215 	stw	ra,8(sp)
   45428:	dc400115 	stw	r17,4(sp)
   4542c:	dc000015 	stw	r16,0(sp)
   45430:	20002b26 	beq	r4,zero,454e0 <__floatsidf+0xc0>
   45434:	2023883a 	mov	r17,r4
   45438:	2020d7fa 	srli	r16,r4,31
   4543c:	20002d16 	blt	r4,zero,454f4 <__floatsidf+0xd4>
   45440:	8809883a 	mov	r4,r17
   45444:	00457b40 	call	457b4 <__clzsi2>
   45448:	01410784 	movi	r5,1054
   4544c:	288bc83a 	sub	r5,r5,r2
   45450:	01010cc4 	movi	r4,1075
   45454:	2149c83a 	sub	r4,r4,r5
   45458:	00c007c4 	movi	r3,31
   4545c:	1900160e 	bge	r3,r4,454b8 <__floatsidf+0x98>
   45460:	00c104c4 	movi	r3,1043
   45464:	1947c83a 	sub	r3,r3,r5
   45468:	88c6983a 	sll	r3,r17,r3
   4546c:	00800434 	movhi	r2,16
   45470:	10bfffc4 	addi	r2,r2,-1
   45474:	1886703a 	and	r3,r3,r2
   45478:	2941ffcc 	andi	r5,r5,2047
   4547c:	800d883a 	mov	r6,r16
   45480:	0005883a 	mov	r2,zero
   45484:	280a953a 	slli	r5,r5,20
   45488:	31803fcc 	andi	r6,r6,255
   4548c:	01000434 	movhi	r4,16
   45490:	300c97fa 	slli	r6,r6,31
   45494:	213fffc4 	addi	r4,r4,-1
   45498:	1906703a 	and	r3,r3,r4
   4549c:	1946b03a 	or	r3,r3,r5
   454a0:	1986b03a 	or	r3,r3,r6
   454a4:	dfc00217 	ldw	ra,8(sp)
   454a8:	dc400117 	ldw	r17,4(sp)
   454ac:	dc000017 	ldw	r16,0(sp)
   454b0:	dec00304 	addi	sp,sp,12
   454b4:	f800283a 	ret
   454b8:	00c002c4 	movi	r3,11
   454bc:	1887c83a 	sub	r3,r3,r2
   454c0:	88c6d83a 	srl	r3,r17,r3
   454c4:	8904983a 	sll	r2,r17,r4
   454c8:	01000434 	movhi	r4,16
   454cc:	213fffc4 	addi	r4,r4,-1
   454d0:	2941ffcc 	andi	r5,r5,2047
   454d4:	1906703a 	and	r3,r3,r4
   454d8:	800d883a 	mov	r6,r16
   454dc:	003fe906 	br	45484 <__alt_data_end+0xfffde384>
   454e0:	000d883a 	mov	r6,zero
   454e4:	000b883a 	mov	r5,zero
   454e8:	0007883a 	mov	r3,zero
   454ec:	0005883a 	mov	r2,zero
   454f0:	003fe406 	br	45484 <__alt_data_end+0xfffde384>
   454f4:	0123c83a 	sub	r17,zero,r4
   454f8:	003fd106 	br	45440 <__alt_data_end+0xfffde340>

000454fc <__extendsfdf2>:
   454fc:	200ad5fa 	srli	r5,r4,23
   45500:	defffd04 	addi	sp,sp,-12
   45504:	dc400115 	stw	r17,4(sp)
   45508:	29403fcc 	andi	r5,r5,255
   4550c:	29800044 	addi	r6,r5,1
   45510:	04402034 	movhi	r17,128
   45514:	dc000015 	stw	r16,0(sp)
   45518:	8c7fffc4 	addi	r17,r17,-1
   4551c:	dfc00215 	stw	ra,8(sp)
   45520:	31803fcc 	andi	r6,r6,255
   45524:	00800044 	movi	r2,1
   45528:	8922703a 	and	r17,r17,r4
   4552c:	2020d7fa 	srli	r16,r4,31
   45530:	1180110e 	bge	r2,r6,45578 <__extendsfdf2+0x7c>
   45534:	880cd0fa 	srli	r6,r17,3
   45538:	8822977a 	slli	r17,r17,29
   4553c:	2940e004 	addi	r5,r5,896
   45540:	2941ffcc 	andi	r5,r5,2047
   45544:	2804953a 	slli	r2,r5,20
   45548:	01400434 	movhi	r5,16
   4554c:	800697fa 	slli	r3,r16,31
   45550:	297fffc4 	addi	r5,r5,-1
   45554:	314a703a 	and	r5,r6,r5
   45558:	288ab03a 	or	r5,r5,r2
   4555c:	28c6b03a 	or	r3,r5,r3
   45560:	8805883a 	mov	r2,r17
   45564:	dfc00217 	ldw	ra,8(sp)
   45568:	dc400117 	ldw	r17,4(sp)
   4556c:	dc000017 	ldw	r16,0(sp)
   45570:	dec00304 	addi	sp,sp,12
   45574:	f800283a 	ret
   45578:	2800111e 	bne	r5,zero,455c0 <__extendsfdf2+0xc4>
   4557c:	88001c26 	beq	r17,zero,455f0 <__extendsfdf2+0xf4>
   45580:	8809883a 	mov	r4,r17
   45584:	00457b40 	call	457b4 <__clzsi2>
   45588:	00c00284 	movi	r3,10
   4558c:	18801b16 	blt	r3,r2,455fc <__extendsfdf2+0x100>
   45590:	018002c4 	movi	r6,11
   45594:	308dc83a 	sub	r6,r6,r2
   45598:	11000544 	addi	r4,r2,21
   4559c:	8986d83a 	srl	r3,r17,r6
   455a0:	8922983a 	sll	r17,r17,r4
   455a4:	0180e244 	movi	r6,905
   455a8:	01400434 	movhi	r5,16
   455ac:	3085c83a 	sub	r2,r6,r2
   455b0:	297fffc4 	addi	r5,r5,-1
   455b4:	194c703a 	and	r6,r3,r5
   455b8:	1141ffcc 	andi	r5,r2,2047
   455bc:	003fe006 	br	45540 <__alt_data_end+0xfffde440>
   455c0:	88000826 	beq	r17,zero,455e4 <__extendsfdf2+0xe8>
   455c4:	880cd0fa 	srli	r6,r17,3
   455c8:	00800434 	movhi	r2,16
   455cc:	10bfffc4 	addi	r2,r2,-1
   455d0:	31800234 	orhi	r6,r6,8
   455d4:	8822977a 	slli	r17,r17,29
   455d8:	308c703a 	and	r6,r6,r2
   455dc:	0141ffc4 	movi	r5,2047
   455e0:	003fd706 	br	45540 <__alt_data_end+0xfffde440>
   455e4:	0141ffc4 	movi	r5,2047
   455e8:	000d883a 	mov	r6,zero
   455ec:	003fd406 	br	45540 <__alt_data_end+0xfffde440>
   455f0:	000b883a 	mov	r5,zero
   455f4:	000d883a 	mov	r6,zero
   455f8:	003fd106 	br	45540 <__alt_data_end+0xfffde440>
   455fc:	11bffd44 	addi	r6,r2,-11
   45600:	8986983a 	sll	r3,r17,r6
   45604:	0023883a 	mov	r17,zero
   45608:	003fe606 	br	455a4 <__alt_data_end+0xfffde4a4>

0004560c <__truncdfsf2>:
   4560c:	2810d53a 	srli	r8,r5,20
   45610:	01c00434 	movhi	r7,16
   45614:	39ffffc4 	addi	r7,r7,-1
   45618:	29ce703a 	and	r7,r5,r7
   4561c:	4201ffcc 	andi	r8,r8,2047
   45620:	380e90fa 	slli	r7,r7,3
   45624:	200cd77a 	srli	r6,r4,29
   45628:	42400044 	addi	r9,r8,1
   4562c:	4a41ffcc 	andi	r9,r9,2047
   45630:	00c00044 	movi	r3,1
   45634:	280ad7fa 	srli	r5,r5,31
   45638:	31ceb03a 	or	r7,r6,r7
   4563c:	200490fa 	slli	r2,r4,3
   45640:	1a40230e 	bge	r3,r9,456d0 <__truncdfsf2+0xc4>
   45644:	40ff2004 	addi	r3,r8,-896
   45648:	01803f84 	movi	r6,254
   4564c:	30c01516 	blt	r6,r3,456a4 <__truncdfsf2+0x98>
   45650:	00c0380e 	bge	zero,r3,45734 <__truncdfsf2+0x128>
   45654:	200c91ba 	slli	r6,r4,6
   45658:	380e90fa 	slli	r7,r7,3
   4565c:	1004d77a 	srli	r2,r2,29
   45660:	300cc03a 	cmpne	r6,r6,zero
   45664:	31ccb03a 	or	r6,r6,r7
   45668:	308cb03a 	or	r6,r6,r2
   4566c:	308001cc 	andi	r2,r6,7
   45670:	10000426 	beq	r2,zero,45684 <__truncdfsf2+0x78>
   45674:	308003cc 	andi	r2,r6,15
   45678:	01000104 	movi	r4,4
   4567c:	11000126 	beq	r2,r4,45684 <__truncdfsf2+0x78>
   45680:	31800104 	addi	r6,r6,4
   45684:	3081002c 	andhi	r2,r6,1024
   45688:	10001626 	beq	r2,zero,456e4 <__truncdfsf2+0xd8>
   4568c:	18c00044 	addi	r3,r3,1
   45690:	00803fc4 	movi	r2,255
   45694:	18800326 	beq	r3,r2,456a4 <__truncdfsf2+0x98>
   45698:	300c91ba 	slli	r6,r6,6
   4569c:	300cd27a 	srli	r6,r6,9
   456a0:	00000206 	br	456ac <__truncdfsf2+0xa0>
   456a4:	00ffffc4 	movi	r3,-1
   456a8:	000d883a 	mov	r6,zero
   456ac:	18c03fcc 	andi	r3,r3,255
   456b0:	180895fa 	slli	r4,r3,23
   456b4:	00c02034 	movhi	r3,128
   456b8:	280a97fa 	slli	r5,r5,31
   456bc:	18ffffc4 	addi	r3,r3,-1
   456c0:	30c6703a 	and	r3,r6,r3
   456c4:	1906b03a 	or	r3,r3,r4
   456c8:	1944b03a 	or	r2,r3,r5
   456cc:	f800283a 	ret
   456d0:	40000b1e 	bne	r8,zero,45700 <__truncdfsf2+0xf4>
   456d4:	388cb03a 	or	r6,r7,r2
   456d8:	0007883a 	mov	r3,zero
   456dc:	30000426 	beq	r6,zero,456f0 <__truncdfsf2+0xe4>
   456e0:	01800144 	movi	r6,5
   456e4:	00803fc4 	movi	r2,255
   456e8:	300cd0fa 	srli	r6,r6,3
   456ec:	18800a26 	beq	r3,r2,45718 <__truncdfsf2+0x10c>
   456f0:	00802034 	movhi	r2,128
   456f4:	10bfffc4 	addi	r2,r2,-1
   456f8:	308c703a 	and	r6,r6,r2
   456fc:	003feb06 	br	456ac <__alt_data_end+0xfffde5ac>
   45700:	3888b03a 	or	r4,r7,r2
   45704:	203fe726 	beq	r4,zero,456a4 <__alt_data_end+0xfffde5a4>
   45708:	380c90fa 	slli	r6,r7,3
   4570c:	00c03fc4 	movi	r3,255
   45710:	31808034 	orhi	r6,r6,512
   45714:	003fd506 	br	4566c <__alt_data_end+0xfffde56c>
   45718:	303fe226 	beq	r6,zero,456a4 <__alt_data_end+0xfffde5a4>
   4571c:	00802034 	movhi	r2,128
   45720:	31801034 	orhi	r6,r6,64
   45724:	10bfffc4 	addi	r2,r2,-1
   45728:	00ffffc4 	movi	r3,-1
   4572c:	308c703a 	and	r6,r6,r2
   45730:	003fde06 	br	456ac <__alt_data_end+0xfffde5ac>
   45734:	013ffa44 	movi	r4,-23
   45738:	19000e16 	blt	r3,r4,45774 <__truncdfsf2+0x168>
   4573c:	01000784 	movi	r4,30
   45740:	20c9c83a 	sub	r4,r4,r3
   45744:	018007c4 	movi	r6,31
   45748:	39c02034 	orhi	r7,r7,128
   4574c:	31000b16 	blt	r6,r4,4577c <__truncdfsf2+0x170>
   45750:	423f2084 	addi	r8,r8,-894
   45754:	120c983a 	sll	r6,r2,r8
   45758:	3a0e983a 	sll	r7,r7,r8
   4575c:	1104d83a 	srl	r2,r2,r4
   45760:	300cc03a 	cmpne	r6,r6,zero
   45764:	31ceb03a 	or	r7,r6,r7
   45768:	388cb03a 	or	r6,r7,r2
   4576c:	0007883a 	mov	r3,zero
   45770:	003fbe06 	br	4566c <__alt_data_end+0xfffde56c>
   45774:	0007883a 	mov	r3,zero
   45778:	003fd906 	br	456e0 <__alt_data_end+0xfffde5e0>
   4577c:	01bfff84 	movi	r6,-2
   45780:	30cdc83a 	sub	r6,r6,r3
   45784:	00c00804 	movi	r3,32
   45788:	398cd83a 	srl	r6,r7,r6
   4578c:	20c00726 	beq	r4,r3,457ac <__truncdfsf2+0x1a0>
   45790:	423f2884 	addi	r8,r8,-862
   45794:	3a0e983a 	sll	r7,r7,r8
   45798:	3884b03a 	or	r2,r7,r2
   4579c:	1004c03a 	cmpne	r2,r2,zero
   457a0:	118cb03a 	or	r6,r2,r6
   457a4:	0007883a 	mov	r3,zero
   457a8:	003fb006 	br	4566c <__alt_data_end+0xfffde56c>
   457ac:	000f883a 	mov	r7,zero
   457b0:	003ff906 	br	45798 <__alt_data_end+0xfffde698>

000457b4 <__clzsi2>:
   457b4:	00bfffd4 	movui	r2,65535
   457b8:	11000536 	bltu	r2,r4,457d0 <__clzsi2+0x1c>
   457bc:	00803fc4 	movi	r2,255
   457c0:	11000f36 	bltu	r2,r4,45800 <__clzsi2+0x4c>
   457c4:	00800804 	movi	r2,32
   457c8:	0007883a 	mov	r3,zero
   457cc:	00000506 	br	457e4 <__clzsi2+0x30>
   457d0:	00804034 	movhi	r2,256
   457d4:	10bfffc4 	addi	r2,r2,-1
   457d8:	11000c2e 	bgeu	r2,r4,4580c <__clzsi2+0x58>
   457dc:	00800204 	movi	r2,8
   457e0:	00c00604 	movi	r3,24
   457e4:	20c8d83a 	srl	r4,r4,r3
   457e8:	00c00174 	movhi	r3,5
   457ec:	18ebb004 	addi	r3,r3,-20800
   457f0:	1909883a 	add	r4,r3,r4
   457f4:	20c00003 	ldbu	r3,0(r4)
   457f8:	10c5c83a 	sub	r2,r2,r3
   457fc:	f800283a 	ret
   45800:	00800604 	movi	r2,24
   45804:	00c00204 	movi	r3,8
   45808:	003ff606 	br	457e4 <__alt_data_end+0xfffde6e4>
   4580c:	00800404 	movi	r2,16
   45810:	1007883a 	mov	r3,r2
   45814:	003ff306 	br	457e4 <__alt_data_end+0xfffde6e4>

00045818 <_puts_r>:
   45818:	defff604 	addi	sp,sp,-40
   4581c:	dc000715 	stw	r16,28(sp)
   45820:	2021883a 	mov	r16,r4
   45824:	2809883a 	mov	r4,r5
   45828:	dc400815 	stw	r17,32(sp)
   4582c:	dfc00915 	stw	ra,36(sp)
   45830:	2823883a 	mov	r17,r5
   45834:	00458ec0 	call	458ec <strlen>
   45838:	10c00044 	addi	r3,r2,1
   4583c:	d8800115 	stw	r2,4(sp)
   45840:	00800174 	movhi	r2,5
   45844:	10abf004 	addi	r2,r2,-20544
   45848:	d8800215 	stw	r2,8(sp)
   4584c:	00800044 	movi	r2,1
   45850:	d8800315 	stw	r2,12(sp)
   45854:	00800084 	movi	r2,2
   45858:	dc400015 	stw	r17,0(sp)
   4585c:	d8c00615 	stw	r3,24(sp)
   45860:	dec00415 	stw	sp,16(sp)
   45864:	d8800515 	stw	r2,20(sp)
   45868:	80000226 	beq	r16,zero,45874 <_puts_r+0x5c>
   4586c:	80800e17 	ldw	r2,56(r16)
   45870:	10001426 	beq	r2,zero,458c4 <_puts_r+0xac>
   45874:	81400217 	ldw	r5,8(r16)
   45878:	2880030b 	ldhu	r2,12(r5)
   4587c:	10c8000c 	andi	r3,r2,8192
   45880:	1800061e 	bne	r3,zero,4589c <_puts_r+0x84>
   45884:	29001917 	ldw	r4,100(r5)
   45888:	00f7ffc4 	movi	r3,-8193
   4588c:	10880014 	ori	r2,r2,8192
   45890:	20c6703a 	and	r3,r4,r3
   45894:	2880030d 	sth	r2,12(r5)
   45898:	28c01915 	stw	r3,100(r5)
   4589c:	d9800404 	addi	r6,sp,16
   458a0:	8009883a 	mov	r4,r16
   458a4:	0045d240 	call	45d24 <__sfvwrite_r>
   458a8:	1000091e 	bne	r2,zero,458d0 <_puts_r+0xb8>
   458ac:	00800284 	movi	r2,10
   458b0:	dfc00917 	ldw	ra,36(sp)
   458b4:	dc400817 	ldw	r17,32(sp)
   458b8:	dc000717 	ldw	r16,28(sp)
   458bc:	dec00a04 	addi	sp,sp,40
   458c0:	f800283a 	ret
   458c4:	8009883a 	mov	r4,r16
   458c8:	0045cd40 	call	45cd4 <__sinit>
   458cc:	003fe906 	br	45874 <__alt_data_end+0xfffde774>
   458d0:	00bfffc4 	movi	r2,-1
   458d4:	003ff606 	br	458b0 <__alt_data_end+0xfffde7b0>

000458d8 <puts>:
   458d8:	00800174 	movhi	r2,5
   458dc:	10b28b04 	addi	r2,r2,-13780
   458e0:	200b883a 	mov	r5,r4
   458e4:	11000017 	ldw	r4,0(r2)
   458e8:	00458181 	jmpi	45818 <_puts_r>

000458ec <strlen>:
   458ec:	208000cc 	andi	r2,r4,3
   458f0:	10002026 	beq	r2,zero,45974 <strlen+0x88>
   458f4:	20800007 	ldb	r2,0(r4)
   458f8:	10002026 	beq	r2,zero,4597c <strlen+0x90>
   458fc:	2005883a 	mov	r2,r4
   45900:	00000206 	br	4590c <strlen+0x20>
   45904:	10c00007 	ldb	r3,0(r2)
   45908:	18001826 	beq	r3,zero,4596c <strlen+0x80>
   4590c:	10800044 	addi	r2,r2,1
   45910:	10c000cc 	andi	r3,r2,3
   45914:	183ffb1e 	bne	r3,zero,45904 <__alt_data_end+0xfffde804>
   45918:	10c00017 	ldw	r3,0(r2)
   4591c:	01ffbff4 	movhi	r7,65279
   45920:	39ffbfc4 	addi	r7,r7,-257
   45924:	00ca303a 	nor	r5,zero,r3
   45928:	01a02074 	movhi	r6,32897
   4592c:	19c7883a 	add	r3,r3,r7
   45930:	31a02004 	addi	r6,r6,-32640
   45934:	1946703a 	and	r3,r3,r5
   45938:	1986703a 	and	r3,r3,r6
   4593c:	1800091e 	bne	r3,zero,45964 <strlen+0x78>
   45940:	10800104 	addi	r2,r2,4
   45944:	10c00017 	ldw	r3,0(r2)
   45948:	19cb883a 	add	r5,r3,r7
   4594c:	00c6303a 	nor	r3,zero,r3
   45950:	28c6703a 	and	r3,r5,r3
   45954:	1986703a 	and	r3,r3,r6
   45958:	183ff926 	beq	r3,zero,45940 <__alt_data_end+0xfffde840>
   4595c:	00000106 	br	45964 <strlen+0x78>
   45960:	10800044 	addi	r2,r2,1
   45964:	10c00007 	ldb	r3,0(r2)
   45968:	183ffd1e 	bne	r3,zero,45960 <__alt_data_end+0xfffde860>
   4596c:	1105c83a 	sub	r2,r2,r4
   45970:	f800283a 	ret
   45974:	2005883a 	mov	r2,r4
   45978:	003fe706 	br	45918 <__alt_data_end+0xfffde818>
   4597c:	0005883a 	mov	r2,zero
   45980:	f800283a 	ret

00045984 <__fp_unlock>:
   45984:	0005883a 	mov	r2,zero
   45988:	f800283a 	ret

0004598c <_cleanup_r>:
   4598c:	01400134 	movhi	r5,4
   45990:	295e4804 	addi	r5,r5,31008
   45994:	00462a41 	jmpi	462a4 <_fwalk_reent>

00045998 <__sinit.part.1>:
   45998:	defff704 	addi	sp,sp,-36
   4599c:	00c00134 	movhi	r3,4
   459a0:	dfc00815 	stw	ra,32(sp)
   459a4:	ddc00715 	stw	r23,28(sp)
   459a8:	dd800615 	stw	r22,24(sp)
   459ac:	dd400515 	stw	r21,20(sp)
   459b0:	dd000415 	stw	r20,16(sp)
   459b4:	dcc00315 	stw	r19,12(sp)
   459b8:	dc800215 	stw	r18,8(sp)
   459bc:	dc400115 	stw	r17,4(sp)
   459c0:	dc000015 	stw	r16,0(sp)
   459c4:	18d66304 	addi	r3,r3,22924
   459c8:	24000117 	ldw	r16,4(r4)
   459cc:	20c00f15 	stw	r3,60(r4)
   459d0:	2080bb04 	addi	r2,r4,748
   459d4:	00c000c4 	movi	r3,3
   459d8:	20c0b915 	stw	r3,740(r4)
   459dc:	2080ba15 	stw	r2,744(r4)
   459e0:	2000b815 	stw	zero,736(r4)
   459e4:	05c00204 	movi	r23,8
   459e8:	00800104 	movi	r2,4
   459ec:	2025883a 	mov	r18,r4
   459f0:	b80d883a 	mov	r6,r23
   459f4:	81001704 	addi	r4,r16,92
   459f8:	000b883a 	mov	r5,zero
   459fc:	80000015 	stw	zero,0(r16)
   45a00:	80000115 	stw	zero,4(r16)
   45a04:	80000215 	stw	zero,8(r16)
   45a08:	8080030d 	sth	r2,12(r16)
   45a0c:	80001915 	stw	zero,100(r16)
   45a10:	8000038d 	sth	zero,14(r16)
   45a14:	80000415 	stw	zero,16(r16)
   45a18:	80000515 	stw	zero,20(r16)
   45a1c:	80000615 	stw	zero,24(r16)
   45a20:	0046efc0 	call	46efc <memset>
   45a24:	05800134 	movhi	r22,4
   45a28:	94400217 	ldw	r17,8(r18)
   45a2c:	05400134 	movhi	r21,4
   45a30:	05000134 	movhi	r20,4
   45a34:	04c00134 	movhi	r19,4
   45a38:	b59d7704 	addi	r22,r22,30172
   45a3c:	ad5d8e04 	addi	r21,r21,30264
   45a40:	a51dad04 	addi	r20,r20,30388
   45a44:	9cddc404 	addi	r19,r19,30480
   45a48:	85800815 	stw	r22,32(r16)
   45a4c:	85400915 	stw	r21,36(r16)
   45a50:	85000a15 	stw	r20,40(r16)
   45a54:	84c00b15 	stw	r19,44(r16)
   45a58:	84000715 	stw	r16,28(r16)
   45a5c:	00800284 	movi	r2,10
   45a60:	8880030d 	sth	r2,12(r17)
   45a64:	00800044 	movi	r2,1
   45a68:	b80d883a 	mov	r6,r23
   45a6c:	89001704 	addi	r4,r17,92
   45a70:	000b883a 	mov	r5,zero
   45a74:	88000015 	stw	zero,0(r17)
   45a78:	88000115 	stw	zero,4(r17)
   45a7c:	88000215 	stw	zero,8(r17)
   45a80:	88001915 	stw	zero,100(r17)
   45a84:	8880038d 	sth	r2,14(r17)
   45a88:	88000415 	stw	zero,16(r17)
   45a8c:	88000515 	stw	zero,20(r17)
   45a90:	88000615 	stw	zero,24(r17)
   45a94:	0046efc0 	call	46efc <memset>
   45a98:	94000317 	ldw	r16,12(r18)
   45a9c:	00800484 	movi	r2,18
   45aa0:	8c400715 	stw	r17,28(r17)
   45aa4:	8d800815 	stw	r22,32(r17)
   45aa8:	8d400915 	stw	r21,36(r17)
   45aac:	8d000a15 	stw	r20,40(r17)
   45ab0:	8cc00b15 	stw	r19,44(r17)
   45ab4:	8080030d 	sth	r2,12(r16)
   45ab8:	00800084 	movi	r2,2
   45abc:	80000015 	stw	zero,0(r16)
   45ac0:	80000115 	stw	zero,4(r16)
   45ac4:	80000215 	stw	zero,8(r16)
   45ac8:	80001915 	stw	zero,100(r16)
   45acc:	8080038d 	sth	r2,14(r16)
   45ad0:	80000415 	stw	zero,16(r16)
   45ad4:	80000515 	stw	zero,20(r16)
   45ad8:	80000615 	stw	zero,24(r16)
   45adc:	b80d883a 	mov	r6,r23
   45ae0:	000b883a 	mov	r5,zero
   45ae4:	81001704 	addi	r4,r16,92
   45ae8:	0046efc0 	call	46efc <memset>
   45aec:	00800044 	movi	r2,1
   45af0:	84000715 	stw	r16,28(r16)
   45af4:	85800815 	stw	r22,32(r16)
   45af8:	85400915 	stw	r21,36(r16)
   45afc:	85000a15 	stw	r20,40(r16)
   45b00:	84c00b15 	stw	r19,44(r16)
   45b04:	90800e15 	stw	r2,56(r18)
   45b08:	dfc00817 	ldw	ra,32(sp)
   45b0c:	ddc00717 	ldw	r23,28(sp)
   45b10:	dd800617 	ldw	r22,24(sp)
   45b14:	dd400517 	ldw	r21,20(sp)
   45b18:	dd000417 	ldw	r20,16(sp)
   45b1c:	dcc00317 	ldw	r19,12(sp)
   45b20:	dc800217 	ldw	r18,8(sp)
   45b24:	dc400117 	ldw	r17,4(sp)
   45b28:	dc000017 	ldw	r16,0(sp)
   45b2c:	dec00904 	addi	sp,sp,36
   45b30:	f800283a 	ret

00045b34 <__fp_lock>:
   45b34:	0005883a 	mov	r2,zero
   45b38:	f800283a 	ret

00045b3c <__sfmoreglue>:
   45b3c:	defffc04 	addi	sp,sp,-16
   45b40:	dc400115 	stw	r17,4(sp)
   45b44:	2c7fffc4 	addi	r17,r5,-1
   45b48:	8c401a24 	muli	r17,r17,104
   45b4c:	dc800215 	stw	r18,8(sp)
   45b50:	2825883a 	mov	r18,r5
   45b54:	89401d04 	addi	r5,r17,116
   45b58:	dc000015 	stw	r16,0(sp)
   45b5c:	dfc00315 	stw	ra,12(sp)
   45b60:	00463680 	call	46368 <_malloc_r>
   45b64:	1021883a 	mov	r16,r2
   45b68:	10000726 	beq	r2,zero,45b88 <__sfmoreglue+0x4c>
   45b6c:	11000304 	addi	r4,r2,12
   45b70:	10000015 	stw	zero,0(r2)
   45b74:	14800115 	stw	r18,4(r2)
   45b78:	11000215 	stw	r4,8(r2)
   45b7c:	89801a04 	addi	r6,r17,104
   45b80:	000b883a 	mov	r5,zero
   45b84:	0046efc0 	call	46efc <memset>
   45b88:	8005883a 	mov	r2,r16
   45b8c:	dfc00317 	ldw	ra,12(sp)
   45b90:	dc800217 	ldw	r18,8(sp)
   45b94:	dc400117 	ldw	r17,4(sp)
   45b98:	dc000017 	ldw	r16,0(sp)
   45b9c:	dec00404 	addi	sp,sp,16
   45ba0:	f800283a 	ret

00045ba4 <__sfp>:
   45ba4:	defffb04 	addi	sp,sp,-20
   45ba8:	dc000015 	stw	r16,0(sp)
   45bac:	04000174 	movhi	r16,5
   45bb0:	84328a04 	addi	r16,r16,-13784
   45bb4:	dcc00315 	stw	r19,12(sp)
   45bb8:	2027883a 	mov	r19,r4
   45bbc:	81000017 	ldw	r4,0(r16)
   45bc0:	dfc00415 	stw	ra,16(sp)
   45bc4:	dc800215 	stw	r18,8(sp)
   45bc8:	20800e17 	ldw	r2,56(r4)
   45bcc:	dc400115 	stw	r17,4(sp)
   45bd0:	1000021e 	bne	r2,zero,45bdc <__sfp+0x38>
   45bd4:	00459980 	call	45998 <__sinit.part.1>
   45bd8:	81000017 	ldw	r4,0(r16)
   45bdc:	2480b804 	addi	r18,r4,736
   45be0:	047fffc4 	movi	r17,-1
   45be4:	91000117 	ldw	r4,4(r18)
   45be8:	94000217 	ldw	r16,8(r18)
   45bec:	213fffc4 	addi	r4,r4,-1
   45bf0:	20000a16 	blt	r4,zero,45c1c <__sfp+0x78>
   45bf4:	8080030f 	ldh	r2,12(r16)
   45bf8:	10000c26 	beq	r2,zero,45c2c <__sfp+0x88>
   45bfc:	80c01d04 	addi	r3,r16,116
   45c00:	00000206 	br	45c0c <__sfp+0x68>
   45c04:	18bfe60f 	ldh	r2,-104(r3)
   45c08:	10000826 	beq	r2,zero,45c2c <__sfp+0x88>
   45c0c:	213fffc4 	addi	r4,r4,-1
   45c10:	1c3ffd04 	addi	r16,r3,-12
   45c14:	18c01a04 	addi	r3,r3,104
   45c18:	247ffa1e 	bne	r4,r17,45c04 <__alt_data_end+0xfffdeb04>
   45c1c:	90800017 	ldw	r2,0(r18)
   45c20:	10001d26 	beq	r2,zero,45c98 <__sfp+0xf4>
   45c24:	1025883a 	mov	r18,r2
   45c28:	003fee06 	br	45be4 <__alt_data_end+0xfffdeae4>
   45c2c:	00bfffc4 	movi	r2,-1
   45c30:	8080038d 	sth	r2,14(r16)
   45c34:	00800044 	movi	r2,1
   45c38:	8080030d 	sth	r2,12(r16)
   45c3c:	80001915 	stw	zero,100(r16)
   45c40:	80000015 	stw	zero,0(r16)
   45c44:	80000215 	stw	zero,8(r16)
   45c48:	80000115 	stw	zero,4(r16)
   45c4c:	80000415 	stw	zero,16(r16)
   45c50:	80000515 	stw	zero,20(r16)
   45c54:	80000615 	stw	zero,24(r16)
   45c58:	01800204 	movi	r6,8
   45c5c:	000b883a 	mov	r5,zero
   45c60:	81001704 	addi	r4,r16,92
   45c64:	0046efc0 	call	46efc <memset>
   45c68:	8005883a 	mov	r2,r16
   45c6c:	80000c15 	stw	zero,48(r16)
   45c70:	80000d15 	stw	zero,52(r16)
   45c74:	80001115 	stw	zero,68(r16)
   45c78:	80001215 	stw	zero,72(r16)
   45c7c:	dfc00417 	ldw	ra,16(sp)
   45c80:	dcc00317 	ldw	r19,12(sp)
   45c84:	dc800217 	ldw	r18,8(sp)
   45c88:	dc400117 	ldw	r17,4(sp)
   45c8c:	dc000017 	ldw	r16,0(sp)
   45c90:	dec00504 	addi	sp,sp,20
   45c94:	f800283a 	ret
   45c98:	01400104 	movi	r5,4
   45c9c:	9809883a 	mov	r4,r19
   45ca0:	0045b3c0 	call	45b3c <__sfmoreglue>
   45ca4:	90800015 	stw	r2,0(r18)
   45ca8:	103fde1e 	bne	r2,zero,45c24 <__alt_data_end+0xfffdeb24>
   45cac:	00800304 	movi	r2,12
   45cb0:	98800015 	stw	r2,0(r19)
   45cb4:	0005883a 	mov	r2,zero
   45cb8:	003ff006 	br	45c7c <__alt_data_end+0xfffdeb7c>

00045cbc <_cleanup>:
   45cbc:	00800174 	movhi	r2,5
   45cc0:	10b28a04 	addi	r2,r2,-13784
   45cc4:	11000017 	ldw	r4,0(r2)
   45cc8:	01400134 	movhi	r5,4
   45ccc:	295e4804 	addi	r5,r5,31008
   45cd0:	00462a41 	jmpi	462a4 <_fwalk_reent>

00045cd4 <__sinit>:
   45cd4:	20800e17 	ldw	r2,56(r4)
   45cd8:	10000126 	beq	r2,zero,45ce0 <__sinit+0xc>
   45cdc:	f800283a 	ret
   45ce0:	00459981 	jmpi	45998 <__sinit.part.1>

00045ce4 <__sfp_lock_acquire>:
   45ce4:	f800283a 	ret

00045ce8 <__sfp_lock_release>:
   45ce8:	f800283a 	ret

00045cec <__sinit_lock_acquire>:
   45cec:	f800283a 	ret

00045cf0 <__sinit_lock_release>:
   45cf0:	f800283a 	ret

00045cf4 <__fp_lock_all>:
   45cf4:	00800174 	movhi	r2,5
   45cf8:	10b28b04 	addi	r2,r2,-13780
   45cfc:	11000017 	ldw	r4,0(r2)
   45d00:	01400134 	movhi	r5,4
   45d04:	2956cd04 	addi	r5,r5,23348
   45d08:	00461e01 	jmpi	461e0 <_fwalk>

00045d0c <__fp_unlock_all>:
   45d0c:	00800174 	movhi	r2,5
   45d10:	10b28b04 	addi	r2,r2,-13780
   45d14:	11000017 	ldw	r4,0(r2)
   45d18:	01400134 	movhi	r5,4
   45d1c:	29566104 	addi	r5,r5,22916
   45d20:	00461e01 	jmpi	461e0 <_fwalk>

00045d24 <__sfvwrite_r>:
   45d24:	30800217 	ldw	r2,8(r6)
   45d28:	10006726 	beq	r2,zero,45ec8 <__sfvwrite_r+0x1a4>
   45d2c:	28c0030b 	ldhu	r3,12(r5)
   45d30:	defff404 	addi	sp,sp,-48
   45d34:	dd400715 	stw	r21,28(sp)
   45d38:	dd000615 	stw	r20,24(sp)
   45d3c:	dc000215 	stw	r16,8(sp)
   45d40:	dfc00b15 	stw	ra,44(sp)
   45d44:	df000a15 	stw	fp,40(sp)
   45d48:	ddc00915 	stw	r23,36(sp)
   45d4c:	dd800815 	stw	r22,32(sp)
   45d50:	dcc00515 	stw	r19,20(sp)
   45d54:	dc800415 	stw	r18,16(sp)
   45d58:	dc400315 	stw	r17,12(sp)
   45d5c:	1880020c 	andi	r2,r3,8
   45d60:	2821883a 	mov	r16,r5
   45d64:	202b883a 	mov	r21,r4
   45d68:	3029883a 	mov	r20,r6
   45d6c:	10002726 	beq	r2,zero,45e0c <__sfvwrite_r+0xe8>
   45d70:	28800417 	ldw	r2,16(r5)
   45d74:	10002526 	beq	r2,zero,45e0c <__sfvwrite_r+0xe8>
   45d78:	1880008c 	andi	r2,r3,2
   45d7c:	a4400017 	ldw	r17,0(r20)
   45d80:	10002a26 	beq	r2,zero,45e2c <__sfvwrite_r+0x108>
   45d84:	05a00034 	movhi	r22,32768
   45d88:	0027883a 	mov	r19,zero
   45d8c:	0025883a 	mov	r18,zero
   45d90:	b5bf0004 	addi	r22,r22,-1024
   45d94:	980d883a 	mov	r6,r19
   45d98:	a809883a 	mov	r4,r21
   45d9c:	90004626 	beq	r18,zero,45eb8 <__sfvwrite_r+0x194>
   45da0:	900f883a 	mov	r7,r18
   45da4:	b480022e 	bgeu	r22,r18,45db0 <__sfvwrite_r+0x8c>
   45da8:	01e00034 	movhi	r7,32768
   45dac:	39ff0004 	addi	r7,r7,-1024
   45db0:	80800917 	ldw	r2,36(r16)
   45db4:	81400717 	ldw	r5,28(r16)
   45db8:	103ee83a 	callr	r2
   45dbc:	0080570e 	bge	zero,r2,45f1c <__sfvwrite_r+0x1f8>
   45dc0:	a0c00217 	ldw	r3,8(r20)
   45dc4:	98a7883a 	add	r19,r19,r2
   45dc8:	90a5c83a 	sub	r18,r18,r2
   45dcc:	1885c83a 	sub	r2,r3,r2
   45dd0:	a0800215 	stw	r2,8(r20)
   45dd4:	103fef1e 	bne	r2,zero,45d94 <__alt_data_end+0xfffdec94>
   45dd8:	0005883a 	mov	r2,zero
   45ddc:	dfc00b17 	ldw	ra,44(sp)
   45de0:	df000a17 	ldw	fp,40(sp)
   45de4:	ddc00917 	ldw	r23,36(sp)
   45de8:	dd800817 	ldw	r22,32(sp)
   45dec:	dd400717 	ldw	r21,28(sp)
   45df0:	dd000617 	ldw	r20,24(sp)
   45df4:	dcc00517 	ldw	r19,20(sp)
   45df8:	dc800417 	ldw	r18,16(sp)
   45dfc:	dc400317 	ldw	r17,12(sp)
   45e00:	dc000217 	ldw	r16,8(sp)
   45e04:	dec00c04 	addi	sp,sp,48
   45e08:	f800283a 	ret
   45e0c:	800b883a 	mov	r5,r16
   45e10:	a809883a 	mov	r4,r21
   45e14:	00477780 	call	47778 <__swsetup_r>
   45e18:	1000eb1e 	bne	r2,zero,461c8 <__sfvwrite_r+0x4a4>
   45e1c:	80c0030b 	ldhu	r3,12(r16)
   45e20:	a4400017 	ldw	r17,0(r20)
   45e24:	1880008c 	andi	r2,r3,2
   45e28:	103fd61e 	bne	r2,zero,45d84 <__alt_data_end+0xfffdec84>
   45e2c:	1880004c 	andi	r2,r3,1
   45e30:	10003f1e 	bne	r2,zero,45f30 <__sfvwrite_r+0x20c>
   45e34:	0039883a 	mov	fp,zero
   45e38:	0025883a 	mov	r18,zero
   45e3c:	90001a26 	beq	r18,zero,45ea8 <__sfvwrite_r+0x184>
   45e40:	1880800c 	andi	r2,r3,512
   45e44:	84c00217 	ldw	r19,8(r16)
   45e48:	10002126 	beq	r2,zero,45ed0 <__sfvwrite_r+0x1ac>
   45e4c:	982f883a 	mov	r23,r19
   45e50:	94c09336 	bltu	r18,r19,460a0 <__sfvwrite_r+0x37c>
   45e54:	1881200c 	andi	r2,r3,1152
   45e58:	10009e1e 	bne	r2,zero,460d4 <__sfvwrite_r+0x3b0>
   45e5c:	81000017 	ldw	r4,0(r16)
   45e60:	b80d883a 	mov	r6,r23
   45e64:	e00b883a 	mov	r5,fp
   45e68:	0046da00 	call	46da0 <memmove>
   45e6c:	80c00217 	ldw	r3,8(r16)
   45e70:	81000017 	ldw	r4,0(r16)
   45e74:	9005883a 	mov	r2,r18
   45e78:	1ce7c83a 	sub	r19,r3,r19
   45e7c:	25cf883a 	add	r7,r4,r23
   45e80:	84c00215 	stw	r19,8(r16)
   45e84:	81c00015 	stw	r7,0(r16)
   45e88:	a0c00217 	ldw	r3,8(r20)
   45e8c:	e0b9883a 	add	fp,fp,r2
   45e90:	90a5c83a 	sub	r18,r18,r2
   45e94:	18a7c83a 	sub	r19,r3,r2
   45e98:	a4c00215 	stw	r19,8(r20)
   45e9c:	983fce26 	beq	r19,zero,45dd8 <__alt_data_end+0xfffdecd8>
   45ea0:	80c0030b 	ldhu	r3,12(r16)
   45ea4:	903fe61e 	bne	r18,zero,45e40 <__alt_data_end+0xfffded40>
   45ea8:	8f000017 	ldw	fp,0(r17)
   45eac:	8c800117 	ldw	r18,4(r17)
   45eb0:	8c400204 	addi	r17,r17,8
   45eb4:	003fe106 	br	45e3c <__alt_data_end+0xfffded3c>
   45eb8:	8cc00017 	ldw	r19,0(r17)
   45ebc:	8c800117 	ldw	r18,4(r17)
   45ec0:	8c400204 	addi	r17,r17,8
   45ec4:	003fb306 	br	45d94 <__alt_data_end+0xfffdec94>
   45ec8:	0005883a 	mov	r2,zero
   45ecc:	f800283a 	ret
   45ed0:	81000017 	ldw	r4,0(r16)
   45ed4:	80800417 	ldw	r2,16(r16)
   45ed8:	11005736 	bltu	r2,r4,46038 <__sfvwrite_r+0x314>
   45edc:	85c00517 	ldw	r23,20(r16)
   45ee0:	95c05536 	bltu	r18,r23,46038 <__sfvwrite_r+0x314>
   45ee4:	00a00034 	movhi	r2,32768
   45ee8:	10bfffc4 	addi	r2,r2,-1
   45eec:	9009883a 	mov	r4,r18
   45ef0:	1480012e 	bgeu	r2,r18,45ef8 <__sfvwrite_r+0x1d4>
   45ef4:	1009883a 	mov	r4,r2
   45ef8:	b80b883a 	mov	r5,r23
   45efc:	00424880 	call	42488 <__divsi3>
   45f00:	15cf383a 	mul	r7,r2,r23
   45f04:	81400717 	ldw	r5,28(r16)
   45f08:	80800917 	ldw	r2,36(r16)
   45f0c:	e00d883a 	mov	r6,fp
   45f10:	a809883a 	mov	r4,r21
   45f14:	103ee83a 	callr	r2
   45f18:	00bfdb16 	blt	zero,r2,45e88 <__alt_data_end+0xfffded88>
   45f1c:	8080030b 	ldhu	r2,12(r16)
   45f20:	10801014 	ori	r2,r2,64
   45f24:	8080030d 	sth	r2,12(r16)
   45f28:	00bfffc4 	movi	r2,-1
   45f2c:	003fab06 	br	45ddc <__alt_data_end+0xfffdecdc>
   45f30:	0027883a 	mov	r19,zero
   45f34:	0011883a 	mov	r8,zero
   45f38:	0039883a 	mov	fp,zero
   45f3c:	0025883a 	mov	r18,zero
   45f40:	90001f26 	beq	r18,zero,45fc0 <__sfvwrite_r+0x29c>
   45f44:	40005a26 	beq	r8,zero,460b0 <__sfvwrite_r+0x38c>
   45f48:	982d883a 	mov	r22,r19
   45f4c:	94c0012e 	bgeu	r18,r19,45f54 <__sfvwrite_r+0x230>
   45f50:	902d883a 	mov	r22,r18
   45f54:	81000017 	ldw	r4,0(r16)
   45f58:	80800417 	ldw	r2,16(r16)
   45f5c:	b02f883a 	mov	r23,r22
   45f60:	81c00517 	ldw	r7,20(r16)
   45f64:	1100032e 	bgeu	r2,r4,45f74 <__sfvwrite_r+0x250>
   45f68:	80c00217 	ldw	r3,8(r16)
   45f6c:	38c7883a 	add	r3,r7,r3
   45f70:	1d801816 	blt	r3,r22,45fd4 <__sfvwrite_r+0x2b0>
   45f74:	b1c03e16 	blt	r22,r7,46070 <__sfvwrite_r+0x34c>
   45f78:	80800917 	ldw	r2,36(r16)
   45f7c:	81400717 	ldw	r5,28(r16)
   45f80:	e00d883a 	mov	r6,fp
   45f84:	da000115 	stw	r8,4(sp)
   45f88:	a809883a 	mov	r4,r21
   45f8c:	103ee83a 	callr	r2
   45f90:	102f883a 	mov	r23,r2
   45f94:	da000117 	ldw	r8,4(sp)
   45f98:	00bfe00e 	bge	zero,r2,45f1c <__alt_data_end+0xfffdee1c>
   45f9c:	9de7c83a 	sub	r19,r19,r23
   45fa0:	98001f26 	beq	r19,zero,46020 <__sfvwrite_r+0x2fc>
   45fa4:	a0800217 	ldw	r2,8(r20)
   45fa8:	e5f9883a 	add	fp,fp,r23
   45fac:	95e5c83a 	sub	r18,r18,r23
   45fb0:	15efc83a 	sub	r23,r2,r23
   45fb4:	a5c00215 	stw	r23,8(r20)
   45fb8:	b83f8726 	beq	r23,zero,45dd8 <__alt_data_end+0xfffdecd8>
   45fbc:	903fe11e 	bne	r18,zero,45f44 <__alt_data_end+0xfffdee44>
   45fc0:	8f000017 	ldw	fp,0(r17)
   45fc4:	8c800117 	ldw	r18,4(r17)
   45fc8:	0011883a 	mov	r8,zero
   45fcc:	8c400204 	addi	r17,r17,8
   45fd0:	003fdb06 	br	45f40 <__alt_data_end+0xfffdee40>
   45fd4:	180d883a 	mov	r6,r3
   45fd8:	e00b883a 	mov	r5,fp
   45fdc:	da000115 	stw	r8,4(sp)
   45fe0:	d8c00015 	stw	r3,0(sp)
   45fe4:	0046da00 	call	46da0 <memmove>
   45fe8:	d8c00017 	ldw	r3,0(sp)
   45fec:	80800017 	ldw	r2,0(r16)
   45ff0:	800b883a 	mov	r5,r16
   45ff4:	a809883a 	mov	r4,r21
   45ff8:	10c5883a 	add	r2,r2,r3
   45ffc:	80800015 	stw	r2,0(r16)
   46000:	d8c00015 	stw	r3,0(sp)
   46004:	0047c400 	call	47c40 <_fflush_r>
   46008:	d8c00017 	ldw	r3,0(sp)
   4600c:	da000117 	ldw	r8,4(sp)
   46010:	103fc21e 	bne	r2,zero,45f1c <__alt_data_end+0xfffdee1c>
   46014:	182f883a 	mov	r23,r3
   46018:	9de7c83a 	sub	r19,r19,r23
   4601c:	983fe11e 	bne	r19,zero,45fa4 <__alt_data_end+0xfffdeea4>
   46020:	800b883a 	mov	r5,r16
   46024:	a809883a 	mov	r4,r21
   46028:	0047c400 	call	47c40 <_fflush_r>
   4602c:	103fbb1e 	bne	r2,zero,45f1c <__alt_data_end+0xfffdee1c>
   46030:	0011883a 	mov	r8,zero
   46034:	003fdb06 	br	45fa4 <__alt_data_end+0xfffdeea4>
   46038:	94c0012e 	bgeu	r18,r19,46040 <__sfvwrite_r+0x31c>
   4603c:	9027883a 	mov	r19,r18
   46040:	980d883a 	mov	r6,r19
   46044:	e00b883a 	mov	r5,fp
   46048:	0046da00 	call	46da0 <memmove>
   4604c:	80800217 	ldw	r2,8(r16)
   46050:	80c00017 	ldw	r3,0(r16)
   46054:	14c5c83a 	sub	r2,r2,r19
   46058:	1cc7883a 	add	r3,r3,r19
   4605c:	80800215 	stw	r2,8(r16)
   46060:	80c00015 	stw	r3,0(r16)
   46064:	10004326 	beq	r2,zero,46174 <__sfvwrite_r+0x450>
   46068:	9805883a 	mov	r2,r19
   4606c:	003f8606 	br	45e88 <__alt_data_end+0xfffded88>
   46070:	b00d883a 	mov	r6,r22
   46074:	e00b883a 	mov	r5,fp
   46078:	da000115 	stw	r8,4(sp)
   4607c:	0046da00 	call	46da0 <memmove>
   46080:	80800217 	ldw	r2,8(r16)
   46084:	80c00017 	ldw	r3,0(r16)
   46088:	da000117 	ldw	r8,4(sp)
   4608c:	1585c83a 	sub	r2,r2,r22
   46090:	1dad883a 	add	r22,r3,r22
   46094:	80800215 	stw	r2,8(r16)
   46098:	85800015 	stw	r22,0(r16)
   4609c:	003fbf06 	br	45f9c <__alt_data_end+0xfffdee9c>
   460a0:	81000017 	ldw	r4,0(r16)
   460a4:	9027883a 	mov	r19,r18
   460a8:	902f883a 	mov	r23,r18
   460ac:	003f6c06 	br	45e60 <__alt_data_end+0xfffded60>
   460b0:	900d883a 	mov	r6,r18
   460b4:	01400284 	movi	r5,10
   460b8:	e009883a 	mov	r4,fp
   460bc:	0046b740 	call	46b74 <memchr>
   460c0:	10003e26 	beq	r2,zero,461bc <__sfvwrite_r+0x498>
   460c4:	10800044 	addi	r2,r2,1
   460c8:	1727c83a 	sub	r19,r2,fp
   460cc:	02000044 	movi	r8,1
   460d0:	003f9d06 	br	45f48 <__alt_data_end+0xfffdee48>
   460d4:	80800517 	ldw	r2,20(r16)
   460d8:	81400417 	ldw	r5,16(r16)
   460dc:	81c00017 	ldw	r7,0(r16)
   460e0:	10a7883a 	add	r19,r2,r2
   460e4:	9885883a 	add	r2,r19,r2
   460e8:	1026d7fa 	srli	r19,r2,31
   460ec:	396dc83a 	sub	r22,r7,r5
   460f0:	b1000044 	addi	r4,r22,1
   460f4:	9885883a 	add	r2,r19,r2
   460f8:	1027d07a 	srai	r19,r2,1
   460fc:	2485883a 	add	r2,r4,r18
   46100:	980d883a 	mov	r6,r19
   46104:	9880022e 	bgeu	r19,r2,46110 <__sfvwrite_r+0x3ec>
   46108:	1027883a 	mov	r19,r2
   4610c:	100d883a 	mov	r6,r2
   46110:	18c1000c 	andi	r3,r3,1024
   46114:	18001c26 	beq	r3,zero,46188 <__sfvwrite_r+0x464>
   46118:	300b883a 	mov	r5,r6
   4611c:	a809883a 	mov	r4,r21
   46120:	00463680 	call	46368 <_malloc_r>
   46124:	102f883a 	mov	r23,r2
   46128:	10002926 	beq	r2,zero,461d0 <__sfvwrite_r+0x4ac>
   4612c:	81400417 	ldw	r5,16(r16)
   46130:	b00d883a 	mov	r6,r22
   46134:	1009883a 	mov	r4,r2
   46138:	0046c580 	call	46c58 <memcpy>
   4613c:	8080030b 	ldhu	r2,12(r16)
   46140:	00fedfc4 	movi	r3,-1153
   46144:	10c4703a 	and	r2,r2,r3
   46148:	10802014 	ori	r2,r2,128
   4614c:	8080030d 	sth	r2,12(r16)
   46150:	bd89883a 	add	r4,r23,r22
   46154:	9d8fc83a 	sub	r7,r19,r22
   46158:	85c00415 	stw	r23,16(r16)
   4615c:	84c00515 	stw	r19,20(r16)
   46160:	81000015 	stw	r4,0(r16)
   46164:	9027883a 	mov	r19,r18
   46168:	81c00215 	stw	r7,8(r16)
   4616c:	902f883a 	mov	r23,r18
   46170:	003f3b06 	br	45e60 <__alt_data_end+0xfffded60>
   46174:	800b883a 	mov	r5,r16
   46178:	a809883a 	mov	r4,r21
   4617c:	0047c400 	call	47c40 <_fflush_r>
   46180:	103fb926 	beq	r2,zero,46068 <__alt_data_end+0xfffdef68>
   46184:	003f6506 	br	45f1c <__alt_data_end+0xfffdee1c>
   46188:	a809883a 	mov	r4,r21
   4618c:	00470240 	call	47024 <_realloc_r>
   46190:	102f883a 	mov	r23,r2
   46194:	103fee1e 	bne	r2,zero,46150 <__alt_data_end+0xfffdf050>
   46198:	81400417 	ldw	r5,16(r16)
   4619c:	a809883a 	mov	r4,r21
   461a0:	0047df00 	call	47df0 <_free_r>
   461a4:	8080030b 	ldhu	r2,12(r16)
   461a8:	00ffdfc4 	movi	r3,-129
   461ac:	1884703a 	and	r2,r3,r2
   461b0:	00c00304 	movi	r3,12
   461b4:	a8c00015 	stw	r3,0(r21)
   461b8:	003f5906 	br	45f20 <__alt_data_end+0xfffdee20>
   461bc:	94c00044 	addi	r19,r18,1
   461c0:	02000044 	movi	r8,1
   461c4:	003f6006 	br	45f48 <__alt_data_end+0xfffdee48>
   461c8:	00bfffc4 	movi	r2,-1
   461cc:	003f0306 	br	45ddc <__alt_data_end+0xfffdecdc>
   461d0:	00800304 	movi	r2,12
   461d4:	a8800015 	stw	r2,0(r21)
   461d8:	8080030b 	ldhu	r2,12(r16)
   461dc:	003f5006 	br	45f20 <__alt_data_end+0xfffdee20>

000461e0 <_fwalk>:
   461e0:	defff704 	addi	sp,sp,-36
   461e4:	dd000415 	stw	r20,16(sp)
   461e8:	dfc00815 	stw	ra,32(sp)
   461ec:	ddc00715 	stw	r23,28(sp)
   461f0:	dd800615 	stw	r22,24(sp)
   461f4:	dd400515 	stw	r21,20(sp)
   461f8:	dcc00315 	stw	r19,12(sp)
   461fc:	dc800215 	stw	r18,8(sp)
   46200:	dc400115 	stw	r17,4(sp)
   46204:	dc000015 	stw	r16,0(sp)
   46208:	2500b804 	addi	r20,r4,736
   4620c:	a0002326 	beq	r20,zero,4629c <_fwalk+0xbc>
   46210:	282b883a 	mov	r21,r5
   46214:	002f883a 	mov	r23,zero
   46218:	05800044 	movi	r22,1
   4621c:	04ffffc4 	movi	r19,-1
   46220:	a4400117 	ldw	r17,4(r20)
   46224:	a4800217 	ldw	r18,8(r20)
   46228:	8c7fffc4 	addi	r17,r17,-1
   4622c:	88000d16 	blt	r17,zero,46264 <_fwalk+0x84>
   46230:	94000304 	addi	r16,r18,12
   46234:	94800384 	addi	r18,r18,14
   46238:	8080000b 	ldhu	r2,0(r16)
   4623c:	8c7fffc4 	addi	r17,r17,-1
   46240:	813ffd04 	addi	r4,r16,-12
   46244:	b080042e 	bgeu	r22,r2,46258 <_fwalk+0x78>
   46248:	9080000f 	ldh	r2,0(r18)
   4624c:	14c00226 	beq	r2,r19,46258 <_fwalk+0x78>
   46250:	a83ee83a 	callr	r21
   46254:	b8aeb03a 	or	r23,r23,r2
   46258:	84001a04 	addi	r16,r16,104
   4625c:	94801a04 	addi	r18,r18,104
   46260:	8cfff51e 	bne	r17,r19,46238 <__alt_data_end+0xfffdf138>
   46264:	a5000017 	ldw	r20,0(r20)
   46268:	a03fed1e 	bne	r20,zero,46220 <__alt_data_end+0xfffdf120>
   4626c:	b805883a 	mov	r2,r23
   46270:	dfc00817 	ldw	ra,32(sp)
   46274:	ddc00717 	ldw	r23,28(sp)
   46278:	dd800617 	ldw	r22,24(sp)
   4627c:	dd400517 	ldw	r21,20(sp)
   46280:	dd000417 	ldw	r20,16(sp)
   46284:	dcc00317 	ldw	r19,12(sp)
   46288:	dc800217 	ldw	r18,8(sp)
   4628c:	dc400117 	ldw	r17,4(sp)
   46290:	dc000017 	ldw	r16,0(sp)
   46294:	dec00904 	addi	sp,sp,36
   46298:	f800283a 	ret
   4629c:	002f883a 	mov	r23,zero
   462a0:	003ff206 	br	4626c <__alt_data_end+0xfffdf16c>

000462a4 <_fwalk_reent>:
   462a4:	defff704 	addi	sp,sp,-36
   462a8:	dd000415 	stw	r20,16(sp)
   462ac:	dfc00815 	stw	ra,32(sp)
   462b0:	ddc00715 	stw	r23,28(sp)
   462b4:	dd800615 	stw	r22,24(sp)
   462b8:	dd400515 	stw	r21,20(sp)
   462bc:	dcc00315 	stw	r19,12(sp)
   462c0:	dc800215 	stw	r18,8(sp)
   462c4:	dc400115 	stw	r17,4(sp)
   462c8:	dc000015 	stw	r16,0(sp)
   462cc:	2500b804 	addi	r20,r4,736
   462d0:	a0002326 	beq	r20,zero,46360 <_fwalk_reent+0xbc>
   462d4:	282b883a 	mov	r21,r5
   462d8:	2027883a 	mov	r19,r4
   462dc:	002f883a 	mov	r23,zero
   462e0:	05800044 	movi	r22,1
   462e4:	04bfffc4 	movi	r18,-1
   462e8:	a4400117 	ldw	r17,4(r20)
   462ec:	a4000217 	ldw	r16,8(r20)
   462f0:	8c7fffc4 	addi	r17,r17,-1
   462f4:	88000c16 	blt	r17,zero,46328 <_fwalk_reent+0x84>
   462f8:	84000304 	addi	r16,r16,12
   462fc:	8080000b 	ldhu	r2,0(r16)
   46300:	8c7fffc4 	addi	r17,r17,-1
   46304:	817ffd04 	addi	r5,r16,-12
   46308:	b080052e 	bgeu	r22,r2,46320 <_fwalk_reent+0x7c>
   4630c:	8080008f 	ldh	r2,2(r16)
   46310:	9809883a 	mov	r4,r19
   46314:	14800226 	beq	r2,r18,46320 <_fwalk_reent+0x7c>
   46318:	a83ee83a 	callr	r21
   4631c:	b8aeb03a 	or	r23,r23,r2
   46320:	84001a04 	addi	r16,r16,104
   46324:	8cbff51e 	bne	r17,r18,462fc <__alt_data_end+0xfffdf1fc>
   46328:	a5000017 	ldw	r20,0(r20)
   4632c:	a03fee1e 	bne	r20,zero,462e8 <__alt_data_end+0xfffdf1e8>
   46330:	b805883a 	mov	r2,r23
   46334:	dfc00817 	ldw	ra,32(sp)
   46338:	ddc00717 	ldw	r23,28(sp)
   4633c:	dd800617 	ldw	r22,24(sp)
   46340:	dd400517 	ldw	r21,20(sp)
   46344:	dd000417 	ldw	r20,16(sp)
   46348:	dcc00317 	ldw	r19,12(sp)
   4634c:	dc800217 	ldw	r18,8(sp)
   46350:	dc400117 	ldw	r17,4(sp)
   46354:	dc000017 	ldw	r16,0(sp)
   46358:	dec00904 	addi	sp,sp,36
   4635c:	f800283a 	ret
   46360:	002f883a 	mov	r23,zero
   46364:	003ff206 	br	46330 <__alt_data_end+0xfffdf230>

00046368 <_malloc_r>:
   46368:	defff504 	addi	sp,sp,-44
   4636c:	dc800315 	stw	r18,12(sp)
   46370:	dfc00a15 	stw	ra,40(sp)
   46374:	df000915 	stw	fp,36(sp)
   46378:	ddc00815 	stw	r23,32(sp)
   4637c:	dd800715 	stw	r22,28(sp)
   46380:	dd400615 	stw	r21,24(sp)
   46384:	dd000515 	stw	r20,20(sp)
   46388:	dcc00415 	stw	r19,16(sp)
   4638c:	dc400215 	stw	r17,8(sp)
   46390:	dc000115 	stw	r16,4(sp)
   46394:	288002c4 	addi	r2,r5,11
   46398:	00c00584 	movi	r3,22
   4639c:	2025883a 	mov	r18,r4
   463a0:	18807f2e 	bgeu	r3,r2,465a0 <_malloc_r+0x238>
   463a4:	047ffe04 	movi	r17,-8
   463a8:	1462703a 	and	r17,r2,r17
   463ac:	8800a316 	blt	r17,zero,4663c <_malloc_r+0x2d4>
   463b0:	8940a236 	bltu	r17,r5,4663c <_malloc_r+0x2d4>
   463b4:	00489a80 	call	489a8 <__malloc_lock>
   463b8:	00807dc4 	movi	r2,503
   463bc:	1441e92e 	bgeu	r2,r17,46b64 <_malloc_r+0x7fc>
   463c0:	8804d27a 	srli	r2,r17,9
   463c4:	1000a126 	beq	r2,zero,4664c <_malloc_r+0x2e4>
   463c8:	00c00104 	movi	r3,4
   463cc:	18811e36 	bltu	r3,r2,46848 <_malloc_r+0x4e0>
   463d0:	8804d1ba 	srli	r2,r17,6
   463d4:	12000e44 	addi	r8,r2,57
   463d8:	11c00e04 	addi	r7,r2,56
   463dc:	4209883a 	add	r4,r8,r8
   463e0:	04c00174 	movhi	r19,5
   463e4:	2109883a 	add	r4,r4,r4
   463e8:	9ced0604 	addi	r19,r19,-19432
   463ec:	2109883a 	add	r4,r4,r4
   463f0:	9909883a 	add	r4,r19,r4
   463f4:	24000117 	ldw	r16,4(r4)
   463f8:	213ffe04 	addi	r4,r4,-8
   463fc:	24009726 	beq	r4,r16,4665c <_malloc_r+0x2f4>
   46400:	80800117 	ldw	r2,4(r16)
   46404:	01bfff04 	movi	r6,-4
   46408:	014003c4 	movi	r5,15
   4640c:	1184703a 	and	r2,r2,r6
   46410:	1447c83a 	sub	r3,r2,r17
   46414:	28c00716 	blt	r5,r3,46434 <_malloc_r+0xcc>
   46418:	1800920e 	bge	r3,zero,46664 <_malloc_r+0x2fc>
   4641c:	84000317 	ldw	r16,12(r16)
   46420:	24008e26 	beq	r4,r16,4665c <_malloc_r+0x2f4>
   46424:	80800117 	ldw	r2,4(r16)
   46428:	1184703a 	and	r2,r2,r6
   4642c:	1447c83a 	sub	r3,r2,r17
   46430:	28fff90e 	bge	r5,r3,46418 <__alt_data_end+0xfffdf318>
   46434:	3809883a 	mov	r4,r7
   46438:	01800174 	movhi	r6,5
   4643c:	9c000417 	ldw	r16,16(r19)
   46440:	31ad0604 	addi	r6,r6,-19432
   46444:	32000204 	addi	r8,r6,8
   46448:	82013426 	beq	r16,r8,4691c <_malloc_r+0x5b4>
   4644c:	80c00117 	ldw	r3,4(r16)
   46450:	00bfff04 	movi	r2,-4
   46454:	188e703a 	and	r7,r3,r2
   46458:	3c45c83a 	sub	r2,r7,r17
   4645c:	00c003c4 	movi	r3,15
   46460:	18811f16 	blt	r3,r2,468e0 <_malloc_r+0x578>
   46464:	32000515 	stw	r8,20(r6)
   46468:	32000415 	stw	r8,16(r6)
   4646c:	10007f0e 	bge	r2,zero,4666c <_malloc_r+0x304>
   46470:	00807fc4 	movi	r2,511
   46474:	11c0fd36 	bltu	r2,r7,4686c <_malloc_r+0x504>
   46478:	3806d0fa 	srli	r3,r7,3
   4647c:	01c00044 	movi	r7,1
   46480:	30800117 	ldw	r2,4(r6)
   46484:	19400044 	addi	r5,r3,1
   46488:	294b883a 	add	r5,r5,r5
   4648c:	1807d0ba 	srai	r3,r3,2
   46490:	294b883a 	add	r5,r5,r5
   46494:	294b883a 	add	r5,r5,r5
   46498:	298b883a 	add	r5,r5,r6
   4649c:	38c6983a 	sll	r3,r7,r3
   464a0:	29c00017 	ldw	r7,0(r5)
   464a4:	2a7ffe04 	addi	r9,r5,-8
   464a8:	1886b03a 	or	r3,r3,r2
   464ac:	82400315 	stw	r9,12(r16)
   464b0:	81c00215 	stw	r7,8(r16)
   464b4:	30c00115 	stw	r3,4(r6)
   464b8:	2c000015 	stw	r16,0(r5)
   464bc:	3c000315 	stw	r16,12(r7)
   464c0:	2005d0ba 	srai	r2,r4,2
   464c4:	01400044 	movi	r5,1
   464c8:	288a983a 	sll	r5,r5,r2
   464cc:	19406f36 	bltu	r3,r5,4668c <_malloc_r+0x324>
   464d0:	28c4703a 	and	r2,r5,r3
   464d4:	10000a1e 	bne	r2,zero,46500 <_malloc_r+0x198>
   464d8:	00bfff04 	movi	r2,-4
   464dc:	294b883a 	add	r5,r5,r5
   464e0:	2088703a 	and	r4,r4,r2
   464e4:	28c4703a 	and	r2,r5,r3
   464e8:	21000104 	addi	r4,r4,4
   464ec:	1000041e 	bne	r2,zero,46500 <_malloc_r+0x198>
   464f0:	294b883a 	add	r5,r5,r5
   464f4:	28c4703a 	and	r2,r5,r3
   464f8:	21000104 	addi	r4,r4,4
   464fc:	103ffc26 	beq	r2,zero,464f0 <__alt_data_end+0xfffdf3f0>
   46500:	02bfff04 	movi	r10,-4
   46504:	024003c4 	movi	r9,15
   46508:	21800044 	addi	r6,r4,1
   4650c:	318d883a 	add	r6,r6,r6
   46510:	318d883a 	add	r6,r6,r6
   46514:	318d883a 	add	r6,r6,r6
   46518:	998d883a 	add	r6,r19,r6
   4651c:	333ffe04 	addi	r12,r6,-8
   46520:	2017883a 	mov	r11,r4
   46524:	31800104 	addi	r6,r6,4
   46528:	34000017 	ldw	r16,0(r6)
   4652c:	31fffd04 	addi	r7,r6,-12
   46530:	81c0041e 	bne	r16,r7,46544 <_malloc_r+0x1dc>
   46534:	0000fb06 	br	46924 <_malloc_r+0x5bc>
   46538:	1801030e 	bge	r3,zero,46948 <_malloc_r+0x5e0>
   4653c:	84000317 	ldw	r16,12(r16)
   46540:	81c0f826 	beq	r16,r7,46924 <_malloc_r+0x5bc>
   46544:	80800117 	ldw	r2,4(r16)
   46548:	1284703a 	and	r2,r2,r10
   4654c:	1447c83a 	sub	r3,r2,r17
   46550:	48fff90e 	bge	r9,r3,46538 <__alt_data_end+0xfffdf438>
   46554:	80800317 	ldw	r2,12(r16)
   46558:	81000217 	ldw	r4,8(r16)
   4655c:	89400054 	ori	r5,r17,1
   46560:	81400115 	stw	r5,4(r16)
   46564:	20800315 	stw	r2,12(r4)
   46568:	11000215 	stw	r4,8(r2)
   4656c:	8463883a 	add	r17,r16,r17
   46570:	9c400515 	stw	r17,20(r19)
   46574:	9c400415 	stw	r17,16(r19)
   46578:	18800054 	ori	r2,r3,1
   4657c:	88800115 	stw	r2,4(r17)
   46580:	8a000315 	stw	r8,12(r17)
   46584:	8a000215 	stw	r8,8(r17)
   46588:	88e3883a 	add	r17,r17,r3
   4658c:	88c00015 	stw	r3,0(r17)
   46590:	9009883a 	mov	r4,r18
   46594:	00489cc0 	call	489cc <__malloc_unlock>
   46598:	80800204 	addi	r2,r16,8
   4659c:	00001b06 	br	4660c <_malloc_r+0x2a4>
   465a0:	04400404 	movi	r17,16
   465a4:	89402536 	bltu	r17,r5,4663c <_malloc_r+0x2d4>
   465a8:	00489a80 	call	489a8 <__malloc_lock>
   465ac:	00800184 	movi	r2,6
   465b0:	01000084 	movi	r4,2
   465b4:	04c00174 	movhi	r19,5
   465b8:	1085883a 	add	r2,r2,r2
   465bc:	9ced0604 	addi	r19,r19,-19432
   465c0:	1085883a 	add	r2,r2,r2
   465c4:	9885883a 	add	r2,r19,r2
   465c8:	14000117 	ldw	r16,4(r2)
   465cc:	10fffe04 	addi	r3,r2,-8
   465d0:	80c0d926 	beq	r16,r3,46938 <_malloc_r+0x5d0>
   465d4:	80c00117 	ldw	r3,4(r16)
   465d8:	81000317 	ldw	r4,12(r16)
   465dc:	00bfff04 	movi	r2,-4
   465e0:	1884703a 	and	r2,r3,r2
   465e4:	81400217 	ldw	r5,8(r16)
   465e8:	8085883a 	add	r2,r16,r2
   465ec:	10c00117 	ldw	r3,4(r2)
   465f0:	29000315 	stw	r4,12(r5)
   465f4:	21400215 	stw	r5,8(r4)
   465f8:	18c00054 	ori	r3,r3,1
   465fc:	10c00115 	stw	r3,4(r2)
   46600:	9009883a 	mov	r4,r18
   46604:	00489cc0 	call	489cc <__malloc_unlock>
   46608:	80800204 	addi	r2,r16,8
   4660c:	dfc00a17 	ldw	ra,40(sp)
   46610:	df000917 	ldw	fp,36(sp)
   46614:	ddc00817 	ldw	r23,32(sp)
   46618:	dd800717 	ldw	r22,28(sp)
   4661c:	dd400617 	ldw	r21,24(sp)
   46620:	dd000517 	ldw	r20,20(sp)
   46624:	dcc00417 	ldw	r19,16(sp)
   46628:	dc800317 	ldw	r18,12(sp)
   4662c:	dc400217 	ldw	r17,8(sp)
   46630:	dc000117 	ldw	r16,4(sp)
   46634:	dec00b04 	addi	sp,sp,44
   46638:	f800283a 	ret
   4663c:	00800304 	movi	r2,12
   46640:	90800015 	stw	r2,0(r18)
   46644:	0005883a 	mov	r2,zero
   46648:	003ff006 	br	4660c <__alt_data_end+0xfffdf50c>
   4664c:	01002004 	movi	r4,128
   46650:	02001004 	movi	r8,64
   46654:	01c00fc4 	movi	r7,63
   46658:	003f6106 	br	463e0 <__alt_data_end+0xfffdf2e0>
   4665c:	4009883a 	mov	r4,r8
   46660:	003f7506 	br	46438 <__alt_data_end+0xfffdf338>
   46664:	81000317 	ldw	r4,12(r16)
   46668:	003fde06 	br	465e4 <__alt_data_end+0xfffdf4e4>
   4666c:	81c5883a 	add	r2,r16,r7
   46670:	11400117 	ldw	r5,4(r2)
   46674:	9009883a 	mov	r4,r18
   46678:	29400054 	ori	r5,r5,1
   4667c:	11400115 	stw	r5,4(r2)
   46680:	00489cc0 	call	489cc <__malloc_unlock>
   46684:	80800204 	addi	r2,r16,8
   46688:	003fe006 	br	4660c <__alt_data_end+0xfffdf50c>
   4668c:	9c000217 	ldw	r16,8(r19)
   46690:	00bfff04 	movi	r2,-4
   46694:	85800117 	ldw	r22,4(r16)
   46698:	b0ac703a 	and	r22,r22,r2
   4669c:	b4400336 	bltu	r22,r17,466ac <_malloc_r+0x344>
   466a0:	b445c83a 	sub	r2,r22,r17
   466a4:	00c003c4 	movi	r3,15
   466a8:	18805d16 	blt	r3,r2,46820 <_malloc_r+0x4b8>
   466ac:	05c00174 	movhi	r23,5
   466b0:	00800174 	movhi	r2,5
   466b4:	10b93504 	addi	r2,r2,-6956
   466b8:	bdf28c04 	addi	r23,r23,-13776
   466bc:	15400017 	ldw	r21,0(r2)
   466c0:	b8c00017 	ldw	r3,0(r23)
   466c4:	00bfffc4 	movi	r2,-1
   466c8:	858d883a 	add	r6,r16,r22
   466cc:	8d6b883a 	add	r21,r17,r21
   466d0:	1880ea26 	beq	r3,r2,46a7c <_malloc_r+0x714>
   466d4:	ad4403c4 	addi	r21,r21,4111
   466d8:	00bc0004 	movi	r2,-4096
   466dc:	a8aa703a 	and	r21,r21,r2
   466e0:	a80b883a 	mov	r5,r21
   466e4:	9009883a 	mov	r4,r18
   466e8:	d9800015 	stw	r6,0(sp)
   466ec:	00475880 	call	47588 <_sbrk_r>
   466f0:	1029883a 	mov	r20,r2
   466f4:	00bfffc4 	movi	r2,-1
   466f8:	d9800017 	ldw	r6,0(sp)
   466fc:	a080e826 	beq	r20,r2,46aa0 <_malloc_r+0x738>
   46700:	a180a636 	bltu	r20,r6,4699c <_malloc_r+0x634>
   46704:	07000174 	movhi	fp,5
   46708:	e7393d04 	addi	fp,fp,-6924
   4670c:	e0800017 	ldw	r2,0(fp)
   46710:	a887883a 	add	r3,r21,r2
   46714:	e0c00015 	stw	r3,0(fp)
   46718:	3500e626 	beq	r6,r20,46ab4 <_malloc_r+0x74c>
   4671c:	b9000017 	ldw	r4,0(r23)
   46720:	00bfffc4 	movi	r2,-1
   46724:	2080ee26 	beq	r4,r2,46ae0 <_malloc_r+0x778>
   46728:	a185c83a 	sub	r2,r20,r6
   4672c:	10c5883a 	add	r2,r2,r3
   46730:	e0800015 	stw	r2,0(fp)
   46734:	a0c001cc 	andi	r3,r20,7
   46738:	1800bc26 	beq	r3,zero,46a2c <_malloc_r+0x6c4>
   4673c:	a0e9c83a 	sub	r20,r20,r3
   46740:	00840204 	movi	r2,4104
   46744:	a5000204 	addi	r20,r20,8
   46748:	10c7c83a 	sub	r3,r2,r3
   4674c:	a545883a 	add	r2,r20,r21
   46750:	1083ffcc 	andi	r2,r2,4095
   46754:	18abc83a 	sub	r21,r3,r2
   46758:	a80b883a 	mov	r5,r21
   4675c:	9009883a 	mov	r4,r18
   46760:	00475880 	call	47588 <_sbrk_r>
   46764:	00ffffc4 	movi	r3,-1
   46768:	10c0e126 	beq	r2,r3,46af0 <_malloc_r+0x788>
   4676c:	1505c83a 	sub	r2,r2,r20
   46770:	1545883a 	add	r2,r2,r21
   46774:	10800054 	ori	r2,r2,1
   46778:	e0c00017 	ldw	r3,0(fp)
   4677c:	9d000215 	stw	r20,8(r19)
   46780:	a0800115 	stw	r2,4(r20)
   46784:	a8c7883a 	add	r3,r21,r3
   46788:	e0c00015 	stw	r3,0(fp)
   4678c:	84c00e26 	beq	r16,r19,467c8 <_malloc_r+0x460>
   46790:	018003c4 	movi	r6,15
   46794:	3580a72e 	bgeu	r6,r22,46a34 <_malloc_r+0x6cc>
   46798:	81400117 	ldw	r5,4(r16)
   4679c:	013ffe04 	movi	r4,-8
   467a0:	b0bffd04 	addi	r2,r22,-12
   467a4:	1104703a 	and	r2,r2,r4
   467a8:	2900004c 	andi	r4,r5,1
   467ac:	2088b03a 	or	r4,r4,r2
   467b0:	81000115 	stw	r4,4(r16)
   467b4:	01400144 	movi	r5,5
   467b8:	8089883a 	add	r4,r16,r2
   467bc:	21400115 	stw	r5,4(r4)
   467c0:	21400215 	stw	r5,8(r4)
   467c4:	3080cd36 	bltu	r6,r2,46afc <_malloc_r+0x794>
   467c8:	00800174 	movhi	r2,5
   467cc:	10b93404 	addi	r2,r2,-6960
   467d0:	11000017 	ldw	r4,0(r2)
   467d4:	20c0012e 	bgeu	r4,r3,467dc <_malloc_r+0x474>
   467d8:	10c00015 	stw	r3,0(r2)
   467dc:	00800174 	movhi	r2,5
   467e0:	10b93304 	addi	r2,r2,-6964
   467e4:	11000017 	ldw	r4,0(r2)
   467e8:	9c000217 	ldw	r16,8(r19)
   467ec:	20c0012e 	bgeu	r4,r3,467f4 <_malloc_r+0x48c>
   467f0:	10c00015 	stw	r3,0(r2)
   467f4:	80c00117 	ldw	r3,4(r16)
   467f8:	00bfff04 	movi	r2,-4
   467fc:	1886703a 	and	r3,r3,r2
   46800:	1c45c83a 	sub	r2,r3,r17
   46804:	1c400236 	bltu	r3,r17,46810 <_malloc_r+0x4a8>
   46808:	00c003c4 	movi	r3,15
   4680c:	18800416 	blt	r3,r2,46820 <_malloc_r+0x4b8>
   46810:	9009883a 	mov	r4,r18
   46814:	00489cc0 	call	489cc <__malloc_unlock>
   46818:	0005883a 	mov	r2,zero
   4681c:	003f7b06 	br	4660c <__alt_data_end+0xfffdf50c>
   46820:	88c00054 	ori	r3,r17,1
   46824:	80c00115 	stw	r3,4(r16)
   46828:	8463883a 	add	r17,r16,r17
   4682c:	10800054 	ori	r2,r2,1
   46830:	9c400215 	stw	r17,8(r19)
   46834:	88800115 	stw	r2,4(r17)
   46838:	9009883a 	mov	r4,r18
   4683c:	00489cc0 	call	489cc <__malloc_unlock>
   46840:	80800204 	addi	r2,r16,8
   46844:	003f7106 	br	4660c <__alt_data_end+0xfffdf50c>
   46848:	00c00504 	movi	r3,20
   4684c:	18804a2e 	bgeu	r3,r2,46978 <_malloc_r+0x610>
   46850:	00c01504 	movi	r3,84
   46854:	18806e36 	bltu	r3,r2,46a10 <_malloc_r+0x6a8>
   46858:	8804d33a 	srli	r2,r17,12
   4685c:	12001bc4 	addi	r8,r2,111
   46860:	11c01b84 	addi	r7,r2,110
   46864:	4209883a 	add	r4,r8,r8
   46868:	003edd06 	br	463e0 <__alt_data_end+0xfffdf2e0>
   4686c:	3804d27a 	srli	r2,r7,9
   46870:	00c00104 	movi	r3,4
   46874:	1880442e 	bgeu	r3,r2,46988 <_malloc_r+0x620>
   46878:	00c00504 	movi	r3,20
   4687c:	18808136 	bltu	r3,r2,46a84 <_malloc_r+0x71c>
   46880:	11401704 	addi	r5,r2,92
   46884:	10c016c4 	addi	r3,r2,91
   46888:	294b883a 	add	r5,r5,r5
   4688c:	294b883a 	add	r5,r5,r5
   46890:	294b883a 	add	r5,r5,r5
   46894:	994b883a 	add	r5,r19,r5
   46898:	28800017 	ldw	r2,0(r5)
   4689c:	01800174 	movhi	r6,5
   468a0:	297ffe04 	addi	r5,r5,-8
   468a4:	31ad0604 	addi	r6,r6,-19432
   468a8:	28806526 	beq	r5,r2,46a40 <_malloc_r+0x6d8>
   468ac:	01bfff04 	movi	r6,-4
   468b0:	10c00117 	ldw	r3,4(r2)
   468b4:	1986703a 	and	r3,r3,r6
   468b8:	38c0022e 	bgeu	r7,r3,468c4 <_malloc_r+0x55c>
   468bc:	10800217 	ldw	r2,8(r2)
   468c0:	28bffb1e 	bne	r5,r2,468b0 <__alt_data_end+0xfffdf7b0>
   468c4:	11400317 	ldw	r5,12(r2)
   468c8:	98c00117 	ldw	r3,4(r19)
   468cc:	81400315 	stw	r5,12(r16)
   468d0:	80800215 	stw	r2,8(r16)
   468d4:	2c000215 	stw	r16,8(r5)
   468d8:	14000315 	stw	r16,12(r2)
   468dc:	003ef806 	br	464c0 <__alt_data_end+0xfffdf3c0>
   468e0:	88c00054 	ori	r3,r17,1
   468e4:	80c00115 	stw	r3,4(r16)
   468e8:	8463883a 	add	r17,r16,r17
   468ec:	34400515 	stw	r17,20(r6)
   468f0:	34400415 	stw	r17,16(r6)
   468f4:	10c00054 	ori	r3,r2,1
   468f8:	8a000315 	stw	r8,12(r17)
   468fc:	8a000215 	stw	r8,8(r17)
   46900:	88c00115 	stw	r3,4(r17)
   46904:	88a3883a 	add	r17,r17,r2
   46908:	88800015 	stw	r2,0(r17)
   4690c:	9009883a 	mov	r4,r18
   46910:	00489cc0 	call	489cc <__malloc_unlock>
   46914:	80800204 	addi	r2,r16,8
   46918:	003f3c06 	br	4660c <__alt_data_end+0xfffdf50c>
   4691c:	30c00117 	ldw	r3,4(r6)
   46920:	003ee706 	br	464c0 <__alt_data_end+0xfffdf3c0>
   46924:	5ac00044 	addi	r11,r11,1
   46928:	588000cc 	andi	r2,r11,3
   4692c:	31800204 	addi	r6,r6,8
   46930:	103efd1e 	bne	r2,zero,46528 <__alt_data_end+0xfffdf428>
   46934:	00002406 	br	469c8 <_malloc_r+0x660>
   46938:	14000317 	ldw	r16,12(r2)
   4693c:	143f251e 	bne	r2,r16,465d4 <__alt_data_end+0xfffdf4d4>
   46940:	21000084 	addi	r4,r4,2
   46944:	003ebc06 	br	46438 <__alt_data_end+0xfffdf338>
   46948:	8085883a 	add	r2,r16,r2
   4694c:	10c00117 	ldw	r3,4(r2)
   46950:	81000317 	ldw	r4,12(r16)
   46954:	81400217 	ldw	r5,8(r16)
   46958:	18c00054 	ori	r3,r3,1
   4695c:	10c00115 	stw	r3,4(r2)
   46960:	29000315 	stw	r4,12(r5)
   46964:	21400215 	stw	r5,8(r4)
   46968:	9009883a 	mov	r4,r18
   4696c:	00489cc0 	call	489cc <__malloc_unlock>
   46970:	80800204 	addi	r2,r16,8
   46974:	003f2506 	br	4660c <__alt_data_end+0xfffdf50c>
   46978:	12001704 	addi	r8,r2,92
   4697c:	11c016c4 	addi	r7,r2,91
   46980:	4209883a 	add	r4,r8,r8
   46984:	003e9606 	br	463e0 <__alt_data_end+0xfffdf2e0>
   46988:	3804d1ba 	srli	r2,r7,6
   4698c:	11400e44 	addi	r5,r2,57
   46990:	10c00e04 	addi	r3,r2,56
   46994:	294b883a 	add	r5,r5,r5
   46998:	003fbc06 	br	4688c <__alt_data_end+0xfffdf78c>
   4699c:	84ff5926 	beq	r16,r19,46704 <__alt_data_end+0xfffdf604>
   469a0:	00800174 	movhi	r2,5
   469a4:	10ad0604 	addi	r2,r2,-19432
   469a8:	14000217 	ldw	r16,8(r2)
   469ac:	00bfff04 	movi	r2,-4
   469b0:	80c00117 	ldw	r3,4(r16)
   469b4:	1886703a 	and	r3,r3,r2
   469b8:	003f9106 	br	46800 <__alt_data_end+0xfffdf700>
   469bc:	60800217 	ldw	r2,8(r12)
   469c0:	213fffc4 	addi	r4,r4,-1
   469c4:	1300651e 	bne	r2,r12,46b5c <_malloc_r+0x7f4>
   469c8:	208000cc 	andi	r2,r4,3
   469cc:	633ffe04 	addi	r12,r12,-8
   469d0:	103ffa1e 	bne	r2,zero,469bc <__alt_data_end+0xfffdf8bc>
   469d4:	98800117 	ldw	r2,4(r19)
   469d8:	0146303a 	nor	r3,zero,r5
   469dc:	1884703a 	and	r2,r3,r2
   469e0:	98800115 	stw	r2,4(r19)
   469e4:	294b883a 	add	r5,r5,r5
   469e8:	117f2836 	bltu	r2,r5,4668c <__alt_data_end+0xfffdf58c>
   469ec:	283f2726 	beq	r5,zero,4668c <__alt_data_end+0xfffdf58c>
   469f0:	2886703a 	and	r3,r5,r2
   469f4:	5809883a 	mov	r4,r11
   469f8:	183ec31e 	bne	r3,zero,46508 <__alt_data_end+0xfffdf408>
   469fc:	294b883a 	add	r5,r5,r5
   46a00:	2886703a 	and	r3,r5,r2
   46a04:	21000104 	addi	r4,r4,4
   46a08:	183ffc26 	beq	r3,zero,469fc <__alt_data_end+0xfffdf8fc>
   46a0c:	003ebe06 	br	46508 <__alt_data_end+0xfffdf408>
   46a10:	00c05504 	movi	r3,340
   46a14:	18801236 	bltu	r3,r2,46a60 <_malloc_r+0x6f8>
   46a18:	8804d3fa 	srli	r2,r17,15
   46a1c:	12001e04 	addi	r8,r2,120
   46a20:	11c01dc4 	addi	r7,r2,119
   46a24:	4209883a 	add	r4,r8,r8
   46a28:	003e6d06 	br	463e0 <__alt_data_end+0xfffdf2e0>
   46a2c:	00c40004 	movi	r3,4096
   46a30:	003f4606 	br	4674c <__alt_data_end+0xfffdf64c>
   46a34:	00800044 	movi	r2,1
   46a38:	a0800115 	stw	r2,4(r20)
   46a3c:	003f7406 	br	46810 <__alt_data_end+0xfffdf710>
   46a40:	1805d0ba 	srai	r2,r3,2
   46a44:	01c00044 	movi	r7,1
   46a48:	30c00117 	ldw	r3,4(r6)
   46a4c:	388e983a 	sll	r7,r7,r2
   46a50:	2805883a 	mov	r2,r5
   46a54:	38c6b03a 	or	r3,r7,r3
   46a58:	30c00115 	stw	r3,4(r6)
   46a5c:	003f9b06 	br	468cc <__alt_data_end+0xfffdf7cc>
   46a60:	00c15504 	movi	r3,1364
   46a64:	18801a36 	bltu	r3,r2,46ad0 <_malloc_r+0x768>
   46a68:	8804d4ba 	srli	r2,r17,18
   46a6c:	12001f44 	addi	r8,r2,125
   46a70:	11c01f04 	addi	r7,r2,124
   46a74:	4209883a 	add	r4,r8,r8
   46a78:	003e5906 	br	463e0 <__alt_data_end+0xfffdf2e0>
   46a7c:	ad400404 	addi	r21,r21,16
   46a80:	003f1706 	br	466e0 <__alt_data_end+0xfffdf5e0>
   46a84:	00c01504 	movi	r3,84
   46a88:	18802336 	bltu	r3,r2,46b18 <_malloc_r+0x7b0>
   46a8c:	3804d33a 	srli	r2,r7,12
   46a90:	11401bc4 	addi	r5,r2,111
   46a94:	10c01b84 	addi	r3,r2,110
   46a98:	294b883a 	add	r5,r5,r5
   46a9c:	003f7b06 	br	4688c <__alt_data_end+0xfffdf78c>
   46aa0:	9c000217 	ldw	r16,8(r19)
   46aa4:	00bfff04 	movi	r2,-4
   46aa8:	80c00117 	ldw	r3,4(r16)
   46aac:	1886703a 	and	r3,r3,r2
   46ab0:	003f5306 	br	46800 <__alt_data_end+0xfffdf700>
   46ab4:	3083ffcc 	andi	r2,r6,4095
   46ab8:	103f181e 	bne	r2,zero,4671c <__alt_data_end+0xfffdf61c>
   46abc:	99000217 	ldw	r4,8(r19)
   46ac0:	b545883a 	add	r2,r22,r21
   46ac4:	10800054 	ori	r2,r2,1
   46ac8:	20800115 	stw	r2,4(r4)
   46acc:	003f3e06 	br	467c8 <__alt_data_end+0xfffdf6c8>
   46ad0:	01003f84 	movi	r4,254
   46ad4:	02001fc4 	movi	r8,127
   46ad8:	01c01f84 	movi	r7,126
   46adc:	003e4006 	br	463e0 <__alt_data_end+0xfffdf2e0>
   46ae0:	00800174 	movhi	r2,5
   46ae4:	10b28c04 	addi	r2,r2,-13776
   46ae8:	15000015 	stw	r20,0(r2)
   46aec:	003f1106 	br	46734 <__alt_data_end+0xfffdf634>
   46af0:	00800044 	movi	r2,1
   46af4:	002b883a 	mov	r21,zero
   46af8:	003f1f06 	br	46778 <__alt_data_end+0xfffdf678>
   46afc:	81400204 	addi	r5,r16,8
   46b00:	9009883a 	mov	r4,r18
   46b04:	0047df00 	call	47df0 <_free_r>
   46b08:	00800174 	movhi	r2,5
   46b0c:	10b93d04 	addi	r2,r2,-6924
   46b10:	10c00017 	ldw	r3,0(r2)
   46b14:	003f2c06 	br	467c8 <__alt_data_end+0xfffdf6c8>
   46b18:	00c05504 	movi	r3,340
   46b1c:	18800536 	bltu	r3,r2,46b34 <_malloc_r+0x7cc>
   46b20:	3804d3fa 	srli	r2,r7,15
   46b24:	11401e04 	addi	r5,r2,120
   46b28:	10c01dc4 	addi	r3,r2,119
   46b2c:	294b883a 	add	r5,r5,r5
   46b30:	003f5606 	br	4688c <__alt_data_end+0xfffdf78c>
   46b34:	00c15504 	movi	r3,1364
   46b38:	18800536 	bltu	r3,r2,46b50 <_malloc_r+0x7e8>
   46b3c:	3804d4ba 	srli	r2,r7,18
   46b40:	11401f44 	addi	r5,r2,125
   46b44:	10c01f04 	addi	r3,r2,124
   46b48:	294b883a 	add	r5,r5,r5
   46b4c:	003f4f06 	br	4688c <__alt_data_end+0xfffdf78c>
   46b50:	01403f84 	movi	r5,254
   46b54:	00c01f84 	movi	r3,126
   46b58:	003f4c06 	br	4688c <__alt_data_end+0xfffdf78c>
   46b5c:	98800117 	ldw	r2,4(r19)
   46b60:	003fa006 	br	469e4 <__alt_data_end+0xfffdf8e4>
   46b64:	8808d0fa 	srli	r4,r17,3
   46b68:	20800044 	addi	r2,r4,1
   46b6c:	1085883a 	add	r2,r2,r2
   46b70:	003e9006 	br	465b4 <__alt_data_end+0xfffdf4b4>

00046b74 <memchr>:
   46b74:	208000cc 	andi	r2,r4,3
   46b78:	280f883a 	mov	r7,r5
   46b7c:	10003426 	beq	r2,zero,46c50 <memchr+0xdc>
   46b80:	30bfffc4 	addi	r2,r6,-1
   46b84:	30001a26 	beq	r6,zero,46bf0 <memchr+0x7c>
   46b88:	20c00003 	ldbu	r3,0(r4)
   46b8c:	29803fcc 	andi	r6,r5,255
   46b90:	30c0051e 	bne	r6,r3,46ba8 <memchr+0x34>
   46b94:	00001806 	br	46bf8 <memchr+0x84>
   46b98:	10001526 	beq	r2,zero,46bf0 <memchr+0x7c>
   46b9c:	20c00003 	ldbu	r3,0(r4)
   46ba0:	10bfffc4 	addi	r2,r2,-1
   46ba4:	30c01426 	beq	r6,r3,46bf8 <memchr+0x84>
   46ba8:	21000044 	addi	r4,r4,1
   46bac:	20c000cc 	andi	r3,r4,3
   46bb0:	183ff91e 	bne	r3,zero,46b98 <__alt_data_end+0xfffdfa98>
   46bb4:	020000c4 	movi	r8,3
   46bb8:	40801136 	bltu	r8,r2,46c00 <memchr+0x8c>
   46bbc:	10000c26 	beq	r2,zero,46bf0 <memchr+0x7c>
   46bc0:	20c00003 	ldbu	r3,0(r4)
   46bc4:	29403fcc 	andi	r5,r5,255
   46bc8:	28c00b26 	beq	r5,r3,46bf8 <memchr+0x84>
   46bcc:	20c00044 	addi	r3,r4,1
   46bd0:	39803fcc 	andi	r6,r7,255
   46bd4:	2089883a 	add	r4,r4,r2
   46bd8:	00000306 	br	46be8 <memchr+0x74>
   46bdc:	18c00044 	addi	r3,r3,1
   46be0:	197fffc3 	ldbu	r5,-1(r3)
   46be4:	31400526 	beq	r6,r5,46bfc <memchr+0x88>
   46be8:	1805883a 	mov	r2,r3
   46bec:	20fffb1e 	bne	r4,r3,46bdc <__alt_data_end+0xfffdfadc>
   46bf0:	0005883a 	mov	r2,zero
   46bf4:	f800283a 	ret
   46bf8:	2005883a 	mov	r2,r4
   46bfc:	f800283a 	ret
   46c00:	28c03fcc 	andi	r3,r5,255
   46c04:	1812923a 	slli	r9,r3,8
   46c08:	02ffbff4 	movhi	r11,65279
   46c0c:	02a02074 	movhi	r10,32897
   46c10:	48d2b03a 	or	r9,r9,r3
   46c14:	4806943a 	slli	r3,r9,16
   46c18:	5affbfc4 	addi	r11,r11,-257
   46c1c:	52a02004 	addi	r10,r10,-32640
   46c20:	48d2b03a 	or	r9,r9,r3
   46c24:	20c00017 	ldw	r3,0(r4)
   46c28:	48c6f03a 	xor	r3,r9,r3
   46c2c:	1acd883a 	add	r6,r3,r11
   46c30:	00c6303a 	nor	r3,zero,r3
   46c34:	30c6703a 	and	r3,r6,r3
   46c38:	1a86703a 	and	r3,r3,r10
   46c3c:	183fe01e 	bne	r3,zero,46bc0 <__alt_data_end+0xfffdfac0>
   46c40:	10bfff04 	addi	r2,r2,-4
   46c44:	21000104 	addi	r4,r4,4
   46c48:	40bff636 	bltu	r8,r2,46c24 <__alt_data_end+0xfffdfb24>
   46c4c:	003fdb06 	br	46bbc <__alt_data_end+0xfffdfabc>
   46c50:	3005883a 	mov	r2,r6
   46c54:	003fd706 	br	46bb4 <__alt_data_end+0xfffdfab4>

00046c58 <memcpy>:
   46c58:	defffd04 	addi	sp,sp,-12
   46c5c:	dfc00215 	stw	ra,8(sp)
   46c60:	dc400115 	stw	r17,4(sp)
   46c64:	dc000015 	stw	r16,0(sp)
   46c68:	00c003c4 	movi	r3,15
   46c6c:	2005883a 	mov	r2,r4
   46c70:	1980452e 	bgeu	r3,r6,46d88 <memcpy+0x130>
   46c74:	2906b03a 	or	r3,r5,r4
   46c78:	18c000cc 	andi	r3,r3,3
   46c7c:	1800441e 	bne	r3,zero,46d90 <memcpy+0x138>
   46c80:	347ffc04 	addi	r17,r6,-16
   46c84:	8822d13a 	srli	r17,r17,4
   46c88:	28c00104 	addi	r3,r5,4
   46c8c:	23400104 	addi	r13,r4,4
   46c90:	8820913a 	slli	r16,r17,4
   46c94:	2b000204 	addi	r12,r5,8
   46c98:	22c00204 	addi	r11,r4,8
   46c9c:	84000504 	addi	r16,r16,20
   46ca0:	2a800304 	addi	r10,r5,12
   46ca4:	22400304 	addi	r9,r4,12
   46ca8:	2c21883a 	add	r16,r5,r16
   46cac:	2811883a 	mov	r8,r5
   46cb0:	200f883a 	mov	r7,r4
   46cb4:	41000017 	ldw	r4,0(r8)
   46cb8:	1fc00017 	ldw	ra,0(r3)
   46cbc:	63c00017 	ldw	r15,0(r12)
   46cc0:	39000015 	stw	r4,0(r7)
   46cc4:	53800017 	ldw	r14,0(r10)
   46cc8:	6fc00015 	stw	ra,0(r13)
   46ccc:	5bc00015 	stw	r15,0(r11)
   46cd0:	4b800015 	stw	r14,0(r9)
   46cd4:	18c00404 	addi	r3,r3,16
   46cd8:	39c00404 	addi	r7,r7,16
   46cdc:	42000404 	addi	r8,r8,16
   46ce0:	6b400404 	addi	r13,r13,16
   46ce4:	63000404 	addi	r12,r12,16
   46ce8:	5ac00404 	addi	r11,r11,16
   46cec:	52800404 	addi	r10,r10,16
   46cf0:	4a400404 	addi	r9,r9,16
   46cf4:	1c3fef1e 	bne	r3,r16,46cb4 <__alt_data_end+0xfffdfbb4>
   46cf8:	89c00044 	addi	r7,r17,1
   46cfc:	380e913a 	slli	r7,r7,4
   46d00:	310003cc 	andi	r4,r6,15
   46d04:	02c000c4 	movi	r11,3
   46d08:	11c7883a 	add	r3,r2,r7
   46d0c:	29cb883a 	add	r5,r5,r7
   46d10:	5900212e 	bgeu	r11,r4,46d98 <memcpy+0x140>
   46d14:	1813883a 	mov	r9,r3
   46d18:	2811883a 	mov	r8,r5
   46d1c:	200f883a 	mov	r7,r4
   46d20:	42800017 	ldw	r10,0(r8)
   46d24:	4a400104 	addi	r9,r9,4
   46d28:	39ffff04 	addi	r7,r7,-4
   46d2c:	4abfff15 	stw	r10,-4(r9)
   46d30:	42000104 	addi	r8,r8,4
   46d34:	59fffa36 	bltu	r11,r7,46d20 <__alt_data_end+0xfffdfc20>
   46d38:	213fff04 	addi	r4,r4,-4
   46d3c:	2008d0ba 	srli	r4,r4,2
   46d40:	318000cc 	andi	r6,r6,3
   46d44:	21000044 	addi	r4,r4,1
   46d48:	2109883a 	add	r4,r4,r4
   46d4c:	2109883a 	add	r4,r4,r4
   46d50:	1907883a 	add	r3,r3,r4
   46d54:	290b883a 	add	r5,r5,r4
   46d58:	30000626 	beq	r6,zero,46d74 <memcpy+0x11c>
   46d5c:	198d883a 	add	r6,r3,r6
   46d60:	29c00003 	ldbu	r7,0(r5)
   46d64:	18c00044 	addi	r3,r3,1
   46d68:	29400044 	addi	r5,r5,1
   46d6c:	19ffffc5 	stb	r7,-1(r3)
   46d70:	19bffb1e 	bne	r3,r6,46d60 <__alt_data_end+0xfffdfc60>
   46d74:	dfc00217 	ldw	ra,8(sp)
   46d78:	dc400117 	ldw	r17,4(sp)
   46d7c:	dc000017 	ldw	r16,0(sp)
   46d80:	dec00304 	addi	sp,sp,12
   46d84:	f800283a 	ret
   46d88:	2007883a 	mov	r3,r4
   46d8c:	003ff206 	br	46d58 <__alt_data_end+0xfffdfc58>
   46d90:	2007883a 	mov	r3,r4
   46d94:	003ff106 	br	46d5c <__alt_data_end+0xfffdfc5c>
   46d98:	200d883a 	mov	r6,r4
   46d9c:	003fee06 	br	46d58 <__alt_data_end+0xfffdfc58>

00046da0 <memmove>:
   46da0:	2005883a 	mov	r2,r4
   46da4:	29000b2e 	bgeu	r5,r4,46dd4 <memmove+0x34>
   46da8:	298f883a 	add	r7,r5,r6
   46dac:	21c0092e 	bgeu	r4,r7,46dd4 <memmove+0x34>
   46db0:	2187883a 	add	r3,r4,r6
   46db4:	198bc83a 	sub	r5,r3,r6
   46db8:	30004826 	beq	r6,zero,46edc <memmove+0x13c>
   46dbc:	39ffffc4 	addi	r7,r7,-1
   46dc0:	39000003 	ldbu	r4,0(r7)
   46dc4:	18ffffc4 	addi	r3,r3,-1
   46dc8:	19000005 	stb	r4,0(r3)
   46dcc:	28fffb1e 	bne	r5,r3,46dbc <__alt_data_end+0xfffdfcbc>
   46dd0:	f800283a 	ret
   46dd4:	00c003c4 	movi	r3,15
   46dd8:	1980412e 	bgeu	r3,r6,46ee0 <memmove+0x140>
   46ddc:	2886b03a 	or	r3,r5,r2
   46de0:	18c000cc 	andi	r3,r3,3
   46de4:	1800401e 	bne	r3,zero,46ee8 <memmove+0x148>
   46de8:	33fffc04 	addi	r15,r6,-16
   46dec:	781ed13a 	srli	r15,r15,4
   46df0:	28c00104 	addi	r3,r5,4
   46df4:	13400104 	addi	r13,r2,4
   46df8:	781c913a 	slli	r14,r15,4
   46dfc:	2b000204 	addi	r12,r5,8
   46e00:	12c00204 	addi	r11,r2,8
   46e04:	73800504 	addi	r14,r14,20
   46e08:	2a800304 	addi	r10,r5,12
   46e0c:	12400304 	addi	r9,r2,12
   46e10:	2b9d883a 	add	r14,r5,r14
   46e14:	2811883a 	mov	r8,r5
   46e18:	100f883a 	mov	r7,r2
   46e1c:	41000017 	ldw	r4,0(r8)
   46e20:	39c00404 	addi	r7,r7,16
   46e24:	18c00404 	addi	r3,r3,16
   46e28:	393ffc15 	stw	r4,-16(r7)
   46e2c:	193ffc17 	ldw	r4,-16(r3)
   46e30:	6b400404 	addi	r13,r13,16
   46e34:	5ac00404 	addi	r11,r11,16
   46e38:	693ffc15 	stw	r4,-16(r13)
   46e3c:	61000017 	ldw	r4,0(r12)
   46e40:	4a400404 	addi	r9,r9,16
   46e44:	42000404 	addi	r8,r8,16
   46e48:	593ffc15 	stw	r4,-16(r11)
   46e4c:	51000017 	ldw	r4,0(r10)
   46e50:	63000404 	addi	r12,r12,16
   46e54:	52800404 	addi	r10,r10,16
   46e58:	493ffc15 	stw	r4,-16(r9)
   46e5c:	1bbfef1e 	bne	r3,r14,46e1c <__alt_data_end+0xfffdfd1c>
   46e60:	79000044 	addi	r4,r15,1
   46e64:	2008913a 	slli	r4,r4,4
   46e68:	328003cc 	andi	r10,r6,15
   46e6c:	02c000c4 	movi	r11,3
   46e70:	1107883a 	add	r3,r2,r4
   46e74:	290b883a 	add	r5,r5,r4
   46e78:	5a801e2e 	bgeu	r11,r10,46ef4 <memmove+0x154>
   46e7c:	1813883a 	mov	r9,r3
   46e80:	2811883a 	mov	r8,r5
   46e84:	500f883a 	mov	r7,r10
   46e88:	41000017 	ldw	r4,0(r8)
   46e8c:	4a400104 	addi	r9,r9,4
   46e90:	39ffff04 	addi	r7,r7,-4
   46e94:	493fff15 	stw	r4,-4(r9)
   46e98:	42000104 	addi	r8,r8,4
   46e9c:	59fffa36 	bltu	r11,r7,46e88 <__alt_data_end+0xfffdfd88>
   46ea0:	513fff04 	addi	r4,r10,-4
   46ea4:	2008d0ba 	srli	r4,r4,2
   46ea8:	318000cc 	andi	r6,r6,3
   46eac:	21000044 	addi	r4,r4,1
   46eb0:	2109883a 	add	r4,r4,r4
   46eb4:	2109883a 	add	r4,r4,r4
   46eb8:	1907883a 	add	r3,r3,r4
   46ebc:	290b883a 	add	r5,r5,r4
   46ec0:	30000b26 	beq	r6,zero,46ef0 <memmove+0x150>
   46ec4:	198d883a 	add	r6,r3,r6
   46ec8:	29c00003 	ldbu	r7,0(r5)
   46ecc:	18c00044 	addi	r3,r3,1
   46ed0:	29400044 	addi	r5,r5,1
   46ed4:	19ffffc5 	stb	r7,-1(r3)
   46ed8:	19bffb1e 	bne	r3,r6,46ec8 <__alt_data_end+0xfffdfdc8>
   46edc:	f800283a 	ret
   46ee0:	1007883a 	mov	r3,r2
   46ee4:	003ff606 	br	46ec0 <__alt_data_end+0xfffdfdc0>
   46ee8:	1007883a 	mov	r3,r2
   46eec:	003ff506 	br	46ec4 <__alt_data_end+0xfffdfdc4>
   46ef0:	f800283a 	ret
   46ef4:	500d883a 	mov	r6,r10
   46ef8:	003ff106 	br	46ec0 <__alt_data_end+0xfffdfdc0>

00046efc <memset>:
   46efc:	20c000cc 	andi	r3,r4,3
   46f00:	2005883a 	mov	r2,r4
   46f04:	18004426 	beq	r3,zero,47018 <memset+0x11c>
   46f08:	31ffffc4 	addi	r7,r6,-1
   46f0c:	30004026 	beq	r6,zero,47010 <memset+0x114>
   46f10:	2813883a 	mov	r9,r5
   46f14:	200d883a 	mov	r6,r4
   46f18:	2007883a 	mov	r3,r4
   46f1c:	00000406 	br	46f30 <memset+0x34>
   46f20:	3a3fffc4 	addi	r8,r7,-1
   46f24:	31800044 	addi	r6,r6,1
   46f28:	38003926 	beq	r7,zero,47010 <memset+0x114>
   46f2c:	400f883a 	mov	r7,r8
   46f30:	18c00044 	addi	r3,r3,1
   46f34:	32400005 	stb	r9,0(r6)
   46f38:	1a0000cc 	andi	r8,r3,3
   46f3c:	403ff81e 	bne	r8,zero,46f20 <__alt_data_end+0xfffdfe20>
   46f40:	010000c4 	movi	r4,3
   46f44:	21c02d2e 	bgeu	r4,r7,46ffc <memset+0x100>
   46f48:	29003fcc 	andi	r4,r5,255
   46f4c:	200c923a 	slli	r6,r4,8
   46f50:	3108b03a 	or	r4,r6,r4
   46f54:	200c943a 	slli	r6,r4,16
   46f58:	218cb03a 	or	r6,r4,r6
   46f5c:	010003c4 	movi	r4,15
   46f60:	21c0182e 	bgeu	r4,r7,46fc4 <memset+0xc8>
   46f64:	3b3ffc04 	addi	r12,r7,-16
   46f68:	6018d13a 	srli	r12,r12,4
   46f6c:	1a000104 	addi	r8,r3,4
   46f70:	1ac00204 	addi	r11,r3,8
   46f74:	6008913a 	slli	r4,r12,4
   46f78:	1a800304 	addi	r10,r3,12
   46f7c:	1813883a 	mov	r9,r3
   46f80:	21000504 	addi	r4,r4,20
   46f84:	1909883a 	add	r4,r3,r4
   46f88:	49800015 	stw	r6,0(r9)
   46f8c:	41800015 	stw	r6,0(r8)
   46f90:	59800015 	stw	r6,0(r11)
   46f94:	51800015 	stw	r6,0(r10)
   46f98:	42000404 	addi	r8,r8,16
   46f9c:	4a400404 	addi	r9,r9,16
   46fa0:	5ac00404 	addi	r11,r11,16
   46fa4:	52800404 	addi	r10,r10,16
   46fa8:	413ff71e 	bne	r8,r4,46f88 <__alt_data_end+0xfffdfe88>
   46fac:	63000044 	addi	r12,r12,1
   46fb0:	6018913a 	slli	r12,r12,4
   46fb4:	39c003cc 	andi	r7,r7,15
   46fb8:	010000c4 	movi	r4,3
   46fbc:	1b07883a 	add	r3,r3,r12
   46fc0:	21c00e2e 	bgeu	r4,r7,46ffc <memset+0x100>
   46fc4:	1813883a 	mov	r9,r3
   46fc8:	3811883a 	mov	r8,r7
   46fcc:	010000c4 	movi	r4,3
   46fd0:	49800015 	stw	r6,0(r9)
   46fd4:	423fff04 	addi	r8,r8,-4
   46fd8:	4a400104 	addi	r9,r9,4
   46fdc:	223ffc36 	bltu	r4,r8,46fd0 <__alt_data_end+0xfffdfed0>
   46fe0:	393fff04 	addi	r4,r7,-4
   46fe4:	2008d0ba 	srli	r4,r4,2
   46fe8:	39c000cc 	andi	r7,r7,3
   46fec:	21000044 	addi	r4,r4,1
   46ff0:	2109883a 	add	r4,r4,r4
   46ff4:	2109883a 	add	r4,r4,r4
   46ff8:	1907883a 	add	r3,r3,r4
   46ffc:	38000526 	beq	r7,zero,47014 <memset+0x118>
   47000:	19cf883a 	add	r7,r3,r7
   47004:	19400005 	stb	r5,0(r3)
   47008:	18c00044 	addi	r3,r3,1
   4700c:	38fffd1e 	bne	r7,r3,47004 <__alt_data_end+0xfffdff04>
   47010:	f800283a 	ret
   47014:	f800283a 	ret
   47018:	2007883a 	mov	r3,r4
   4701c:	300f883a 	mov	r7,r6
   47020:	003fc706 	br	46f40 <__alt_data_end+0xfffdfe40>

00047024 <_realloc_r>:
   47024:	defff604 	addi	sp,sp,-40
   47028:	dc800215 	stw	r18,8(sp)
   4702c:	dfc00915 	stw	ra,36(sp)
   47030:	df000815 	stw	fp,32(sp)
   47034:	ddc00715 	stw	r23,28(sp)
   47038:	dd800615 	stw	r22,24(sp)
   4703c:	dd400515 	stw	r21,20(sp)
   47040:	dd000415 	stw	r20,16(sp)
   47044:	dcc00315 	stw	r19,12(sp)
   47048:	dc400115 	stw	r17,4(sp)
   4704c:	dc000015 	stw	r16,0(sp)
   47050:	3025883a 	mov	r18,r6
   47054:	2800b726 	beq	r5,zero,47334 <_realloc_r+0x310>
   47058:	282b883a 	mov	r21,r5
   4705c:	2029883a 	mov	r20,r4
   47060:	00489a80 	call	489a8 <__malloc_lock>
   47064:	a8bfff17 	ldw	r2,-4(r21)
   47068:	043fff04 	movi	r16,-4
   4706c:	90c002c4 	addi	r3,r18,11
   47070:	01000584 	movi	r4,22
   47074:	acfffe04 	addi	r19,r21,-8
   47078:	1420703a 	and	r16,r2,r16
   4707c:	20c0332e 	bgeu	r4,r3,4714c <_realloc_r+0x128>
   47080:	047ffe04 	movi	r17,-8
   47084:	1c62703a 	and	r17,r3,r17
   47088:	8807883a 	mov	r3,r17
   4708c:	88005816 	blt	r17,zero,471f0 <_realloc_r+0x1cc>
   47090:	8c805736 	bltu	r17,r18,471f0 <_realloc_r+0x1cc>
   47094:	80c0300e 	bge	r16,r3,47158 <_realloc_r+0x134>
   47098:	07000174 	movhi	fp,5
   4709c:	e72d0604 	addi	fp,fp,-19432
   470a0:	e1c00217 	ldw	r7,8(fp)
   470a4:	9c09883a 	add	r4,r19,r16
   470a8:	22000117 	ldw	r8,4(r4)
   470ac:	21c06326 	beq	r4,r7,4723c <_realloc_r+0x218>
   470b0:	017fff84 	movi	r5,-2
   470b4:	414a703a 	and	r5,r8,r5
   470b8:	214b883a 	add	r5,r4,r5
   470bc:	29800117 	ldw	r6,4(r5)
   470c0:	3180004c 	andi	r6,r6,1
   470c4:	30003f26 	beq	r6,zero,471c4 <_realloc_r+0x1a0>
   470c8:	1080004c 	andi	r2,r2,1
   470cc:	10008326 	beq	r2,zero,472dc <_realloc_r+0x2b8>
   470d0:	900b883a 	mov	r5,r18
   470d4:	a009883a 	mov	r4,r20
   470d8:	00463680 	call	46368 <_malloc_r>
   470dc:	1025883a 	mov	r18,r2
   470e0:	10011e26 	beq	r2,zero,4755c <_realloc_r+0x538>
   470e4:	a93fff17 	ldw	r4,-4(r21)
   470e8:	10fffe04 	addi	r3,r2,-8
   470ec:	00bfff84 	movi	r2,-2
   470f0:	2084703a 	and	r2,r4,r2
   470f4:	9885883a 	add	r2,r19,r2
   470f8:	1880ee26 	beq	r3,r2,474b4 <_realloc_r+0x490>
   470fc:	81bfff04 	addi	r6,r16,-4
   47100:	00800904 	movi	r2,36
   47104:	1180b836 	bltu	r2,r6,473e8 <_realloc_r+0x3c4>
   47108:	00c004c4 	movi	r3,19
   4710c:	19809636 	bltu	r3,r6,47368 <_realloc_r+0x344>
   47110:	9005883a 	mov	r2,r18
   47114:	a807883a 	mov	r3,r21
   47118:	19000017 	ldw	r4,0(r3)
   4711c:	11000015 	stw	r4,0(r2)
   47120:	19000117 	ldw	r4,4(r3)
   47124:	11000115 	stw	r4,4(r2)
   47128:	18c00217 	ldw	r3,8(r3)
   4712c:	10c00215 	stw	r3,8(r2)
   47130:	a80b883a 	mov	r5,r21
   47134:	a009883a 	mov	r4,r20
   47138:	0047df00 	call	47df0 <_free_r>
   4713c:	a009883a 	mov	r4,r20
   47140:	00489cc0 	call	489cc <__malloc_unlock>
   47144:	9005883a 	mov	r2,r18
   47148:	00001206 	br	47194 <_realloc_r+0x170>
   4714c:	00c00404 	movi	r3,16
   47150:	1823883a 	mov	r17,r3
   47154:	003fce06 	br	47090 <__alt_data_end+0xfffdff90>
   47158:	a825883a 	mov	r18,r21
   4715c:	8445c83a 	sub	r2,r16,r17
   47160:	00c003c4 	movi	r3,15
   47164:	18802636 	bltu	r3,r2,47200 <_realloc_r+0x1dc>
   47168:	99800117 	ldw	r6,4(r19)
   4716c:	9c07883a 	add	r3,r19,r16
   47170:	3180004c 	andi	r6,r6,1
   47174:	3420b03a 	or	r16,r6,r16
   47178:	9c000115 	stw	r16,4(r19)
   4717c:	18800117 	ldw	r2,4(r3)
   47180:	10800054 	ori	r2,r2,1
   47184:	18800115 	stw	r2,4(r3)
   47188:	a009883a 	mov	r4,r20
   4718c:	00489cc0 	call	489cc <__malloc_unlock>
   47190:	9005883a 	mov	r2,r18
   47194:	dfc00917 	ldw	ra,36(sp)
   47198:	df000817 	ldw	fp,32(sp)
   4719c:	ddc00717 	ldw	r23,28(sp)
   471a0:	dd800617 	ldw	r22,24(sp)
   471a4:	dd400517 	ldw	r21,20(sp)
   471a8:	dd000417 	ldw	r20,16(sp)
   471ac:	dcc00317 	ldw	r19,12(sp)
   471b0:	dc800217 	ldw	r18,8(sp)
   471b4:	dc400117 	ldw	r17,4(sp)
   471b8:	dc000017 	ldw	r16,0(sp)
   471bc:	dec00a04 	addi	sp,sp,40
   471c0:	f800283a 	ret
   471c4:	017fff04 	movi	r5,-4
   471c8:	414a703a 	and	r5,r8,r5
   471cc:	814d883a 	add	r6,r16,r5
   471d0:	30c01f16 	blt	r6,r3,47250 <_realloc_r+0x22c>
   471d4:	20800317 	ldw	r2,12(r4)
   471d8:	20c00217 	ldw	r3,8(r4)
   471dc:	a825883a 	mov	r18,r21
   471e0:	3021883a 	mov	r16,r6
   471e4:	18800315 	stw	r2,12(r3)
   471e8:	10c00215 	stw	r3,8(r2)
   471ec:	003fdb06 	br	4715c <__alt_data_end+0xfffe005c>
   471f0:	00800304 	movi	r2,12
   471f4:	a0800015 	stw	r2,0(r20)
   471f8:	0005883a 	mov	r2,zero
   471fc:	003fe506 	br	47194 <__alt_data_end+0xfffe0094>
   47200:	98c00117 	ldw	r3,4(r19)
   47204:	9c4b883a 	add	r5,r19,r17
   47208:	11000054 	ori	r4,r2,1
   4720c:	18c0004c 	andi	r3,r3,1
   47210:	1c62b03a 	or	r17,r3,r17
   47214:	9c400115 	stw	r17,4(r19)
   47218:	29000115 	stw	r4,4(r5)
   4721c:	2885883a 	add	r2,r5,r2
   47220:	10c00117 	ldw	r3,4(r2)
   47224:	29400204 	addi	r5,r5,8
   47228:	a009883a 	mov	r4,r20
   4722c:	18c00054 	ori	r3,r3,1
   47230:	10c00115 	stw	r3,4(r2)
   47234:	0047df00 	call	47df0 <_free_r>
   47238:	003fd306 	br	47188 <__alt_data_end+0xfffe0088>
   4723c:	017fff04 	movi	r5,-4
   47240:	414a703a 	and	r5,r8,r5
   47244:	89800404 	addi	r6,r17,16
   47248:	8151883a 	add	r8,r16,r5
   4724c:	4180590e 	bge	r8,r6,473b4 <_realloc_r+0x390>
   47250:	1080004c 	andi	r2,r2,1
   47254:	103f9e1e 	bne	r2,zero,470d0 <__alt_data_end+0xfffdffd0>
   47258:	adbffe17 	ldw	r22,-8(r21)
   4725c:	00bfff04 	movi	r2,-4
   47260:	9dadc83a 	sub	r22,r19,r22
   47264:	b1800117 	ldw	r6,4(r22)
   47268:	3084703a 	and	r2,r6,r2
   4726c:	20002026 	beq	r4,zero,472f0 <_realloc_r+0x2cc>
   47270:	80af883a 	add	r23,r16,r2
   47274:	b96f883a 	add	r23,r23,r5
   47278:	21c05f26 	beq	r4,r7,473f8 <_realloc_r+0x3d4>
   4727c:	b8c01c16 	blt	r23,r3,472f0 <_realloc_r+0x2cc>
   47280:	20800317 	ldw	r2,12(r4)
   47284:	20c00217 	ldw	r3,8(r4)
   47288:	81bfff04 	addi	r6,r16,-4
   4728c:	01000904 	movi	r4,36
   47290:	18800315 	stw	r2,12(r3)
   47294:	10c00215 	stw	r3,8(r2)
   47298:	b0c00217 	ldw	r3,8(r22)
   4729c:	b0800317 	ldw	r2,12(r22)
   472a0:	b4800204 	addi	r18,r22,8
   472a4:	18800315 	stw	r2,12(r3)
   472a8:	10c00215 	stw	r3,8(r2)
   472ac:	21801b36 	bltu	r4,r6,4731c <_realloc_r+0x2f8>
   472b0:	008004c4 	movi	r2,19
   472b4:	1180352e 	bgeu	r2,r6,4738c <_realloc_r+0x368>
   472b8:	a8800017 	ldw	r2,0(r21)
   472bc:	b0800215 	stw	r2,8(r22)
   472c0:	a8800117 	ldw	r2,4(r21)
   472c4:	b0800315 	stw	r2,12(r22)
   472c8:	008006c4 	movi	r2,27
   472cc:	11807f36 	bltu	r2,r6,474cc <_realloc_r+0x4a8>
   472d0:	b0800404 	addi	r2,r22,16
   472d4:	ad400204 	addi	r21,r21,8
   472d8:	00002d06 	br	47390 <_realloc_r+0x36c>
   472dc:	adbffe17 	ldw	r22,-8(r21)
   472e0:	00bfff04 	movi	r2,-4
   472e4:	9dadc83a 	sub	r22,r19,r22
   472e8:	b1000117 	ldw	r4,4(r22)
   472ec:	2084703a 	and	r2,r4,r2
   472f0:	b03f7726 	beq	r22,zero,470d0 <__alt_data_end+0xfffdffd0>
   472f4:	80af883a 	add	r23,r16,r2
   472f8:	b8ff7516 	blt	r23,r3,470d0 <__alt_data_end+0xfffdffd0>
   472fc:	b0800317 	ldw	r2,12(r22)
   47300:	b0c00217 	ldw	r3,8(r22)
   47304:	81bfff04 	addi	r6,r16,-4
   47308:	01000904 	movi	r4,36
   4730c:	18800315 	stw	r2,12(r3)
   47310:	10c00215 	stw	r3,8(r2)
   47314:	b4800204 	addi	r18,r22,8
   47318:	21bfe52e 	bgeu	r4,r6,472b0 <__alt_data_end+0xfffe01b0>
   4731c:	a80b883a 	mov	r5,r21
   47320:	9009883a 	mov	r4,r18
   47324:	0046da00 	call	46da0 <memmove>
   47328:	b821883a 	mov	r16,r23
   4732c:	b027883a 	mov	r19,r22
   47330:	003f8a06 	br	4715c <__alt_data_end+0xfffe005c>
   47334:	300b883a 	mov	r5,r6
   47338:	dfc00917 	ldw	ra,36(sp)
   4733c:	df000817 	ldw	fp,32(sp)
   47340:	ddc00717 	ldw	r23,28(sp)
   47344:	dd800617 	ldw	r22,24(sp)
   47348:	dd400517 	ldw	r21,20(sp)
   4734c:	dd000417 	ldw	r20,16(sp)
   47350:	dcc00317 	ldw	r19,12(sp)
   47354:	dc800217 	ldw	r18,8(sp)
   47358:	dc400117 	ldw	r17,4(sp)
   4735c:	dc000017 	ldw	r16,0(sp)
   47360:	dec00a04 	addi	sp,sp,40
   47364:	00463681 	jmpi	46368 <_malloc_r>
   47368:	a8c00017 	ldw	r3,0(r21)
   4736c:	90c00015 	stw	r3,0(r18)
   47370:	a8c00117 	ldw	r3,4(r21)
   47374:	90c00115 	stw	r3,4(r18)
   47378:	00c006c4 	movi	r3,27
   4737c:	19804536 	bltu	r3,r6,47494 <_realloc_r+0x470>
   47380:	90800204 	addi	r2,r18,8
   47384:	a8c00204 	addi	r3,r21,8
   47388:	003f6306 	br	47118 <__alt_data_end+0xfffe0018>
   4738c:	9005883a 	mov	r2,r18
   47390:	a8c00017 	ldw	r3,0(r21)
   47394:	b821883a 	mov	r16,r23
   47398:	b027883a 	mov	r19,r22
   4739c:	10c00015 	stw	r3,0(r2)
   473a0:	a8c00117 	ldw	r3,4(r21)
   473a4:	10c00115 	stw	r3,4(r2)
   473a8:	a8c00217 	ldw	r3,8(r21)
   473ac:	10c00215 	stw	r3,8(r2)
   473b0:	003f6a06 	br	4715c <__alt_data_end+0xfffe005c>
   473b4:	9c67883a 	add	r19,r19,r17
   473b8:	4445c83a 	sub	r2,r8,r17
   473bc:	e4c00215 	stw	r19,8(fp)
   473c0:	10800054 	ori	r2,r2,1
   473c4:	98800115 	stw	r2,4(r19)
   473c8:	a8bfff17 	ldw	r2,-4(r21)
   473cc:	a009883a 	mov	r4,r20
   473d0:	1080004c 	andi	r2,r2,1
   473d4:	1462b03a 	or	r17,r2,r17
   473d8:	ac7fff15 	stw	r17,-4(r21)
   473dc:	00489cc0 	call	489cc <__malloc_unlock>
   473e0:	a805883a 	mov	r2,r21
   473e4:	003f6b06 	br	47194 <__alt_data_end+0xfffe0094>
   473e8:	a80b883a 	mov	r5,r21
   473ec:	9009883a 	mov	r4,r18
   473f0:	0046da00 	call	46da0 <memmove>
   473f4:	003f4e06 	br	47130 <__alt_data_end+0xfffe0030>
   473f8:	89000404 	addi	r4,r17,16
   473fc:	b93fbc16 	blt	r23,r4,472f0 <__alt_data_end+0xfffe01f0>
   47400:	b0800317 	ldw	r2,12(r22)
   47404:	b0c00217 	ldw	r3,8(r22)
   47408:	81bfff04 	addi	r6,r16,-4
   4740c:	01000904 	movi	r4,36
   47410:	18800315 	stw	r2,12(r3)
   47414:	10c00215 	stw	r3,8(r2)
   47418:	b4800204 	addi	r18,r22,8
   4741c:	21804336 	bltu	r4,r6,4752c <_realloc_r+0x508>
   47420:	008004c4 	movi	r2,19
   47424:	11803f2e 	bgeu	r2,r6,47524 <_realloc_r+0x500>
   47428:	a8800017 	ldw	r2,0(r21)
   4742c:	b0800215 	stw	r2,8(r22)
   47430:	a8800117 	ldw	r2,4(r21)
   47434:	b0800315 	stw	r2,12(r22)
   47438:	008006c4 	movi	r2,27
   4743c:	11803f36 	bltu	r2,r6,4753c <_realloc_r+0x518>
   47440:	b0800404 	addi	r2,r22,16
   47444:	ad400204 	addi	r21,r21,8
   47448:	a8c00017 	ldw	r3,0(r21)
   4744c:	10c00015 	stw	r3,0(r2)
   47450:	a8c00117 	ldw	r3,4(r21)
   47454:	10c00115 	stw	r3,4(r2)
   47458:	a8c00217 	ldw	r3,8(r21)
   4745c:	10c00215 	stw	r3,8(r2)
   47460:	b447883a 	add	r3,r22,r17
   47464:	bc45c83a 	sub	r2,r23,r17
   47468:	e0c00215 	stw	r3,8(fp)
   4746c:	10800054 	ori	r2,r2,1
   47470:	18800115 	stw	r2,4(r3)
   47474:	b0800117 	ldw	r2,4(r22)
   47478:	a009883a 	mov	r4,r20
   4747c:	1080004c 	andi	r2,r2,1
   47480:	1462b03a 	or	r17,r2,r17
   47484:	b4400115 	stw	r17,4(r22)
   47488:	00489cc0 	call	489cc <__malloc_unlock>
   4748c:	9005883a 	mov	r2,r18
   47490:	003f4006 	br	47194 <__alt_data_end+0xfffe0094>
   47494:	a8c00217 	ldw	r3,8(r21)
   47498:	90c00215 	stw	r3,8(r18)
   4749c:	a8c00317 	ldw	r3,12(r21)
   474a0:	90c00315 	stw	r3,12(r18)
   474a4:	30801126 	beq	r6,r2,474ec <_realloc_r+0x4c8>
   474a8:	90800404 	addi	r2,r18,16
   474ac:	a8c00404 	addi	r3,r21,16
   474b0:	003f1906 	br	47118 <__alt_data_end+0xfffe0018>
   474b4:	90ffff17 	ldw	r3,-4(r18)
   474b8:	00bfff04 	movi	r2,-4
   474bc:	a825883a 	mov	r18,r21
   474c0:	1884703a 	and	r2,r3,r2
   474c4:	80a1883a 	add	r16,r16,r2
   474c8:	003f2406 	br	4715c <__alt_data_end+0xfffe005c>
   474cc:	a8800217 	ldw	r2,8(r21)
   474d0:	b0800415 	stw	r2,16(r22)
   474d4:	a8800317 	ldw	r2,12(r21)
   474d8:	b0800515 	stw	r2,20(r22)
   474dc:	31000a26 	beq	r6,r4,47508 <_realloc_r+0x4e4>
   474e0:	b0800604 	addi	r2,r22,24
   474e4:	ad400404 	addi	r21,r21,16
   474e8:	003fa906 	br	47390 <__alt_data_end+0xfffe0290>
   474ec:	a9000417 	ldw	r4,16(r21)
   474f0:	90800604 	addi	r2,r18,24
   474f4:	a8c00604 	addi	r3,r21,24
   474f8:	91000415 	stw	r4,16(r18)
   474fc:	a9000517 	ldw	r4,20(r21)
   47500:	91000515 	stw	r4,20(r18)
   47504:	003f0406 	br	47118 <__alt_data_end+0xfffe0018>
   47508:	a8c00417 	ldw	r3,16(r21)
   4750c:	ad400604 	addi	r21,r21,24
   47510:	b0800804 	addi	r2,r22,32
   47514:	b0c00615 	stw	r3,24(r22)
   47518:	a8ffff17 	ldw	r3,-4(r21)
   4751c:	b0c00715 	stw	r3,28(r22)
   47520:	003f9b06 	br	47390 <__alt_data_end+0xfffe0290>
   47524:	9005883a 	mov	r2,r18
   47528:	003fc706 	br	47448 <__alt_data_end+0xfffe0348>
   4752c:	a80b883a 	mov	r5,r21
   47530:	9009883a 	mov	r4,r18
   47534:	0046da00 	call	46da0 <memmove>
   47538:	003fc906 	br	47460 <__alt_data_end+0xfffe0360>
   4753c:	a8800217 	ldw	r2,8(r21)
   47540:	b0800415 	stw	r2,16(r22)
   47544:	a8800317 	ldw	r2,12(r21)
   47548:	b0800515 	stw	r2,20(r22)
   4754c:	31000726 	beq	r6,r4,4756c <_realloc_r+0x548>
   47550:	b0800604 	addi	r2,r22,24
   47554:	ad400404 	addi	r21,r21,16
   47558:	003fbb06 	br	47448 <__alt_data_end+0xfffe0348>
   4755c:	a009883a 	mov	r4,r20
   47560:	00489cc0 	call	489cc <__malloc_unlock>
   47564:	0005883a 	mov	r2,zero
   47568:	003f0a06 	br	47194 <__alt_data_end+0xfffe0094>
   4756c:	a8c00417 	ldw	r3,16(r21)
   47570:	ad400604 	addi	r21,r21,24
   47574:	b0800804 	addi	r2,r22,32
   47578:	b0c00615 	stw	r3,24(r22)
   4757c:	a8ffff17 	ldw	r3,-4(r21)
   47580:	b0c00715 	stw	r3,28(r22)
   47584:	003fb006 	br	47448 <__alt_data_end+0xfffe0348>

00047588 <_sbrk_r>:
   47588:	defffd04 	addi	sp,sp,-12
   4758c:	dc000015 	stw	r16,0(sp)
   47590:	04000174 	movhi	r16,5
   47594:	dc400115 	stw	r17,4(sp)
   47598:	84393604 	addi	r16,r16,-6952
   4759c:	2023883a 	mov	r17,r4
   475a0:	2809883a 	mov	r4,r5
   475a4:	dfc00215 	stw	ra,8(sp)
   475a8:	80000015 	stw	zero,0(r16)
   475ac:	0048b8c0 	call	48b8c <sbrk>
   475b0:	00ffffc4 	movi	r3,-1
   475b4:	10c00526 	beq	r2,r3,475cc <_sbrk_r+0x44>
   475b8:	dfc00217 	ldw	ra,8(sp)
   475bc:	dc400117 	ldw	r17,4(sp)
   475c0:	dc000017 	ldw	r16,0(sp)
   475c4:	dec00304 	addi	sp,sp,12
   475c8:	f800283a 	ret
   475cc:	80c00017 	ldw	r3,0(r16)
   475d0:	183ff926 	beq	r3,zero,475b8 <__alt_data_end+0xfffe04b8>
   475d4:	88c00015 	stw	r3,0(r17)
   475d8:	003ff706 	br	475b8 <__alt_data_end+0xfffe04b8>

000475dc <__sread>:
   475dc:	defffe04 	addi	sp,sp,-8
   475e0:	dc000015 	stw	r16,0(sp)
   475e4:	2821883a 	mov	r16,r5
   475e8:	2940038f 	ldh	r5,14(r5)
   475ec:	dfc00115 	stw	ra,4(sp)
   475f0:	004831c0 	call	4831c <_read_r>
   475f4:	10000716 	blt	r2,zero,47614 <__sread+0x38>
   475f8:	80c01417 	ldw	r3,80(r16)
   475fc:	1887883a 	add	r3,r3,r2
   47600:	80c01415 	stw	r3,80(r16)
   47604:	dfc00117 	ldw	ra,4(sp)
   47608:	dc000017 	ldw	r16,0(sp)
   4760c:	dec00204 	addi	sp,sp,8
   47610:	f800283a 	ret
   47614:	80c0030b 	ldhu	r3,12(r16)
   47618:	18fbffcc 	andi	r3,r3,61439
   4761c:	80c0030d 	sth	r3,12(r16)
   47620:	dfc00117 	ldw	ra,4(sp)
   47624:	dc000017 	ldw	r16,0(sp)
   47628:	dec00204 	addi	sp,sp,8
   4762c:	f800283a 	ret

00047630 <__seofread>:
   47630:	0005883a 	mov	r2,zero
   47634:	f800283a 	ret

00047638 <__swrite>:
   47638:	2880030b 	ldhu	r2,12(r5)
   4763c:	defffb04 	addi	sp,sp,-20
   47640:	dcc00315 	stw	r19,12(sp)
   47644:	dc800215 	stw	r18,8(sp)
   47648:	dc400115 	stw	r17,4(sp)
   4764c:	dc000015 	stw	r16,0(sp)
   47650:	dfc00415 	stw	ra,16(sp)
   47654:	10c0400c 	andi	r3,r2,256
   47658:	2821883a 	mov	r16,r5
   4765c:	2023883a 	mov	r17,r4
   47660:	3025883a 	mov	r18,r6
   47664:	3827883a 	mov	r19,r7
   47668:	18000526 	beq	r3,zero,47680 <__swrite+0x48>
   4766c:	2940038f 	ldh	r5,14(r5)
   47670:	01c00084 	movi	r7,2
   47674:	000d883a 	mov	r6,zero
   47678:	00481000 	call	48100 <_lseek_r>
   4767c:	8080030b 	ldhu	r2,12(r16)
   47680:	8140038f 	ldh	r5,14(r16)
   47684:	10bbffcc 	andi	r2,r2,61439
   47688:	980f883a 	mov	r7,r19
   4768c:	900d883a 	mov	r6,r18
   47690:	8809883a 	mov	r4,r17
   47694:	8080030d 	sth	r2,12(r16)
   47698:	dfc00417 	ldw	ra,16(sp)
   4769c:	dcc00317 	ldw	r19,12(sp)
   476a0:	dc800217 	ldw	r18,8(sp)
   476a4:	dc400117 	ldw	r17,4(sp)
   476a8:	dc000017 	ldw	r16,0(sp)
   476ac:	dec00504 	addi	sp,sp,20
   476b0:	00477181 	jmpi	47718 <_write_r>

000476b4 <__sseek>:
   476b4:	defffe04 	addi	sp,sp,-8
   476b8:	dc000015 	stw	r16,0(sp)
   476bc:	2821883a 	mov	r16,r5
   476c0:	2940038f 	ldh	r5,14(r5)
   476c4:	dfc00115 	stw	ra,4(sp)
   476c8:	00481000 	call	48100 <_lseek_r>
   476cc:	00ffffc4 	movi	r3,-1
   476d0:	10c00826 	beq	r2,r3,476f4 <__sseek+0x40>
   476d4:	80c0030b 	ldhu	r3,12(r16)
   476d8:	80801415 	stw	r2,80(r16)
   476dc:	18c40014 	ori	r3,r3,4096
   476e0:	80c0030d 	sth	r3,12(r16)
   476e4:	dfc00117 	ldw	ra,4(sp)
   476e8:	dc000017 	ldw	r16,0(sp)
   476ec:	dec00204 	addi	sp,sp,8
   476f0:	f800283a 	ret
   476f4:	80c0030b 	ldhu	r3,12(r16)
   476f8:	18fbffcc 	andi	r3,r3,61439
   476fc:	80c0030d 	sth	r3,12(r16)
   47700:	dfc00117 	ldw	ra,4(sp)
   47704:	dc000017 	ldw	r16,0(sp)
   47708:	dec00204 	addi	sp,sp,8
   4770c:	f800283a 	ret

00047710 <__sclose>:
   47710:	2940038f 	ldh	r5,14(r5)
   47714:	00478cc1 	jmpi	478cc <_close_r>

00047718 <_write_r>:
   47718:	defffd04 	addi	sp,sp,-12
   4771c:	2805883a 	mov	r2,r5
   47720:	dc000015 	stw	r16,0(sp)
   47724:	04000174 	movhi	r16,5
   47728:	dc400115 	stw	r17,4(sp)
   4772c:	300b883a 	mov	r5,r6
   47730:	84393604 	addi	r16,r16,-6952
   47734:	2023883a 	mov	r17,r4
   47738:	380d883a 	mov	r6,r7
   4773c:	1009883a 	mov	r4,r2
   47740:	dfc00215 	stw	ra,8(sp)
   47744:	80000015 	stw	zero,0(r16)
   47748:	0048ca80 	call	48ca8 <write>
   4774c:	00ffffc4 	movi	r3,-1
   47750:	10c00526 	beq	r2,r3,47768 <_write_r+0x50>
   47754:	dfc00217 	ldw	ra,8(sp)
   47758:	dc400117 	ldw	r17,4(sp)
   4775c:	dc000017 	ldw	r16,0(sp)
   47760:	dec00304 	addi	sp,sp,12
   47764:	f800283a 	ret
   47768:	80c00017 	ldw	r3,0(r16)
   4776c:	183ff926 	beq	r3,zero,47754 <__alt_data_end+0xfffe0654>
   47770:	88c00015 	stw	r3,0(r17)
   47774:	003ff706 	br	47754 <__alt_data_end+0xfffe0654>

00047778 <__swsetup_r>:
   47778:	00800174 	movhi	r2,5
   4777c:	defffd04 	addi	sp,sp,-12
   47780:	10b28b04 	addi	r2,r2,-13780
   47784:	dc400115 	stw	r17,4(sp)
   47788:	2023883a 	mov	r17,r4
   4778c:	11000017 	ldw	r4,0(r2)
   47790:	dc000015 	stw	r16,0(sp)
   47794:	dfc00215 	stw	ra,8(sp)
   47798:	2821883a 	mov	r16,r5
   4779c:	20000226 	beq	r4,zero,477a8 <__swsetup_r+0x30>
   477a0:	20800e17 	ldw	r2,56(r4)
   477a4:	10003126 	beq	r2,zero,4786c <__swsetup_r+0xf4>
   477a8:	8080030b 	ldhu	r2,12(r16)
   477ac:	10c0020c 	andi	r3,r2,8
   477b0:	1009883a 	mov	r4,r2
   477b4:	18000f26 	beq	r3,zero,477f4 <__swsetup_r+0x7c>
   477b8:	80c00417 	ldw	r3,16(r16)
   477bc:	18001526 	beq	r3,zero,47814 <__swsetup_r+0x9c>
   477c0:	1100004c 	andi	r4,r2,1
   477c4:	20001c1e 	bne	r4,zero,47838 <__swsetup_r+0xc0>
   477c8:	1080008c 	andi	r2,r2,2
   477cc:	1000291e 	bne	r2,zero,47874 <__swsetup_r+0xfc>
   477d0:	80800517 	ldw	r2,20(r16)
   477d4:	80800215 	stw	r2,8(r16)
   477d8:	18001c26 	beq	r3,zero,4784c <__swsetup_r+0xd4>
   477dc:	0005883a 	mov	r2,zero
   477e0:	dfc00217 	ldw	ra,8(sp)
   477e4:	dc400117 	ldw	r17,4(sp)
   477e8:	dc000017 	ldw	r16,0(sp)
   477ec:	dec00304 	addi	sp,sp,12
   477f0:	f800283a 	ret
   477f4:	2080040c 	andi	r2,r4,16
   477f8:	10002e26 	beq	r2,zero,478b4 <__swsetup_r+0x13c>
   477fc:	2080010c 	andi	r2,r4,4
   47800:	10001e1e 	bne	r2,zero,4787c <__swsetup_r+0x104>
   47804:	80c00417 	ldw	r3,16(r16)
   47808:	20800214 	ori	r2,r4,8
   4780c:	8080030d 	sth	r2,12(r16)
   47810:	183feb1e 	bne	r3,zero,477c0 <__alt_data_end+0xfffe06c0>
   47814:	1100a00c 	andi	r4,r2,640
   47818:	01408004 	movi	r5,512
   4781c:	217fe826 	beq	r4,r5,477c0 <__alt_data_end+0xfffe06c0>
   47820:	800b883a 	mov	r5,r16
   47824:	8809883a 	mov	r4,r17
   47828:	00481600 	call	48160 <__smakebuf_r>
   4782c:	8080030b 	ldhu	r2,12(r16)
   47830:	80c00417 	ldw	r3,16(r16)
   47834:	003fe206 	br	477c0 <__alt_data_end+0xfffe06c0>
   47838:	80800517 	ldw	r2,20(r16)
   4783c:	80000215 	stw	zero,8(r16)
   47840:	0085c83a 	sub	r2,zero,r2
   47844:	80800615 	stw	r2,24(r16)
   47848:	183fe41e 	bne	r3,zero,477dc <__alt_data_end+0xfffe06dc>
   4784c:	80c0030b 	ldhu	r3,12(r16)
   47850:	0005883a 	mov	r2,zero
   47854:	1900200c 	andi	r4,r3,128
   47858:	203fe126 	beq	r4,zero,477e0 <__alt_data_end+0xfffe06e0>
   4785c:	18c01014 	ori	r3,r3,64
   47860:	80c0030d 	sth	r3,12(r16)
   47864:	00bfffc4 	movi	r2,-1
   47868:	003fdd06 	br	477e0 <__alt_data_end+0xfffe06e0>
   4786c:	0045cd40 	call	45cd4 <__sinit>
   47870:	003fcd06 	br	477a8 <__alt_data_end+0xfffe06a8>
   47874:	0005883a 	mov	r2,zero
   47878:	003fd606 	br	477d4 <__alt_data_end+0xfffe06d4>
   4787c:	81400c17 	ldw	r5,48(r16)
   47880:	28000626 	beq	r5,zero,4789c <__swsetup_r+0x124>
   47884:	80801004 	addi	r2,r16,64
   47888:	28800326 	beq	r5,r2,47898 <__swsetup_r+0x120>
   4788c:	8809883a 	mov	r4,r17
   47890:	0047df00 	call	47df0 <_free_r>
   47894:	8100030b 	ldhu	r4,12(r16)
   47898:	80000c15 	stw	zero,48(r16)
   4789c:	80c00417 	ldw	r3,16(r16)
   478a0:	00bff6c4 	movi	r2,-37
   478a4:	1108703a 	and	r4,r2,r4
   478a8:	80000115 	stw	zero,4(r16)
   478ac:	80c00015 	stw	r3,0(r16)
   478b0:	003fd506 	br	47808 <__alt_data_end+0xfffe0708>
   478b4:	00800244 	movi	r2,9
   478b8:	88800015 	stw	r2,0(r17)
   478bc:	20801014 	ori	r2,r4,64
   478c0:	8080030d 	sth	r2,12(r16)
   478c4:	00bfffc4 	movi	r2,-1
   478c8:	003fc506 	br	477e0 <__alt_data_end+0xfffe06e0>

000478cc <_close_r>:
   478cc:	defffd04 	addi	sp,sp,-12
   478d0:	dc000015 	stw	r16,0(sp)
   478d4:	04000174 	movhi	r16,5
   478d8:	dc400115 	stw	r17,4(sp)
   478dc:	84393604 	addi	r16,r16,-6952
   478e0:	2023883a 	mov	r17,r4
   478e4:	2809883a 	mov	r4,r5
   478e8:	dfc00215 	stw	ra,8(sp)
   478ec:	80000015 	stw	zero,0(r16)
   478f0:	00484680 	call	48468 <close>
   478f4:	00ffffc4 	movi	r3,-1
   478f8:	10c00526 	beq	r2,r3,47910 <_close_r+0x44>
   478fc:	dfc00217 	ldw	ra,8(sp)
   47900:	dc400117 	ldw	r17,4(sp)
   47904:	dc000017 	ldw	r16,0(sp)
   47908:	dec00304 	addi	sp,sp,12
   4790c:	f800283a 	ret
   47910:	80c00017 	ldw	r3,0(r16)
   47914:	183ff926 	beq	r3,zero,478fc <__alt_data_end+0xfffe07fc>
   47918:	88c00015 	stw	r3,0(r17)
   4791c:	003ff706 	br	478fc <__alt_data_end+0xfffe07fc>

00047920 <_fclose_r>:
   47920:	28003926 	beq	r5,zero,47a08 <_fclose_r+0xe8>
   47924:	defffc04 	addi	sp,sp,-16
   47928:	dc400115 	stw	r17,4(sp)
   4792c:	dc000015 	stw	r16,0(sp)
   47930:	dfc00315 	stw	ra,12(sp)
   47934:	dc800215 	stw	r18,8(sp)
   47938:	2023883a 	mov	r17,r4
   4793c:	2821883a 	mov	r16,r5
   47940:	20000226 	beq	r4,zero,4794c <_fclose_r+0x2c>
   47944:	20800e17 	ldw	r2,56(r4)
   47948:	10002726 	beq	r2,zero,479e8 <_fclose_r+0xc8>
   4794c:	8080030f 	ldh	r2,12(r16)
   47950:	1000071e 	bne	r2,zero,47970 <_fclose_r+0x50>
   47954:	0005883a 	mov	r2,zero
   47958:	dfc00317 	ldw	ra,12(sp)
   4795c:	dc800217 	ldw	r18,8(sp)
   47960:	dc400117 	ldw	r17,4(sp)
   47964:	dc000017 	ldw	r16,0(sp)
   47968:	dec00404 	addi	sp,sp,16
   4796c:	f800283a 	ret
   47970:	800b883a 	mov	r5,r16
   47974:	8809883a 	mov	r4,r17
   47978:	0047a240 	call	47a24 <__sflush_r>
   4797c:	1025883a 	mov	r18,r2
   47980:	80800b17 	ldw	r2,44(r16)
   47984:	10000426 	beq	r2,zero,47998 <_fclose_r+0x78>
   47988:	81400717 	ldw	r5,28(r16)
   4798c:	8809883a 	mov	r4,r17
   47990:	103ee83a 	callr	r2
   47994:	10001616 	blt	r2,zero,479f0 <_fclose_r+0xd0>
   47998:	8080030b 	ldhu	r2,12(r16)
   4799c:	1080200c 	andi	r2,r2,128
   479a0:	1000151e 	bne	r2,zero,479f8 <_fclose_r+0xd8>
   479a4:	81400c17 	ldw	r5,48(r16)
   479a8:	28000526 	beq	r5,zero,479c0 <_fclose_r+0xa0>
   479ac:	80801004 	addi	r2,r16,64
   479b0:	28800226 	beq	r5,r2,479bc <_fclose_r+0x9c>
   479b4:	8809883a 	mov	r4,r17
   479b8:	0047df00 	call	47df0 <_free_r>
   479bc:	80000c15 	stw	zero,48(r16)
   479c0:	81401117 	ldw	r5,68(r16)
   479c4:	28000326 	beq	r5,zero,479d4 <_fclose_r+0xb4>
   479c8:	8809883a 	mov	r4,r17
   479cc:	0047df00 	call	47df0 <_free_r>
   479d0:	80001115 	stw	zero,68(r16)
   479d4:	0045ce40 	call	45ce4 <__sfp_lock_acquire>
   479d8:	8000030d 	sth	zero,12(r16)
   479dc:	0045ce80 	call	45ce8 <__sfp_lock_release>
   479e0:	9005883a 	mov	r2,r18
   479e4:	003fdc06 	br	47958 <__alt_data_end+0xfffe0858>
   479e8:	0045cd40 	call	45cd4 <__sinit>
   479ec:	003fd706 	br	4794c <__alt_data_end+0xfffe084c>
   479f0:	04bfffc4 	movi	r18,-1
   479f4:	003fe806 	br	47998 <__alt_data_end+0xfffe0898>
   479f8:	81400417 	ldw	r5,16(r16)
   479fc:	8809883a 	mov	r4,r17
   47a00:	0047df00 	call	47df0 <_free_r>
   47a04:	003fe706 	br	479a4 <__alt_data_end+0xfffe08a4>
   47a08:	0005883a 	mov	r2,zero
   47a0c:	f800283a 	ret

00047a10 <fclose>:
   47a10:	00800174 	movhi	r2,5
   47a14:	10b28b04 	addi	r2,r2,-13780
   47a18:	200b883a 	mov	r5,r4
   47a1c:	11000017 	ldw	r4,0(r2)
   47a20:	00479201 	jmpi	47920 <_fclose_r>

00047a24 <__sflush_r>:
   47a24:	2880030b 	ldhu	r2,12(r5)
   47a28:	defffb04 	addi	sp,sp,-20
   47a2c:	dcc00315 	stw	r19,12(sp)
   47a30:	dc400115 	stw	r17,4(sp)
   47a34:	dfc00415 	stw	ra,16(sp)
   47a38:	dc800215 	stw	r18,8(sp)
   47a3c:	dc000015 	stw	r16,0(sp)
   47a40:	10c0020c 	andi	r3,r2,8
   47a44:	2823883a 	mov	r17,r5
   47a48:	2027883a 	mov	r19,r4
   47a4c:	1800311e 	bne	r3,zero,47b14 <__sflush_r+0xf0>
   47a50:	28c00117 	ldw	r3,4(r5)
   47a54:	10820014 	ori	r2,r2,2048
   47a58:	2880030d 	sth	r2,12(r5)
   47a5c:	00c04b0e 	bge	zero,r3,47b8c <__sflush_r+0x168>
   47a60:	8a000a17 	ldw	r8,40(r17)
   47a64:	40002326 	beq	r8,zero,47af4 <__sflush_r+0xd0>
   47a68:	9c000017 	ldw	r16,0(r19)
   47a6c:	10c4000c 	andi	r3,r2,4096
   47a70:	98000015 	stw	zero,0(r19)
   47a74:	18004826 	beq	r3,zero,47b98 <__sflush_r+0x174>
   47a78:	89801417 	ldw	r6,80(r17)
   47a7c:	10c0010c 	andi	r3,r2,4
   47a80:	18000626 	beq	r3,zero,47a9c <__sflush_r+0x78>
   47a84:	88c00117 	ldw	r3,4(r17)
   47a88:	88800c17 	ldw	r2,48(r17)
   47a8c:	30cdc83a 	sub	r6,r6,r3
   47a90:	10000226 	beq	r2,zero,47a9c <__sflush_r+0x78>
   47a94:	88800f17 	ldw	r2,60(r17)
   47a98:	308dc83a 	sub	r6,r6,r2
   47a9c:	89400717 	ldw	r5,28(r17)
   47aa0:	000f883a 	mov	r7,zero
   47aa4:	9809883a 	mov	r4,r19
   47aa8:	403ee83a 	callr	r8
   47aac:	00ffffc4 	movi	r3,-1
   47ab0:	10c04426 	beq	r2,r3,47bc4 <__sflush_r+0x1a0>
   47ab4:	88c0030b 	ldhu	r3,12(r17)
   47ab8:	89000417 	ldw	r4,16(r17)
   47abc:	88000115 	stw	zero,4(r17)
   47ac0:	197dffcc 	andi	r5,r3,63487
   47ac4:	8940030d 	sth	r5,12(r17)
   47ac8:	89000015 	stw	r4,0(r17)
   47acc:	18c4000c 	andi	r3,r3,4096
   47ad0:	18002c1e 	bne	r3,zero,47b84 <__sflush_r+0x160>
   47ad4:	89400c17 	ldw	r5,48(r17)
   47ad8:	9c000015 	stw	r16,0(r19)
   47adc:	28000526 	beq	r5,zero,47af4 <__sflush_r+0xd0>
   47ae0:	88801004 	addi	r2,r17,64
   47ae4:	28800226 	beq	r5,r2,47af0 <__sflush_r+0xcc>
   47ae8:	9809883a 	mov	r4,r19
   47aec:	0047df00 	call	47df0 <_free_r>
   47af0:	88000c15 	stw	zero,48(r17)
   47af4:	0005883a 	mov	r2,zero
   47af8:	dfc00417 	ldw	ra,16(sp)
   47afc:	dcc00317 	ldw	r19,12(sp)
   47b00:	dc800217 	ldw	r18,8(sp)
   47b04:	dc400117 	ldw	r17,4(sp)
   47b08:	dc000017 	ldw	r16,0(sp)
   47b0c:	dec00504 	addi	sp,sp,20
   47b10:	f800283a 	ret
   47b14:	2c800417 	ldw	r18,16(r5)
   47b18:	903ff626 	beq	r18,zero,47af4 <__alt_data_end+0xfffe09f4>
   47b1c:	2c000017 	ldw	r16,0(r5)
   47b20:	108000cc 	andi	r2,r2,3
   47b24:	2c800015 	stw	r18,0(r5)
   47b28:	84a1c83a 	sub	r16,r16,r18
   47b2c:	1000131e 	bne	r2,zero,47b7c <__sflush_r+0x158>
   47b30:	28800517 	ldw	r2,20(r5)
   47b34:	88800215 	stw	r2,8(r17)
   47b38:	04000316 	blt	zero,r16,47b48 <__sflush_r+0x124>
   47b3c:	003fed06 	br	47af4 <__alt_data_end+0xfffe09f4>
   47b40:	90a5883a 	add	r18,r18,r2
   47b44:	043feb0e 	bge	zero,r16,47af4 <__alt_data_end+0xfffe09f4>
   47b48:	88800917 	ldw	r2,36(r17)
   47b4c:	89400717 	ldw	r5,28(r17)
   47b50:	800f883a 	mov	r7,r16
   47b54:	900d883a 	mov	r6,r18
   47b58:	9809883a 	mov	r4,r19
   47b5c:	103ee83a 	callr	r2
   47b60:	80a1c83a 	sub	r16,r16,r2
   47b64:	00bff616 	blt	zero,r2,47b40 <__alt_data_end+0xfffe0a40>
   47b68:	88c0030b 	ldhu	r3,12(r17)
   47b6c:	00bfffc4 	movi	r2,-1
   47b70:	18c01014 	ori	r3,r3,64
   47b74:	88c0030d 	sth	r3,12(r17)
   47b78:	003fdf06 	br	47af8 <__alt_data_end+0xfffe09f8>
   47b7c:	0005883a 	mov	r2,zero
   47b80:	003fec06 	br	47b34 <__alt_data_end+0xfffe0a34>
   47b84:	88801415 	stw	r2,80(r17)
   47b88:	003fd206 	br	47ad4 <__alt_data_end+0xfffe09d4>
   47b8c:	28c00f17 	ldw	r3,60(r5)
   47b90:	00ffb316 	blt	zero,r3,47a60 <__alt_data_end+0xfffe0960>
   47b94:	003fd706 	br	47af4 <__alt_data_end+0xfffe09f4>
   47b98:	89400717 	ldw	r5,28(r17)
   47b9c:	000d883a 	mov	r6,zero
   47ba0:	01c00044 	movi	r7,1
   47ba4:	9809883a 	mov	r4,r19
   47ba8:	403ee83a 	callr	r8
   47bac:	100d883a 	mov	r6,r2
   47bb0:	00bfffc4 	movi	r2,-1
   47bb4:	30801426 	beq	r6,r2,47c08 <__sflush_r+0x1e4>
   47bb8:	8880030b 	ldhu	r2,12(r17)
   47bbc:	8a000a17 	ldw	r8,40(r17)
   47bc0:	003fae06 	br	47a7c <__alt_data_end+0xfffe097c>
   47bc4:	98c00017 	ldw	r3,0(r19)
   47bc8:	183fba26 	beq	r3,zero,47ab4 <__alt_data_end+0xfffe09b4>
   47bcc:	01000744 	movi	r4,29
   47bd0:	19000626 	beq	r3,r4,47bec <__sflush_r+0x1c8>
   47bd4:	01000584 	movi	r4,22
   47bd8:	19000426 	beq	r3,r4,47bec <__sflush_r+0x1c8>
   47bdc:	88c0030b 	ldhu	r3,12(r17)
   47be0:	18c01014 	ori	r3,r3,64
   47be4:	88c0030d 	sth	r3,12(r17)
   47be8:	003fc306 	br	47af8 <__alt_data_end+0xfffe09f8>
   47bec:	8880030b 	ldhu	r2,12(r17)
   47bf0:	88c00417 	ldw	r3,16(r17)
   47bf4:	88000115 	stw	zero,4(r17)
   47bf8:	10bdffcc 	andi	r2,r2,63487
   47bfc:	8880030d 	sth	r2,12(r17)
   47c00:	88c00015 	stw	r3,0(r17)
   47c04:	003fb306 	br	47ad4 <__alt_data_end+0xfffe09d4>
   47c08:	98800017 	ldw	r2,0(r19)
   47c0c:	103fea26 	beq	r2,zero,47bb8 <__alt_data_end+0xfffe0ab8>
   47c10:	00c00744 	movi	r3,29
   47c14:	10c00226 	beq	r2,r3,47c20 <__sflush_r+0x1fc>
   47c18:	00c00584 	movi	r3,22
   47c1c:	10c0031e 	bne	r2,r3,47c2c <__sflush_r+0x208>
   47c20:	9c000015 	stw	r16,0(r19)
   47c24:	0005883a 	mov	r2,zero
   47c28:	003fb306 	br	47af8 <__alt_data_end+0xfffe09f8>
   47c2c:	88c0030b 	ldhu	r3,12(r17)
   47c30:	3005883a 	mov	r2,r6
   47c34:	18c01014 	ori	r3,r3,64
   47c38:	88c0030d 	sth	r3,12(r17)
   47c3c:	003fae06 	br	47af8 <__alt_data_end+0xfffe09f8>

00047c40 <_fflush_r>:
   47c40:	defffd04 	addi	sp,sp,-12
   47c44:	dc000115 	stw	r16,4(sp)
   47c48:	dfc00215 	stw	ra,8(sp)
   47c4c:	2021883a 	mov	r16,r4
   47c50:	20000226 	beq	r4,zero,47c5c <_fflush_r+0x1c>
   47c54:	20800e17 	ldw	r2,56(r4)
   47c58:	10000c26 	beq	r2,zero,47c8c <_fflush_r+0x4c>
   47c5c:	2880030f 	ldh	r2,12(r5)
   47c60:	1000051e 	bne	r2,zero,47c78 <_fflush_r+0x38>
   47c64:	0005883a 	mov	r2,zero
   47c68:	dfc00217 	ldw	ra,8(sp)
   47c6c:	dc000117 	ldw	r16,4(sp)
   47c70:	dec00304 	addi	sp,sp,12
   47c74:	f800283a 	ret
   47c78:	8009883a 	mov	r4,r16
   47c7c:	dfc00217 	ldw	ra,8(sp)
   47c80:	dc000117 	ldw	r16,4(sp)
   47c84:	dec00304 	addi	sp,sp,12
   47c88:	0047a241 	jmpi	47a24 <__sflush_r>
   47c8c:	d9400015 	stw	r5,0(sp)
   47c90:	0045cd40 	call	45cd4 <__sinit>
   47c94:	d9400017 	ldw	r5,0(sp)
   47c98:	003ff006 	br	47c5c <__alt_data_end+0xfffe0b5c>

00047c9c <fflush>:
   47c9c:	20000526 	beq	r4,zero,47cb4 <fflush+0x18>
   47ca0:	00800174 	movhi	r2,5
   47ca4:	10b28b04 	addi	r2,r2,-13780
   47ca8:	200b883a 	mov	r5,r4
   47cac:	11000017 	ldw	r4,0(r2)
   47cb0:	0047c401 	jmpi	47c40 <_fflush_r>
   47cb4:	00800174 	movhi	r2,5
   47cb8:	10b28a04 	addi	r2,r2,-13784
   47cbc:	11000017 	ldw	r4,0(r2)
   47cc0:	01400134 	movhi	r5,4
   47cc4:	295f1004 	addi	r5,r5,31808
   47cc8:	00462a41 	jmpi	462a4 <_fwalk_reent>

00047ccc <_malloc_trim_r>:
   47ccc:	defffb04 	addi	sp,sp,-20
   47cd0:	dcc00315 	stw	r19,12(sp)
   47cd4:	04c00174 	movhi	r19,5
   47cd8:	dc800215 	stw	r18,8(sp)
   47cdc:	dc400115 	stw	r17,4(sp)
   47ce0:	dc000015 	stw	r16,0(sp)
   47ce4:	dfc00415 	stw	ra,16(sp)
   47ce8:	2821883a 	mov	r16,r5
   47cec:	9ced0604 	addi	r19,r19,-19432
   47cf0:	2025883a 	mov	r18,r4
   47cf4:	00489a80 	call	489a8 <__malloc_lock>
   47cf8:	98800217 	ldw	r2,8(r19)
   47cfc:	14400117 	ldw	r17,4(r2)
   47d00:	00bfff04 	movi	r2,-4
   47d04:	88a2703a 	and	r17,r17,r2
   47d08:	8c21c83a 	sub	r16,r17,r16
   47d0c:	8403fbc4 	addi	r16,r16,4079
   47d10:	8020d33a 	srli	r16,r16,12
   47d14:	0083ffc4 	movi	r2,4095
   47d18:	843fffc4 	addi	r16,r16,-1
   47d1c:	8020933a 	slli	r16,r16,12
   47d20:	1400060e 	bge	r2,r16,47d3c <_malloc_trim_r+0x70>
   47d24:	000b883a 	mov	r5,zero
   47d28:	9009883a 	mov	r4,r18
   47d2c:	00475880 	call	47588 <_sbrk_r>
   47d30:	98c00217 	ldw	r3,8(r19)
   47d34:	1c47883a 	add	r3,r3,r17
   47d38:	10c00a26 	beq	r2,r3,47d64 <_malloc_trim_r+0x98>
   47d3c:	9009883a 	mov	r4,r18
   47d40:	00489cc0 	call	489cc <__malloc_unlock>
   47d44:	0005883a 	mov	r2,zero
   47d48:	dfc00417 	ldw	ra,16(sp)
   47d4c:	dcc00317 	ldw	r19,12(sp)
   47d50:	dc800217 	ldw	r18,8(sp)
   47d54:	dc400117 	ldw	r17,4(sp)
   47d58:	dc000017 	ldw	r16,0(sp)
   47d5c:	dec00504 	addi	sp,sp,20
   47d60:	f800283a 	ret
   47d64:	040bc83a 	sub	r5,zero,r16
   47d68:	9009883a 	mov	r4,r18
   47d6c:	00475880 	call	47588 <_sbrk_r>
   47d70:	00ffffc4 	movi	r3,-1
   47d74:	10c00d26 	beq	r2,r3,47dac <_malloc_trim_r+0xe0>
   47d78:	00c00174 	movhi	r3,5
   47d7c:	18f93d04 	addi	r3,r3,-6924
   47d80:	18800017 	ldw	r2,0(r3)
   47d84:	99000217 	ldw	r4,8(r19)
   47d88:	8c23c83a 	sub	r17,r17,r16
   47d8c:	8c400054 	ori	r17,r17,1
   47d90:	1421c83a 	sub	r16,r2,r16
   47d94:	24400115 	stw	r17,4(r4)
   47d98:	9009883a 	mov	r4,r18
   47d9c:	1c000015 	stw	r16,0(r3)
   47da0:	00489cc0 	call	489cc <__malloc_unlock>
   47da4:	00800044 	movi	r2,1
   47da8:	003fe706 	br	47d48 <__alt_data_end+0xfffe0c48>
   47dac:	000b883a 	mov	r5,zero
   47db0:	9009883a 	mov	r4,r18
   47db4:	00475880 	call	47588 <_sbrk_r>
   47db8:	99000217 	ldw	r4,8(r19)
   47dbc:	014003c4 	movi	r5,15
   47dc0:	1107c83a 	sub	r3,r2,r4
   47dc4:	28ffdd0e 	bge	r5,r3,47d3c <__alt_data_end+0xfffe0c3c>
   47dc8:	01400174 	movhi	r5,5
   47dcc:	29728c04 	addi	r5,r5,-13776
   47dd0:	29400017 	ldw	r5,0(r5)
   47dd4:	18c00054 	ori	r3,r3,1
   47dd8:	20c00115 	stw	r3,4(r4)
   47ddc:	00c00174 	movhi	r3,5
   47de0:	1145c83a 	sub	r2,r2,r5
   47de4:	18f93d04 	addi	r3,r3,-6924
   47de8:	18800015 	stw	r2,0(r3)
   47dec:	003fd306 	br	47d3c <__alt_data_end+0xfffe0c3c>

00047df0 <_free_r>:
   47df0:	28004126 	beq	r5,zero,47ef8 <_free_r+0x108>
   47df4:	defffd04 	addi	sp,sp,-12
   47df8:	dc400115 	stw	r17,4(sp)
   47dfc:	dc000015 	stw	r16,0(sp)
   47e00:	2023883a 	mov	r17,r4
   47e04:	2821883a 	mov	r16,r5
   47e08:	dfc00215 	stw	ra,8(sp)
   47e0c:	00489a80 	call	489a8 <__malloc_lock>
   47e10:	81ffff17 	ldw	r7,-4(r16)
   47e14:	00bfff84 	movi	r2,-2
   47e18:	01000174 	movhi	r4,5
   47e1c:	81bffe04 	addi	r6,r16,-8
   47e20:	3884703a 	and	r2,r7,r2
   47e24:	212d0604 	addi	r4,r4,-19432
   47e28:	308b883a 	add	r5,r6,r2
   47e2c:	2a400117 	ldw	r9,4(r5)
   47e30:	22000217 	ldw	r8,8(r4)
   47e34:	00ffff04 	movi	r3,-4
   47e38:	48c6703a 	and	r3,r9,r3
   47e3c:	2a005726 	beq	r5,r8,47f9c <_free_r+0x1ac>
   47e40:	28c00115 	stw	r3,4(r5)
   47e44:	39c0004c 	andi	r7,r7,1
   47e48:	3800091e 	bne	r7,zero,47e70 <_free_r+0x80>
   47e4c:	823ffe17 	ldw	r8,-8(r16)
   47e50:	22400204 	addi	r9,r4,8
   47e54:	320dc83a 	sub	r6,r6,r8
   47e58:	31c00217 	ldw	r7,8(r6)
   47e5c:	1205883a 	add	r2,r2,r8
   47e60:	3a406526 	beq	r7,r9,47ff8 <_free_r+0x208>
   47e64:	32000317 	ldw	r8,12(r6)
   47e68:	3a000315 	stw	r8,12(r7)
   47e6c:	41c00215 	stw	r7,8(r8)
   47e70:	28cf883a 	add	r7,r5,r3
   47e74:	39c00117 	ldw	r7,4(r7)
   47e78:	39c0004c 	andi	r7,r7,1
   47e7c:	38003a26 	beq	r7,zero,47f68 <_free_r+0x178>
   47e80:	10c00054 	ori	r3,r2,1
   47e84:	30c00115 	stw	r3,4(r6)
   47e88:	3087883a 	add	r3,r6,r2
   47e8c:	18800015 	stw	r2,0(r3)
   47e90:	00c07fc4 	movi	r3,511
   47e94:	18801936 	bltu	r3,r2,47efc <_free_r+0x10c>
   47e98:	1004d0fa 	srli	r2,r2,3
   47e9c:	01c00044 	movi	r7,1
   47ea0:	21400117 	ldw	r5,4(r4)
   47ea4:	10c00044 	addi	r3,r2,1
   47ea8:	18c7883a 	add	r3,r3,r3
   47eac:	1005d0ba 	srai	r2,r2,2
   47eb0:	18c7883a 	add	r3,r3,r3
   47eb4:	18c7883a 	add	r3,r3,r3
   47eb8:	1907883a 	add	r3,r3,r4
   47ebc:	3884983a 	sll	r2,r7,r2
   47ec0:	19c00017 	ldw	r7,0(r3)
   47ec4:	1a3ffe04 	addi	r8,r3,-8
   47ec8:	1144b03a 	or	r2,r2,r5
   47ecc:	32000315 	stw	r8,12(r6)
   47ed0:	31c00215 	stw	r7,8(r6)
   47ed4:	20800115 	stw	r2,4(r4)
   47ed8:	19800015 	stw	r6,0(r3)
   47edc:	39800315 	stw	r6,12(r7)
   47ee0:	8809883a 	mov	r4,r17
   47ee4:	dfc00217 	ldw	ra,8(sp)
   47ee8:	dc400117 	ldw	r17,4(sp)
   47eec:	dc000017 	ldw	r16,0(sp)
   47ef0:	dec00304 	addi	sp,sp,12
   47ef4:	00489cc1 	jmpi	489cc <__malloc_unlock>
   47ef8:	f800283a 	ret
   47efc:	100ad27a 	srli	r5,r2,9
   47f00:	00c00104 	movi	r3,4
   47f04:	19404a36 	bltu	r3,r5,48030 <_free_r+0x240>
   47f08:	100ad1ba 	srli	r5,r2,6
   47f0c:	28c00e44 	addi	r3,r5,57
   47f10:	18c7883a 	add	r3,r3,r3
   47f14:	29400e04 	addi	r5,r5,56
   47f18:	18c7883a 	add	r3,r3,r3
   47f1c:	18c7883a 	add	r3,r3,r3
   47f20:	1909883a 	add	r4,r3,r4
   47f24:	20c00017 	ldw	r3,0(r4)
   47f28:	01c00174 	movhi	r7,5
   47f2c:	213ffe04 	addi	r4,r4,-8
   47f30:	39ed0604 	addi	r7,r7,-19432
   47f34:	20c04426 	beq	r4,r3,48048 <_free_r+0x258>
   47f38:	01ffff04 	movi	r7,-4
   47f3c:	19400117 	ldw	r5,4(r3)
   47f40:	29ca703a 	and	r5,r5,r7
   47f44:	1140022e 	bgeu	r2,r5,47f50 <_free_r+0x160>
   47f48:	18c00217 	ldw	r3,8(r3)
   47f4c:	20fffb1e 	bne	r4,r3,47f3c <__alt_data_end+0xfffe0e3c>
   47f50:	19000317 	ldw	r4,12(r3)
   47f54:	31000315 	stw	r4,12(r6)
   47f58:	30c00215 	stw	r3,8(r6)
   47f5c:	21800215 	stw	r6,8(r4)
   47f60:	19800315 	stw	r6,12(r3)
   47f64:	003fde06 	br	47ee0 <__alt_data_end+0xfffe0de0>
   47f68:	29c00217 	ldw	r7,8(r5)
   47f6c:	10c5883a 	add	r2,r2,r3
   47f70:	00c00174 	movhi	r3,5
   47f74:	18ed0804 	addi	r3,r3,-19424
   47f78:	38c03b26 	beq	r7,r3,48068 <_free_r+0x278>
   47f7c:	2a000317 	ldw	r8,12(r5)
   47f80:	11400054 	ori	r5,r2,1
   47f84:	3087883a 	add	r3,r6,r2
   47f88:	3a000315 	stw	r8,12(r7)
   47f8c:	41c00215 	stw	r7,8(r8)
   47f90:	31400115 	stw	r5,4(r6)
   47f94:	18800015 	stw	r2,0(r3)
   47f98:	003fbd06 	br	47e90 <__alt_data_end+0xfffe0d90>
   47f9c:	39c0004c 	andi	r7,r7,1
   47fa0:	10c5883a 	add	r2,r2,r3
   47fa4:	3800071e 	bne	r7,zero,47fc4 <_free_r+0x1d4>
   47fa8:	81fffe17 	ldw	r7,-8(r16)
   47fac:	31cdc83a 	sub	r6,r6,r7
   47fb0:	30c00317 	ldw	r3,12(r6)
   47fb4:	31400217 	ldw	r5,8(r6)
   47fb8:	11c5883a 	add	r2,r2,r7
   47fbc:	28c00315 	stw	r3,12(r5)
   47fc0:	19400215 	stw	r5,8(r3)
   47fc4:	10c00054 	ori	r3,r2,1
   47fc8:	30c00115 	stw	r3,4(r6)
   47fcc:	00c00174 	movhi	r3,5
   47fd0:	18f28d04 	addi	r3,r3,-13772
   47fd4:	18c00017 	ldw	r3,0(r3)
   47fd8:	21800215 	stw	r6,8(r4)
   47fdc:	10ffc036 	bltu	r2,r3,47ee0 <__alt_data_end+0xfffe0de0>
   47fe0:	00800174 	movhi	r2,5
   47fe4:	10b93504 	addi	r2,r2,-6956
   47fe8:	11400017 	ldw	r5,0(r2)
   47fec:	8809883a 	mov	r4,r17
   47ff0:	0047ccc0 	call	47ccc <_malloc_trim_r>
   47ff4:	003fba06 	br	47ee0 <__alt_data_end+0xfffe0de0>
   47ff8:	28c9883a 	add	r4,r5,r3
   47ffc:	21000117 	ldw	r4,4(r4)
   48000:	2100004c 	andi	r4,r4,1
   48004:	2000391e 	bne	r4,zero,480ec <_free_r+0x2fc>
   48008:	29c00217 	ldw	r7,8(r5)
   4800c:	29000317 	ldw	r4,12(r5)
   48010:	1885883a 	add	r2,r3,r2
   48014:	10c00054 	ori	r3,r2,1
   48018:	39000315 	stw	r4,12(r7)
   4801c:	21c00215 	stw	r7,8(r4)
   48020:	30c00115 	stw	r3,4(r6)
   48024:	308d883a 	add	r6,r6,r2
   48028:	30800015 	stw	r2,0(r6)
   4802c:	003fac06 	br	47ee0 <__alt_data_end+0xfffe0de0>
   48030:	00c00504 	movi	r3,20
   48034:	19401536 	bltu	r3,r5,4808c <_free_r+0x29c>
   48038:	28c01704 	addi	r3,r5,92
   4803c:	18c7883a 	add	r3,r3,r3
   48040:	294016c4 	addi	r5,r5,91
   48044:	003fb406 	br	47f18 <__alt_data_end+0xfffe0e18>
   48048:	280bd0ba 	srai	r5,r5,2
   4804c:	00c00044 	movi	r3,1
   48050:	38800117 	ldw	r2,4(r7)
   48054:	194a983a 	sll	r5,r3,r5
   48058:	2007883a 	mov	r3,r4
   4805c:	2884b03a 	or	r2,r5,r2
   48060:	38800115 	stw	r2,4(r7)
   48064:	003fbb06 	br	47f54 <__alt_data_end+0xfffe0e54>
   48068:	21800515 	stw	r6,20(r4)
   4806c:	21800415 	stw	r6,16(r4)
   48070:	10c00054 	ori	r3,r2,1
   48074:	31c00315 	stw	r7,12(r6)
   48078:	31c00215 	stw	r7,8(r6)
   4807c:	30c00115 	stw	r3,4(r6)
   48080:	308d883a 	add	r6,r6,r2
   48084:	30800015 	stw	r2,0(r6)
   48088:	003f9506 	br	47ee0 <__alt_data_end+0xfffe0de0>
   4808c:	00c01504 	movi	r3,84
   48090:	19400536 	bltu	r3,r5,480a8 <_free_r+0x2b8>
   48094:	100ad33a 	srli	r5,r2,12
   48098:	28c01bc4 	addi	r3,r5,111
   4809c:	18c7883a 	add	r3,r3,r3
   480a0:	29401b84 	addi	r5,r5,110
   480a4:	003f9c06 	br	47f18 <__alt_data_end+0xfffe0e18>
   480a8:	00c05504 	movi	r3,340
   480ac:	19400536 	bltu	r3,r5,480c4 <_free_r+0x2d4>
   480b0:	100ad3fa 	srli	r5,r2,15
   480b4:	28c01e04 	addi	r3,r5,120
   480b8:	18c7883a 	add	r3,r3,r3
   480bc:	29401dc4 	addi	r5,r5,119
   480c0:	003f9506 	br	47f18 <__alt_data_end+0xfffe0e18>
   480c4:	00c15504 	movi	r3,1364
   480c8:	19400536 	bltu	r3,r5,480e0 <_free_r+0x2f0>
   480cc:	100ad4ba 	srli	r5,r2,18
   480d0:	28c01f44 	addi	r3,r5,125
   480d4:	18c7883a 	add	r3,r3,r3
   480d8:	29401f04 	addi	r5,r5,124
   480dc:	003f8e06 	br	47f18 <__alt_data_end+0xfffe0e18>
   480e0:	00c03f84 	movi	r3,254
   480e4:	01401f84 	movi	r5,126
   480e8:	003f8b06 	br	47f18 <__alt_data_end+0xfffe0e18>
   480ec:	10c00054 	ori	r3,r2,1
   480f0:	30c00115 	stw	r3,4(r6)
   480f4:	308d883a 	add	r6,r6,r2
   480f8:	30800015 	stw	r2,0(r6)
   480fc:	003f7806 	br	47ee0 <__alt_data_end+0xfffe0de0>

00048100 <_lseek_r>:
   48100:	defffd04 	addi	sp,sp,-12
   48104:	2805883a 	mov	r2,r5
   48108:	dc000015 	stw	r16,0(sp)
   4810c:	04000174 	movhi	r16,5
   48110:	dc400115 	stw	r17,4(sp)
   48114:	300b883a 	mov	r5,r6
   48118:	84393604 	addi	r16,r16,-6952
   4811c:	2023883a 	mov	r17,r4
   48120:	380d883a 	mov	r6,r7
   48124:	1009883a 	mov	r4,r2
   48128:	dfc00215 	stw	ra,8(sp)
   4812c:	80000015 	stw	zero,0(r16)
   48130:	00488580 	call	48858 <lseek>
   48134:	00ffffc4 	movi	r3,-1
   48138:	10c00526 	beq	r2,r3,48150 <_lseek_r+0x50>
   4813c:	dfc00217 	ldw	ra,8(sp)
   48140:	dc400117 	ldw	r17,4(sp)
   48144:	dc000017 	ldw	r16,0(sp)
   48148:	dec00304 	addi	sp,sp,12
   4814c:	f800283a 	ret
   48150:	80c00017 	ldw	r3,0(r16)
   48154:	183ff926 	beq	r3,zero,4813c <__alt_data_end+0xfffe103c>
   48158:	88c00015 	stw	r3,0(r17)
   4815c:	003ff706 	br	4813c <__alt_data_end+0xfffe103c>

00048160 <__smakebuf_r>:
   48160:	2880030b 	ldhu	r2,12(r5)
   48164:	10c0008c 	andi	r3,r2,2
   48168:	1800411e 	bne	r3,zero,48270 <__smakebuf_r+0x110>
   4816c:	deffec04 	addi	sp,sp,-80
   48170:	dc000f15 	stw	r16,60(sp)
   48174:	2821883a 	mov	r16,r5
   48178:	2940038f 	ldh	r5,14(r5)
   4817c:	dc401015 	stw	r17,64(sp)
   48180:	dfc01315 	stw	ra,76(sp)
   48184:	dcc01215 	stw	r19,72(sp)
   48188:	dc801115 	stw	r18,68(sp)
   4818c:	2023883a 	mov	r17,r4
   48190:	28001c16 	blt	r5,zero,48204 <__smakebuf_r+0xa4>
   48194:	d80d883a 	mov	r6,sp
   48198:	004837c0 	call	4837c <_fstat_r>
   4819c:	10001816 	blt	r2,zero,48200 <__smakebuf_r+0xa0>
   481a0:	d8800117 	ldw	r2,4(sp)
   481a4:	00e00014 	movui	r3,32768
   481a8:	10bc000c 	andi	r2,r2,61440
   481ac:	14c80020 	cmpeqi	r19,r2,8192
   481b0:	10c03726 	beq	r2,r3,48290 <__smakebuf_r+0x130>
   481b4:	80c0030b 	ldhu	r3,12(r16)
   481b8:	18c20014 	ori	r3,r3,2048
   481bc:	80c0030d 	sth	r3,12(r16)
   481c0:	00c80004 	movi	r3,8192
   481c4:	10c0521e 	bne	r2,r3,48310 <__smakebuf_r+0x1b0>
   481c8:	8140038f 	ldh	r5,14(r16)
   481cc:	8809883a 	mov	r4,r17
   481d0:	00483d80 	call	483d8 <_isatty_r>
   481d4:	10004c26 	beq	r2,zero,48308 <__smakebuf_r+0x1a8>
   481d8:	8080030b 	ldhu	r2,12(r16)
   481dc:	80c010c4 	addi	r3,r16,67
   481e0:	80c00015 	stw	r3,0(r16)
   481e4:	10800054 	ori	r2,r2,1
   481e8:	8080030d 	sth	r2,12(r16)
   481ec:	00800044 	movi	r2,1
   481f0:	80c00415 	stw	r3,16(r16)
   481f4:	80800515 	stw	r2,20(r16)
   481f8:	04810004 	movi	r18,1024
   481fc:	00000706 	br	4821c <__smakebuf_r+0xbc>
   48200:	8080030b 	ldhu	r2,12(r16)
   48204:	10c0200c 	andi	r3,r2,128
   48208:	18001f1e 	bne	r3,zero,48288 <__smakebuf_r+0x128>
   4820c:	04810004 	movi	r18,1024
   48210:	10820014 	ori	r2,r2,2048
   48214:	8080030d 	sth	r2,12(r16)
   48218:	0027883a 	mov	r19,zero
   4821c:	900b883a 	mov	r5,r18
   48220:	8809883a 	mov	r4,r17
   48224:	00463680 	call	46368 <_malloc_r>
   48228:	10002c26 	beq	r2,zero,482dc <__smakebuf_r+0x17c>
   4822c:	80c0030b 	ldhu	r3,12(r16)
   48230:	01000134 	movhi	r4,4
   48234:	21166304 	addi	r4,r4,22924
   48238:	89000f15 	stw	r4,60(r17)
   4823c:	18c02014 	ori	r3,r3,128
   48240:	80c0030d 	sth	r3,12(r16)
   48244:	80800015 	stw	r2,0(r16)
   48248:	80800415 	stw	r2,16(r16)
   4824c:	84800515 	stw	r18,20(r16)
   48250:	98001a1e 	bne	r19,zero,482bc <__smakebuf_r+0x15c>
   48254:	dfc01317 	ldw	ra,76(sp)
   48258:	dcc01217 	ldw	r19,72(sp)
   4825c:	dc801117 	ldw	r18,68(sp)
   48260:	dc401017 	ldw	r17,64(sp)
   48264:	dc000f17 	ldw	r16,60(sp)
   48268:	dec01404 	addi	sp,sp,80
   4826c:	f800283a 	ret
   48270:	288010c4 	addi	r2,r5,67
   48274:	28800015 	stw	r2,0(r5)
   48278:	28800415 	stw	r2,16(r5)
   4827c:	00800044 	movi	r2,1
   48280:	28800515 	stw	r2,20(r5)
   48284:	f800283a 	ret
   48288:	04801004 	movi	r18,64
   4828c:	003fe006 	br	48210 <__alt_data_end+0xfffe1110>
   48290:	81000a17 	ldw	r4,40(r16)
   48294:	00c00134 	movhi	r3,4
   48298:	18ddad04 	addi	r3,r3,30388
   4829c:	20ffc51e 	bne	r4,r3,481b4 <__alt_data_end+0xfffe10b4>
   482a0:	8080030b 	ldhu	r2,12(r16)
   482a4:	04810004 	movi	r18,1024
   482a8:	84801315 	stw	r18,76(r16)
   482ac:	1484b03a 	or	r2,r2,r18
   482b0:	8080030d 	sth	r2,12(r16)
   482b4:	0027883a 	mov	r19,zero
   482b8:	003fd806 	br	4821c <__alt_data_end+0xfffe111c>
   482bc:	8140038f 	ldh	r5,14(r16)
   482c0:	8809883a 	mov	r4,r17
   482c4:	00483d80 	call	483d8 <_isatty_r>
   482c8:	103fe226 	beq	r2,zero,48254 <__alt_data_end+0xfffe1154>
   482cc:	8080030b 	ldhu	r2,12(r16)
   482d0:	10800054 	ori	r2,r2,1
   482d4:	8080030d 	sth	r2,12(r16)
   482d8:	003fde06 	br	48254 <__alt_data_end+0xfffe1154>
   482dc:	8080030b 	ldhu	r2,12(r16)
   482e0:	10c0800c 	andi	r3,r2,512
   482e4:	183fdb1e 	bne	r3,zero,48254 <__alt_data_end+0xfffe1154>
   482e8:	10800094 	ori	r2,r2,2
   482ec:	80c010c4 	addi	r3,r16,67
   482f0:	8080030d 	sth	r2,12(r16)
   482f4:	00800044 	movi	r2,1
   482f8:	80c00015 	stw	r3,0(r16)
   482fc:	80c00415 	stw	r3,16(r16)
   48300:	80800515 	stw	r2,20(r16)
   48304:	003fd306 	br	48254 <__alt_data_end+0xfffe1154>
   48308:	04810004 	movi	r18,1024
   4830c:	003fc306 	br	4821c <__alt_data_end+0xfffe111c>
   48310:	0027883a 	mov	r19,zero
   48314:	04810004 	movi	r18,1024
   48318:	003fc006 	br	4821c <__alt_data_end+0xfffe111c>

0004831c <_read_r>:
   4831c:	defffd04 	addi	sp,sp,-12
   48320:	2805883a 	mov	r2,r5
   48324:	dc000015 	stw	r16,0(sp)
   48328:	04000174 	movhi	r16,5
   4832c:	dc400115 	stw	r17,4(sp)
   48330:	300b883a 	mov	r5,r6
   48334:	84393604 	addi	r16,r16,-6952
   48338:	2023883a 	mov	r17,r4
   4833c:	380d883a 	mov	r6,r7
   48340:	1009883a 	mov	r4,r2
   48344:	dfc00215 	stw	ra,8(sp)
   48348:	80000015 	stw	zero,0(r16)
   4834c:	0048a2c0 	call	48a2c <read>
   48350:	00ffffc4 	movi	r3,-1
   48354:	10c00526 	beq	r2,r3,4836c <_read_r+0x50>
   48358:	dfc00217 	ldw	ra,8(sp)
   4835c:	dc400117 	ldw	r17,4(sp)
   48360:	dc000017 	ldw	r16,0(sp)
   48364:	dec00304 	addi	sp,sp,12
   48368:	f800283a 	ret
   4836c:	80c00017 	ldw	r3,0(r16)
   48370:	183ff926 	beq	r3,zero,48358 <__alt_data_end+0xfffe1258>
   48374:	88c00015 	stw	r3,0(r17)
   48378:	003ff706 	br	48358 <__alt_data_end+0xfffe1258>

0004837c <_fstat_r>:
   4837c:	defffd04 	addi	sp,sp,-12
   48380:	2805883a 	mov	r2,r5
   48384:	dc000015 	stw	r16,0(sp)
   48388:	04000174 	movhi	r16,5
   4838c:	dc400115 	stw	r17,4(sp)
   48390:	84393604 	addi	r16,r16,-6952
   48394:	2023883a 	mov	r17,r4
   48398:	300b883a 	mov	r5,r6
   4839c:	1009883a 	mov	r4,r2
   483a0:	dfc00215 	stw	ra,8(sp)
   483a4:	80000015 	stw	zero,0(r16)
   483a8:	00485a00 	call	485a0 <fstat>
   483ac:	00ffffc4 	movi	r3,-1
   483b0:	10c00526 	beq	r2,r3,483c8 <_fstat_r+0x4c>
   483b4:	dfc00217 	ldw	ra,8(sp)
   483b8:	dc400117 	ldw	r17,4(sp)
   483bc:	dc000017 	ldw	r16,0(sp)
   483c0:	dec00304 	addi	sp,sp,12
   483c4:	f800283a 	ret
   483c8:	80c00017 	ldw	r3,0(r16)
   483cc:	183ff926 	beq	r3,zero,483b4 <__alt_data_end+0xfffe12b4>
   483d0:	88c00015 	stw	r3,0(r17)
   483d4:	003ff706 	br	483b4 <__alt_data_end+0xfffe12b4>

000483d8 <_isatty_r>:
   483d8:	defffd04 	addi	sp,sp,-12
   483dc:	dc000015 	stw	r16,0(sp)
   483e0:	04000174 	movhi	r16,5
   483e4:	dc400115 	stw	r17,4(sp)
   483e8:	84393604 	addi	r16,r16,-6952
   483ec:	2023883a 	mov	r17,r4
   483f0:	2809883a 	mov	r4,r5
   483f4:	dfc00215 	stw	ra,8(sp)
   483f8:	80000015 	stw	zero,0(r16)
   483fc:	004868c0 	call	4868c <isatty>
   48400:	00ffffc4 	movi	r3,-1
   48404:	10c00526 	beq	r2,r3,4841c <_isatty_r+0x44>
   48408:	dfc00217 	ldw	ra,8(sp)
   4840c:	dc400117 	ldw	r17,4(sp)
   48410:	dc000017 	ldw	r16,0(sp)
   48414:	dec00304 	addi	sp,sp,12
   48418:	f800283a 	ret
   4841c:	80c00017 	ldw	r3,0(r16)
   48420:	183ff926 	beq	r3,zero,48408 <__alt_data_end+0xfffe1308>
   48424:	88c00015 	stw	r3,0(r17)
   48428:	003ff706 	br	48408 <__alt_data_end+0xfffe1308>

0004842c <alt_get_errno>:
#undef errno

extern int errno;

static ALT_INLINE int* alt_get_errno(void)
{
   4842c:	defffe04 	addi	sp,sp,-8
   48430:	dfc00115 	stw	ra,4(sp)
   48434:	df000015 	stw	fp,0(sp)
   48438:	d839883a 	mov	fp,sp
  return ((alt_errno) ? alt_errno() : &errno);
   4843c:	d0a00917 	ldw	r2,-32732(gp)
   48440:	10000326 	beq	r2,zero,48450 <alt_get_errno+0x24>
   48444:	d0a00917 	ldw	r2,-32732(gp)
   48448:	103ee83a 	callr	r2
   4844c:	00000106 	br	48454 <alt_get_errno+0x28>
   48450:	d0a6ac04 	addi	r2,gp,-25936
}
   48454:	e037883a 	mov	sp,fp
   48458:	dfc00117 	ldw	ra,4(sp)
   4845c:	df000017 	ldw	fp,0(sp)
   48460:	dec00204 	addi	sp,sp,8
   48464:	f800283a 	ret

00048468 <close>:
 *
 * ALT_CLOSE is mapped onto the close() system call in alt_syscall.h
 */
 
int ALT_CLOSE (int fildes)
{
   48468:	defffb04 	addi	sp,sp,-20
   4846c:	dfc00415 	stw	ra,16(sp)
   48470:	df000315 	stw	fp,12(sp)
   48474:	df000304 	addi	fp,sp,12
   48478:	e13fff15 	stw	r4,-4(fp)
   * A common error case is that when the file descriptor was created, the call
   * to open() failed resulting in a negative file descriptor. This is trapped
   * below so that we don't try and process an invalid file descriptor.
   */

  fd = (fildes < 0) ? NULL : &alt_fd_list[fildes];
   4847c:	e0bfff17 	ldw	r2,-4(fp)
   48480:	10000616 	blt	r2,zero,4849c <close+0x34>
   48484:	e0bfff17 	ldw	r2,-4(fp)
   48488:	10c00324 	muli	r3,r2,12
   4848c:	00800174 	movhi	r2,5
   48490:	10ae1204 	addi	r2,r2,-18360
   48494:	1885883a 	add	r2,r3,r2
   48498:	00000106 	br	484a0 <close+0x38>
   4849c:	0005883a 	mov	r2,zero
   484a0:	e0bffd15 	stw	r2,-12(fp)

  if (fd)
   484a4:	e0bffd17 	ldw	r2,-12(fp)
   484a8:	10001926 	beq	r2,zero,48510 <close+0xa8>
    /*
     * If the associated file system/device has a close function, call it so 
     * that any necessary cleanup code can run.
     */

    rval = (fd->dev->close) ? fd->dev->close(fd) : 0;
   484ac:	e0bffd17 	ldw	r2,-12(fp)
   484b0:	10800017 	ldw	r2,0(r2)
   484b4:	10800417 	ldw	r2,16(r2)
   484b8:	10000626 	beq	r2,zero,484d4 <close+0x6c>
   484bc:	e0bffd17 	ldw	r2,-12(fp)
   484c0:	10800017 	ldw	r2,0(r2)
   484c4:	10800417 	ldw	r2,16(r2)
   484c8:	e13ffd17 	ldw	r4,-12(fp)
   484cc:	103ee83a 	callr	r2
   484d0:	00000106 	br	484d8 <close+0x70>
   484d4:	0005883a 	mov	r2,zero
   484d8:	e0bffe15 	stw	r2,-8(fp)

    /* Free the file descriptor structure and return. */

    alt_release_fd (fildes);
   484dc:	e13fff17 	ldw	r4,-4(fp)
   484e0:	0048b280 	call	48b28 <alt_release_fd>
    if (rval < 0)
   484e4:	e0bffe17 	ldw	r2,-8(fp)
   484e8:	1000070e 	bge	r2,zero,48508 <close+0xa0>
    {
      ALT_ERRNO = -rval;
   484ec:	004842c0 	call	4842c <alt_get_errno>
   484f0:	1007883a 	mov	r3,r2
   484f4:	e0bffe17 	ldw	r2,-8(fp)
   484f8:	0085c83a 	sub	r2,zero,r2
   484fc:	18800015 	stw	r2,0(r3)
      return -1;
   48500:	00bfffc4 	movi	r2,-1
   48504:	00000706 	br	48524 <close+0xbc>
    }
    return 0;
   48508:	0005883a 	mov	r2,zero
   4850c:	00000506 	br	48524 <close+0xbc>
  }
  else
  {
    ALT_ERRNO = EBADFD;
   48510:	004842c0 	call	4842c <alt_get_errno>
   48514:	1007883a 	mov	r3,r2
   48518:	00801444 	movi	r2,81
   4851c:	18800015 	stw	r2,0(r3)
    return -1;
   48520:	00bfffc4 	movi	r2,-1
  }
}
   48524:	e037883a 	mov	sp,fp
   48528:	dfc00117 	ldw	ra,4(sp)
   4852c:	df000017 	ldw	fp,0(sp)
   48530:	dec00204 	addi	sp,sp,8
   48534:	f800283a 	ret

00048538 <alt_dev_null_write>:
 * by the alt_dev_null device. It simple discards all data passed to it, and
 * indicates that the data has been successfully transmitted.
 */

static int alt_dev_null_write (alt_fd* fd, const char* ptr, int len)
{
   48538:	defffc04 	addi	sp,sp,-16
   4853c:	df000315 	stw	fp,12(sp)
   48540:	df000304 	addi	fp,sp,12
   48544:	e13ffd15 	stw	r4,-12(fp)
   48548:	e17ffe15 	stw	r5,-8(fp)
   4854c:	e1bfff15 	stw	r6,-4(fp)
  return len;
   48550:	e0bfff17 	ldw	r2,-4(fp)
}
   48554:	e037883a 	mov	sp,fp
   48558:	df000017 	ldw	fp,0(sp)
   4855c:	dec00104 	addi	sp,sp,4
   48560:	f800283a 	ret

00048564 <alt_get_errno>:
#undef errno

extern int errno;

static ALT_INLINE int* alt_get_errno(void)
{
   48564:	defffe04 	addi	sp,sp,-8
   48568:	dfc00115 	stw	ra,4(sp)
   4856c:	df000015 	stw	fp,0(sp)
   48570:	d839883a 	mov	fp,sp
  return ((alt_errno) ? alt_errno() : &errno);
   48574:	d0a00917 	ldw	r2,-32732(gp)
   48578:	10000326 	beq	r2,zero,48588 <alt_get_errno+0x24>
   4857c:	d0a00917 	ldw	r2,-32732(gp)
   48580:	103ee83a 	callr	r2
   48584:	00000106 	br	4858c <alt_get_errno+0x28>
   48588:	d0a6ac04 	addi	r2,gp,-25936
}
   4858c:	e037883a 	mov	sp,fp
   48590:	dfc00117 	ldw	ra,4(sp)
   48594:	df000017 	ldw	fp,0(sp)
   48598:	dec00204 	addi	sp,sp,8
   4859c:	f800283a 	ret

000485a0 <fstat>:
}

#else /* !ALT_USE_DIRECT_DRIVERS */

int ALT_FSTAT (int file, struct stat *st)
{
   485a0:	defffb04 	addi	sp,sp,-20
   485a4:	dfc00415 	stw	ra,16(sp)
   485a8:	df000315 	stw	fp,12(sp)
   485ac:	df000304 	addi	fp,sp,12
   485b0:	e13ffe15 	stw	r4,-8(fp)
   485b4:	e17fff15 	stw	r5,-4(fp)
   * A common error case is that when the file descriptor was created, the call
   * to open() failed resulting in a negative file descriptor. This is trapped
   * below so that we don't try and process an invalid file descriptor.
   */

  fd = (file < 0) ? NULL : &alt_fd_list[file];
   485b8:	e0bffe17 	ldw	r2,-8(fp)
   485bc:	10000616 	blt	r2,zero,485d8 <fstat+0x38>
   485c0:	e0bffe17 	ldw	r2,-8(fp)
   485c4:	10c00324 	muli	r3,r2,12
   485c8:	00800174 	movhi	r2,5
   485cc:	10ae1204 	addi	r2,r2,-18360
   485d0:	1885883a 	add	r2,r3,r2
   485d4:	00000106 	br	485dc <fstat+0x3c>
   485d8:	0005883a 	mov	r2,zero
   485dc:	e0bffd15 	stw	r2,-12(fp)
  
  if (fd)
   485e0:	e0bffd17 	ldw	r2,-12(fp)
   485e4:	10001026 	beq	r2,zero,48628 <fstat+0x88>
  {
    /* Call the drivers fstat() function to fill out the "st" structure. */

    if (fd->dev->fstat)
   485e8:	e0bffd17 	ldw	r2,-12(fp)
   485ec:	10800017 	ldw	r2,0(r2)
   485f0:	10800817 	ldw	r2,32(r2)
   485f4:	10000726 	beq	r2,zero,48614 <fstat+0x74>
    {
      return fd->dev->fstat(fd, st);
   485f8:	e0bffd17 	ldw	r2,-12(fp)
   485fc:	10800017 	ldw	r2,0(r2)
   48600:	10800817 	ldw	r2,32(r2)
   48604:	e17fff17 	ldw	r5,-4(fp)
   48608:	e13ffd17 	ldw	r4,-12(fp)
   4860c:	103ee83a 	callr	r2
   48610:	00000a06 	br	4863c <fstat+0x9c>
     * device.
     */
 
    else
    {
      st->st_mode = _IFCHR;
   48614:	e0bfff17 	ldw	r2,-4(fp)
   48618:	00c80004 	movi	r3,8192
   4861c:	10c00115 	stw	r3,4(r2)
      return 0;
   48620:	0005883a 	mov	r2,zero
   48624:	00000506 	br	4863c <fstat+0x9c>
    }
  }
  else
  {
    ALT_ERRNO = EBADFD;
   48628:	00485640 	call	48564 <alt_get_errno>
   4862c:	1007883a 	mov	r3,r2
   48630:	00801444 	movi	r2,81
   48634:	18800015 	stw	r2,0(r3)
    return -1;
   48638:	00bfffc4 	movi	r2,-1
  }
}
   4863c:	e037883a 	mov	sp,fp
   48640:	dfc00117 	ldw	ra,4(sp)
   48644:	df000017 	ldw	fp,0(sp)
   48648:	dec00204 	addi	sp,sp,8
   4864c:	f800283a 	ret

00048650 <alt_get_errno>:
#undef errno

extern int errno;

static ALT_INLINE int* alt_get_errno(void)
{
   48650:	defffe04 	addi	sp,sp,-8
   48654:	dfc00115 	stw	ra,4(sp)
   48658:	df000015 	stw	fp,0(sp)
   4865c:	d839883a 	mov	fp,sp
  return ((alt_errno) ? alt_errno() : &errno);
   48660:	d0a00917 	ldw	r2,-32732(gp)
   48664:	10000326 	beq	r2,zero,48674 <alt_get_errno+0x24>
   48668:	d0a00917 	ldw	r2,-32732(gp)
   4866c:	103ee83a 	callr	r2
   48670:	00000106 	br	48678 <alt_get_errno+0x28>
   48674:	d0a6ac04 	addi	r2,gp,-25936
}
   48678:	e037883a 	mov	sp,fp
   4867c:	dfc00117 	ldw	ra,4(sp)
   48680:	df000017 	ldw	fp,0(sp)
   48684:	dec00204 	addi	sp,sp,8
   48688:	f800283a 	ret

0004868c <isatty>:
 *
 * ALT_ISATTY is mapped onto the isatty() system call in alt_syscall.h
 */
 
int ALT_ISATTY (int file)
{
   4868c:	deffed04 	addi	sp,sp,-76
   48690:	dfc01215 	stw	ra,72(sp)
   48694:	df001115 	stw	fp,68(sp)
   48698:	df001104 	addi	fp,sp,68
   4869c:	e13fff15 	stw	r4,-4(fp)
   * A common error case is that when the file descriptor was created, the call
   * to open() failed resulting in a negative file descriptor. This is trapped
   * below so that we don't try and process an invalid file descriptor.
   */

  fd = (file < 0) ? NULL : &alt_fd_list[file];
   486a0:	e0bfff17 	ldw	r2,-4(fp)
   486a4:	10000616 	blt	r2,zero,486c0 <isatty+0x34>
   486a8:	e0bfff17 	ldw	r2,-4(fp)
   486ac:	10c00324 	muli	r3,r2,12
   486b0:	00800174 	movhi	r2,5
   486b4:	10ae1204 	addi	r2,r2,-18360
   486b8:	1885883a 	add	r2,r3,r2
   486bc:	00000106 	br	486c4 <isatty+0x38>
   486c0:	0005883a 	mov	r2,zero
   486c4:	e0bfef15 	stw	r2,-68(fp)
  
  if (fd)
   486c8:	e0bfef17 	ldw	r2,-68(fp)
   486cc:	10000e26 	beq	r2,zero,48708 <isatty+0x7c>
    /*
     * If a device driver does not provide an fstat() function, then it is 
     * treated as a terminal device by default.
     */

    if (!fd->dev->fstat)
   486d0:	e0bfef17 	ldw	r2,-68(fp)
   486d4:	10800017 	ldw	r2,0(r2)
   486d8:	10800817 	ldw	r2,32(r2)
   486dc:	1000021e 	bne	r2,zero,486e8 <isatty+0x5c>
    {
      return 1;
   486e0:	00800044 	movi	r2,1
   486e4:	00000d06 	br	4871c <isatty+0x90>
     * this is called so that the device can identify itself.
     */ 

    else
    {
      fstat (file, &stat);
   486e8:	e0bff004 	addi	r2,fp,-64
   486ec:	100b883a 	mov	r5,r2
   486f0:	e13fff17 	ldw	r4,-4(fp)
   486f4:	00485a00 	call	485a0 <fstat>
      return (stat.st_mode == _IFCHR) ? 1 : 0;
   486f8:	e0bff117 	ldw	r2,-60(fp)
   486fc:	10880020 	cmpeqi	r2,r2,8192
   48700:	10803fcc 	andi	r2,r2,255
   48704:	00000506 	br	4871c <isatty+0x90>
    }
  }
  else
  {
    ALT_ERRNO = EBADFD;
   48708:	00486500 	call	48650 <alt_get_errno>
   4870c:	1007883a 	mov	r3,r2
   48710:	00801444 	movi	r2,81
   48714:	18800015 	stw	r2,0(r3)
    return 0;
   48718:	0005883a 	mov	r2,zero
  }
}
   4871c:	e037883a 	mov	sp,fp
   48720:	dfc00117 	ldw	ra,4(sp)
   48724:	df000017 	ldw	fp,0(sp)
   48728:	dec00204 	addi	sp,sp,8
   4872c:	f800283a 	ret

00048730 <alt_load_section>:
 */

static void ALT_INLINE alt_load_section (alt_u32* from, 
                                         alt_u32* to, 
                                         alt_u32* end)
{
   48730:	defffc04 	addi	sp,sp,-16
   48734:	df000315 	stw	fp,12(sp)
   48738:	df000304 	addi	fp,sp,12
   4873c:	e13ffd15 	stw	r4,-12(fp)
   48740:	e17ffe15 	stw	r5,-8(fp)
   48744:	e1bfff15 	stw	r6,-4(fp)
  if (to != from)
   48748:	e0fffe17 	ldw	r3,-8(fp)
   4874c:	e0bffd17 	ldw	r2,-12(fp)
   48750:	18800c26 	beq	r3,r2,48784 <alt_load_section+0x54>
  {
    while( to != end )
   48754:	00000806 	br	48778 <alt_load_section+0x48>
    {
      *to++ = *from++;
   48758:	e0bffe17 	ldw	r2,-8(fp)
   4875c:	10c00104 	addi	r3,r2,4
   48760:	e0fffe15 	stw	r3,-8(fp)
   48764:	e0fffd17 	ldw	r3,-12(fp)
   48768:	19000104 	addi	r4,r3,4
   4876c:	e13ffd15 	stw	r4,-12(fp)
   48770:	18c00017 	ldw	r3,0(r3)
   48774:	10c00015 	stw	r3,0(r2)
                                         alt_u32* to, 
                                         alt_u32* end)
{
  if (to != from)
  {
    while( to != end )
   48778:	e0fffe17 	ldw	r3,-8(fp)
   4877c:	e0bfff17 	ldw	r2,-4(fp)
   48780:	18bff51e 	bne	r3,r2,48758 <__alt_data_end+0xfffe1658>
    {
      *to++ = *from++;
    }
  }
}
   48784:	0001883a 	nop
   48788:	e037883a 	mov	sp,fp
   4878c:	df000017 	ldw	fp,0(sp)
   48790:	dec00104 	addi	sp,sp,4
   48794:	f800283a 	ret

00048798 <alt_load>:
 * there is no bootloader, so this application is responsible for loading to
 * RAM any sections that are required.
 */  

void alt_load (void)
{
   48798:	defffe04 	addi	sp,sp,-8
   4879c:	dfc00115 	stw	ra,4(sp)
   487a0:	df000015 	stw	fp,0(sp)
   487a4:	d839883a 	mov	fp,sp
  /* 
   * Copy the .rwdata section. 
   */

  alt_load_section (&__flash_rwdata_start, 
   487a8:	01800174 	movhi	r6,5
   487ac:	31b29804 	addi	r6,r6,-13728
   487b0:	01400174 	movhi	r5,5
   487b4:	296bfd04 	addi	r5,r5,-20492
   487b8:	01000174 	movhi	r4,5
   487bc:	21329804 	addi	r4,r4,-13728
   487c0:	00487300 	call	48730 <alt_load_section>

  /*
   * Copy the exception handler.
   */

  alt_load_section (&__flash_exceptions_start, 
   487c4:	01800134 	movhi	r6,4
   487c8:	31807004 	addi	r6,r6,448
   487cc:	01400134 	movhi	r5,4
   487d0:	29400804 	addi	r5,r5,32
   487d4:	01000134 	movhi	r4,4
   487d8:	21000804 	addi	r4,r4,32
   487dc:	00487300 	call	48730 <alt_load_section>

  /*
   * Copy the .rodata section.
   */

  alt_load_section (&__flash_rodata_start, 
   487e0:	01800174 	movhi	r6,5
   487e4:	31abfd04 	addi	r6,r6,-20492
   487e8:	01400174 	movhi	r5,5
   487ec:	296b3204 	addi	r5,r5,-21304
   487f0:	01000174 	movhi	r4,5
   487f4:	212b3204 	addi	r4,r4,-21304
   487f8:	00487300 	call	48730 <alt_load_section>
  
  /*
   * Now ensure that the caches are in synch.
   */
  
  alt_dcache_flush_all();
   487fc:	0049c500 	call	49c50 <alt_dcache_flush_all>
  alt_icache_flush_all();
   48800:	0049e380 	call	49e38 <alt_icache_flush_all>
}
   48804:	0001883a 	nop
   48808:	e037883a 	mov	sp,fp
   4880c:	dfc00117 	ldw	ra,4(sp)
   48810:	df000017 	ldw	fp,0(sp)
   48814:	dec00204 	addi	sp,sp,8
   48818:	f800283a 	ret

0004881c <alt_get_errno>:
#undef errno

extern int errno;

static ALT_INLINE int* alt_get_errno(void)
{
   4881c:	defffe04 	addi	sp,sp,-8
   48820:	dfc00115 	stw	ra,4(sp)
   48824:	df000015 	stw	fp,0(sp)
   48828:	d839883a 	mov	fp,sp
  return ((alt_errno) ? alt_errno() : &errno);
   4882c:	d0a00917 	ldw	r2,-32732(gp)
   48830:	10000326 	beq	r2,zero,48840 <alt_get_errno+0x24>
   48834:	d0a00917 	ldw	r2,-32732(gp)
   48838:	103ee83a 	callr	r2
   4883c:	00000106 	br	48844 <alt_get_errno+0x28>
   48840:	d0a6ac04 	addi	r2,gp,-25936
}
   48844:	e037883a 	mov	sp,fp
   48848:	dfc00117 	ldw	ra,4(sp)
   4884c:	df000017 	ldw	fp,0(sp)
   48850:	dec00204 	addi	sp,sp,8
   48854:	f800283a 	ret

00048858 <lseek>:
 * ALT_LSEEK is mapped onto the lseek() system call in alt_syscall.h
 *
 */

off_t ALT_LSEEK (int file, off_t ptr, int dir)
{
   48858:	defff904 	addi	sp,sp,-28
   4885c:	dfc00615 	stw	ra,24(sp)
   48860:	df000515 	stw	fp,20(sp)
   48864:	df000504 	addi	fp,sp,20
   48868:	e13ffd15 	stw	r4,-12(fp)
   4886c:	e17ffe15 	stw	r5,-8(fp)
   48870:	e1bfff15 	stw	r6,-4(fp)
  alt_fd* fd;
  off_t   rc = 0; 
   48874:	e03ffb15 	stw	zero,-20(fp)
   * A common error case is that when the file descriptor was created, the call
   * to open() failed resulting in a negative file descriptor. This is trapped
   * below so that we don't try and process an invalid file descriptor.
   */

  fd = (file < 0) ? NULL : &alt_fd_list[file];
   48878:	e0bffd17 	ldw	r2,-12(fp)
   4887c:	10000616 	blt	r2,zero,48898 <lseek+0x40>
   48880:	e0bffd17 	ldw	r2,-12(fp)
   48884:	10c00324 	muli	r3,r2,12
   48888:	00800174 	movhi	r2,5
   4888c:	10ae1204 	addi	r2,r2,-18360
   48890:	1885883a 	add	r2,r3,r2
   48894:	00000106 	br	4889c <lseek+0x44>
   48898:	0005883a 	mov	r2,zero
   4889c:	e0bffc15 	stw	r2,-16(fp)
  
  if (fd) 
   488a0:	e0bffc17 	ldw	r2,-16(fp)
   488a4:	10001026 	beq	r2,zero,488e8 <lseek+0x90>
    /*
     * If the device driver provides an implementation of the lseek() function,
     * then call that to process the request.
     */
 
    if (fd->dev->lseek)
   488a8:	e0bffc17 	ldw	r2,-16(fp)
   488ac:	10800017 	ldw	r2,0(r2)
   488b0:	10800717 	ldw	r2,28(r2)
   488b4:	10000926 	beq	r2,zero,488dc <lseek+0x84>
    {
      rc = fd->dev->lseek(fd, ptr, dir);
   488b8:	e0bffc17 	ldw	r2,-16(fp)
   488bc:	10800017 	ldw	r2,0(r2)
   488c0:	10800717 	ldw	r2,28(r2)
   488c4:	e1bfff17 	ldw	r6,-4(fp)
   488c8:	e17ffe17 	ldw	r5,-8(fp)
   488cc:	e13ffc17 	ldw	r4,-16(fp)
   488d0:	103ee83a 	callr	r2
   488d4:	e0bffb15 	stw	r2,-20(fp)
   488d8:	00000506 	br	488f0 <lseek+0x98>
     * Otherwise return an error.
     */

    else
    {
      rc = -ENOTSUP;
   488dc:	00bfde84 	movi	r2,-134
   488e0:	e0bffb15 	stw	r2,-20(fp)
   488e4:	00000206 	br	488f0 <lseek+0x98>
    }
  }
  else  
  {
    rc = -EBADFD;
   488e8:	00bfebc4 	movi	r2,-81
   488ec:	e0bffb15 	stw	r2,-20(fp)
  }

  if (rc < 0)
   488f0:	e0bffb17 	ldw	r2,-20(fp)
   488f4:	1000070e 	bge	r2,zero,48914 <lseek+0xbc>
  {
    ALT_ERRNO = -rc;
   488f8:	004881c0 	call	4881c <alt_get_errno>
   488fc:	1007883a 	mov	r3,r2
   48900:	e0bffb17 	ldw	r2,-20(fp)
   48904:	0085c83a 	sub	r2,zero,r2
   48908:	18800015 	stw	r2,0(r3)
    rc = -1;
   4890c:	00bfffc4 	movi	r2,-1
   48910:	e0bffb15 	stw	r2,-20(fp)
  }

  return rc;
   48914:	e0bffb17 	ldw	r2,-20(fp)
}
   48918:	e037883a 	mov	sp,fp
   4891c:	dfc00117 	ldw	ra,4(sp)
   48920:	df000017 	ldw	fp,0(sp)
   48924:	dec00204 	addi	sp,sp,8
   48928:	f800283a 	ret

0004892c <alt_main>:
 * devices/filesystems/components in the system; and call the entry point for
 * the users application, i.e. main().
 */

void alt_main (void)
{
   4892c:	defffd04 	addi	sp,sp,-12
   48930:	dfc00215 	stw	ra,8(sp)
   48934:	df000115 	stw	fp,4(sp)
   48938:	df000104 	addi	fp,sp,4
#endif

  /* ALT LOG - please see HAL/sys/alt_log_printf.h for details */
  ALT_LOG_PRINT_BOOT("[alt_main.c] Entering alt_main, calling alt_irq_init.\r\n");
  /* Initialize the interrupt controller. */
  alt_irq_init (NULL);
   4893c:	0009883a 	mov	r4,zero
   48940:	0048dd40 	call	48dd4 <alt_irq_init>

  /* Initialize the operating system */
  ALT_LOG_PRINT_BOOT("[alt_main.c] Done alt_irq_init, calling alt_os_init.\r\n");
  ALT_OS_INIT();
   48944:	0001883a 	nop
  ALT_LOG_PRINT_BOOT("[alt_main.c] Done OS Init, calling alt_sem_create.\r\n");
  ALT_SEM_CREATE (&alt_fd_list_lock, 1);

  /* Initialize the device drivers/software components. */
  ALT_LOG_PRINT_BOOT("[alt_main.c] Calling alt_sys_init.\r\n");
  alt_sys_init();
   48948:	0048e0c0 	call	48e0c <alt_sys_init>
   * devices be present (not equal to /dev/null) and if direct drivers
   * aren't being used.
   */

    ALT_LOG_PRINT_BOOT("[alt_main.c] Redirecting IO.\r\n");
    alt_io_redirect(ALT_STDOUT, ALT_STDIN, ALT_STDERR);
   4894c:	01800174 	movhi	r6,5
   48950:	31abf504 	addi	r6,r6,-20524
   48954:	01400174 	movhi	r5,5
   48958:	296bf504 	addi	r5,r5,-20524
   4895c:	01000174 	movhi	r4,5
   48960:	212bf504 	addi	r4,r4,-20524
   48964:	004a1d00 	call	4a1d0 <alt_io_redirect>
  /* 
   * Call the C++ constructors 
   */

  ALT_LOG_PRINT_BOOT("[alt_main.c] Calling C++ constructors.\r\n");
  _do_ctors ();
   48968:	0049d780 	call	49d78 <_do_ctors>
   * redefined as _exit()). This is in the interest of reducing code footprint,
   * in that the atexit() overhead is removed when it's not needed.
   */

  ALT_LOG_PRINT_BOOT("[alt_main.c] Calling atexit.\r\n");
  atexit (_do_dtors);
   4896c:	01000174 	movhi	r4,5
   48970:	21277604 	addi	r4,r4,-25128
   48974:	004a9340 	call	4a934 <atexit>
  ALT_LOG_PRINT_BOOT("[alt_main.c] Calling main.\r\n");

#ifdef ALT_NO_EXIT
  main (alt_argc, alt_argv, alt_envp);
#else
  result = main (alt_argc, alt_argv, alt_envp);
   48978:	d0a6ad17 	ldw	r2,-25932(gp)
   4897c:	d0e6ae17 	ldw	r3,-25928(gp)
   48980:	d126af17 	ldw	r4,-25924(gp)
   48984:	200d883a 	mov	r6,r4
   48988:	180b883a 	mov	r5,r3
   4898c:	1009883a 	mov	r4,r2
   48990:	004020c0 	call	4020c <main>
   48994:	e0bfff15 	stw	r2,-4(fp)
  close(STDOUT_FILENO);
   48998:	01000044 	movi	r4,1
   4899c:	00484680 	call	48468 <close>
  exit (result);
   489a0:	e13fff17 	ldw	r4,-4(fp)
   489a4:	004a9480 	call	4a948 <exit>

000489a8 <__malloc_lock>:
 * configuration is single threaded, so there is nothing to do here. Note that 
 * this requires that malloc is never called by an interrupt service routine.
 */

void __malloc_lock ( struct _reent *_r )
{
   489a8:	defffe04 	addi	sp,sp,-8
   489ac:	df000115 	stw	fp,4(sp)
   489b0:	df000104 	addi	fp,sp,4
   489b4:	e13fff15 	stw	r4,-4(fp)
}
   489b8:	0001883a 	nop
   489bc:	e037883a 	mov	sp,fp
   489c0:	df000017 	ldw	fp,0(sp)
   489c4:	dec00104 	addi	sp,sp,4
   489c8:	f800283a 	ret

000489cc <__malloc_unlock>:
/*
 *
 */

void __malloc_unlock ( struct _reent *_r )
{
   489cc:	defffe04 	addi	sp,sp,-8
   489d0:	df000115 	stw	fp,4(sp)
   489d4:	df000104 	addi	fp,sp,4
   489d8:	e13fff15 	stw	r4,-4(fp)
}
   489dc:	0001883a 	nop
   489e0:	e037883a 	mov	sp,fp
   489e4:	df000017 	ldw	fp,0(sp)
   489e8:	dec00104 	addi	sp,sp,4
   489ec:	f800283a 	ret

000489f0 <alt_get_errno>:
#undef errno

extern int errno;

static ALT_INLINE int* alt_get_errno(void)
{
   489f0:	defffe04 	addi	sp,sp,-8
   489f4:	dfc00115 	stw	ra,4(sp)
   489f8:	df000015 	stw	fp,0(sp)
   489fc:	d839883a 	mov	fp,sp
  return ((alt_errno) ? alt_errno() : &errno);
   48a00:	d0a00917 	ldw	r2,-32732(gp)
   48a04:	10000326 	beq	r2,zero,48a14 <alt_get_errno+0x24>
   48a08:	d0a00917 	ldw	r2,-32732(gp)
   48a0c:	103ee83a 	callr	r2
   48a10:	00000106 	br	48a18 <alt_get_errno+0x28>
   48a14:	d0a6ac04 	addi	r2,gp,-25936
}
   48a18:	e037883a 	mov	sp,fp
   48a1c:	dfc00117 	ldw	ra,4(sp)
   48a20:	df000017 	ldw	fp,0(sp)
   48a24:	dec00204 	addi	sp,sp,8
   48a28:	f800283a 	ret

00048a2c <read>:
}

#else /* !ALT_USE_DIRECT_DRIVERS */

int ALT_READ (int file, void *ptr, size_t len)
{
   48a2c:	defff904 	addi	sp,sp,-28
   48a30:	dfc00615 	stw	ra,24(sp)
   48a34:	df000515 	stw	fp,20(sp)
   48a38:	df000504 	addi	fp,sp,20
   48a3c:	e13ffd15 	stw	r4,-12(fp)
   48a40:	e17ffe15 	stw	r5,-8(fp)
   48a44:	e1bfff15 	stw	r6,-4(fp)
   * A common error case is that when the file descriptor was created, the call
   * to open() failed resulting in a negative file descriptor. This is trapped
   * below so that we don't try and process an invalid file descriptor.
   */

  fd = (file < 0) ? NULL : &alt_fd_list[file];
   48a48:	e0bffd17 	ldw	r2,-12(fp)
   48a4c:	10000616 	blt	r2,zero,48a68 <read+0x3c>
   48a50:	e0bffd17 	ldw	r2,-12(fp)
   48a54:	10c00324 	muli	r3,r2,12
   48a58:	00800174 	movhi	r2,5
   48a5c:	10ae1204 	addi	r2,r2,-18360
   48a60:	1885883a 	add	r2,r3,r2
   48a64:	00000106 	br	48a6c <read+0x40>
   48a68:	0005883a 	mov	r2,zero
   48a6c:	e0bffb15 	stw	r2,-20(fp)
  
  if (fd)
   48a70:	e0bffb17 	ldw	r2,-20(fp)
   48a74:	10002226 	beq	r2,zero,48b00 <read+0xd4>
     * If the file has not been opened with read access, or if the driver does
     * not provide an implementation of read(), generate an error. Otherwise
     * call the drivers read() function to process the request.
     */

    if (((fd->fd_flags & O_ACCMODE) != O_WRONLY) && 
   48a78:	e0bffb17 	ldw	r2,-20(fp)
   48a7c:	10800217 	ldw	r2,8(r2)
   48a80:	108000cc 	andi	r2,r2,3
   48a84:	10800060 	cmpeqi	r2,r2,1
   48a88:	1000181e 	bne	r2,zero,48aec <read+0xc0>
        (fd->dev->read))
   48a8c:	e0bffb17 	ldw	r2,-20(fp)
   48a90:	10800017 	ldw	r2,0(r2)
   48a94:	10800517 	ldw	r2,20(r2)
     * If the file has not been opened with read access, or if the driver does
     * not provide an implementation of read(), generate an error. Otherwise
     * call the drivers read() function to process the request.
     */

    if (((fd->fd_flags & O_ACCMODE) != O_WRONLY) && 
   48a98:	10001426 	beq	r2,zero,48aec <read+0xc0>
        (fd->dev->read))
      {
        if ((rval = fd->dev->read(fd, ptr, len)) < 0)
   48a9c:	e0bffb17 	ldw	r2,-20(fp)
   48aa0:	10800017 	ldw	r2,0(r2)
   48aa4:	10800517 	ldw	r2,20(r2)
   48aa8:	e0ffff17 	ldw	r3,-4(fp)
   48aac:	180d883a 	mov	r6,r3
   48ab0:	e17ffe17 	ldw	r5,-8(fp)
   48ab4:	e13ffb17 	ldw	r4,-20(fp)
   48ab8:	103ee83a 	callr	r2
   48abc:	e0bffc15 	stw	r2,-16(fp)
   48ac0:	e0bffc17 	ldw	r2,-16(fp)
   48ac4:	1000070e 	bge	r2,zero,48ae4 <read+0xb8>
        {
          ALT_ERRNO = -rval;
   48ac8:	00489f00 	call	489f0 <alt_get_errno>
   48acc:	1007883a 	mov	r3,r2
   48ad0:	e0bffc17 	ldw	r2,-16(fp)
   48ad4:	0085c83a 	sub	r2,zero,r2
   48ad8:	18800015 	stw	r2,0(r3)
          return -1;
   48adc:	00bfffc4 	movi	r2,-1
   48ae0:	00000c06 	br	48b14 <read+0xe8>
        }
        return rval;
   48ae4:	e0bffc17 	ldw	r2,-16(fp)
   48ae8:	00000a06 	br	48b14 <read+0xe8>
      }
      else
      {
        ALT_ERRNO = EACCES;
   48aec:	00489f00 	call	489f0 <alt_get_errno>
   48af0:	1007883a 	mov	r3,r2
   48af4:	00800344 	movi	r2,13
   48af8:	18800015 	stw	r2,0(r3)
   48afc:	00000406 	br	48b10 <read+0xe4>
      }
    }
  else
  {
    ALT_ERRNO = EBADFD;
   48b00:	00489f00 	call	489f0 <alt_get_errno>
   48b04:	1007883a 	mov	r3,r2
   48b08:	00801444 	movi	r2,81
   48b0c:	18800015 	stw	r2,0(r3)
  }
  return -1;
   48b10:	00bfffc4 	movi	r2,-1
}
   48b14:	e037883a 	mov	sp,fp
   48b18:	dfc00117 	ldw	ra,4(sp)
   48b1c:	df000017 	ldw	fp,0(sp)
   48b20:	dec00204 	addi	sp,sp,8
   48b24:	f800283a 	ret

00048b28 <alt_release_fd>:
 * File descriptors correcponding to standard in, standard out and standard 
 * error cannont be released backed to the pool. They are always reserved.
 */

void alt_release_fd (int fd)
{
   48b28:	defffe04 	addi	sp,sp,-8
   48b2c:	df000115 	stw	fp,4(sp)
   48b30:	df000104 	addi	fp,sp,4
   48b34:	e13fff15 	stw	r4,-4(fp)
  if (fd > 2)
   48b38:	e0bfff17 	ldw	r2,-4(fp)
   48b3c:	108000d0 	cmplti	r2,r2,3
   48b40:	10000d1e 	bne	r2,zero,48b78 <alt_release_fd+0x50>
  {
    alt_fd_list[fd].fd_flags = 0;
   48b44:	00800174 	movhi	r2,5
   48b48:	10ae1204 	addi	r2,r2,-18360
   48b4c:	e0ffff17 	ldw	r3,-4(fp)
   48b50:	18c00324 	muli	r3,r3,12
   48b54:	10c5883a 	add	r2,r2,r3
   48b58:	10800204 	addi	r2,r2,8
   48b5c:	10000015 	stw	zero,0(r2)
    alt_fd_list[fd].dev      = 0;
   48b60:	00800174 	movhi	r2,5
   48b64:	10ae1204 	addi	r2,r2,-18360
   48b68:	e0ffff17 	ldw	r3,-4(fp)
   48b6c:	18c00324 	muli	r3,r3,12
   48b70:	10c5883a 	add	r2,r2,r3
   48b74:	10000015 	stw	zero,0(r2)
  }
}
   48b78:	0001883a 	nop
   48b7c:	e037883a 	mov	sp,fp
   48b80:	df000017 	ldw	fp,0(sp)
   48b84:	dec00104 	addi	sp,sp,4
   48b88:	f800283a 	ret

00048b8c <sbrk>:
#endif
 
caddr_t ALT_SBRK (int incr) __attribute__ ((no_instrument_function ));

caddr_t ALT_SBRK (int incr)
{ 
   48b8c:	defff904 	addi	sp,sp,-28
   48b90:	df000615 	stw	fp,24(sp)
   48b94:	df000604 	addi	fp,sp,24
   48b98:	e13fff15 	stw	r4,-4(fp)
static ALT_INLINE alt_irq_context ALT_ALWAYS_INLINE 
       alt_irq_disable_all (void)
{
  alt_irq_context context;

  NIOS2_READ_STATUS (context);
   48b9c:	0005303a 	rdctl	r2,status
   48ba0:	e0bffe15 	stw	r2,-8(fp)

  NIOS2_WRITE_STATUS (context & ~NIOS2_STATUS_PIE_MSK);
   48ba4:	e0fffe17 	ldw	r3,-8(fp)
   48ba8:	00bfff84 	movi	r2,-2
   48bac:	1884703a 	and	r2,r3,r2
   48bb0:	1001703a 	wrctl	status,r2
  
  return context;
   48bb4:	e0bffe17 	ldw	r2,-8(fp)
  alt_irq_context context;
  char *prev_heap_end; 

  context = alt_irq_disable_all();
   48bb8:	e0bffb15 	stw	r2,-20(fp)

  /* Always return data aligned on a word boundary */
  heap_end = (char *)(((unsigned int)heap_end + 3) & ~3);
   48bbc:	d0a00a17 	ldw	r2,-32728(gp)
   48bc0:	10c000c4 	addi	r3,r2,3
   48bc4:	00bfff04 	movi	r2,-4
   48bc8:	1884703a 	and	r2,r3,r2
   48bcc:	d0a00a15 	stw	r2,-32728(gp)
  if (((heap_end + incr) - __alt_heap_start) > ALT_MAX_HEAP_BYTES) {
    alt_irq_enable_all(context);
    return (caddr_t)-1;
  }
#else
  if ((heap_end + incr) > __alt_heap_limit) {
   48bd0:	d0e00a17 	ldw	r3,-32728(gp)
   48bd4:	e0bfff17 	ldw	r2,-4(fp)
   48bd8:	1887883a 	add	r3,r3,r2
   48bdc:	008001b4 	movhi	r2,6
   48be0:	109c4004 	addi	r2,r2,28928
   48be4:	10c0062e 	bgeu	r2,r3,48c00 <sbrk+0x74>
   48be8:	e0bffb17 	ldw	r2,-20(fp)
   48bec:	e0bffa15 	stw	r2,-24(fp)
  status &= ~NIOS2_STATUS_PIE_MSK;
  status |= (context & NIOS2_STATUS_PIE_MSK);
  
  NIOS2_WRITE_STATUS (status);
#else
  NIOS2_WRITE_STATUS (context);
   48bf0:	e0bffa17 	ldw	r2,-24(fp)
   48bf4:	1001703a 	wrctl	status,r2
    alt_irq_enable_all(context);
    return (caddr_t)-1;
   48bf8:	00bfffc4 	movi	r2,-1
   48bfc:	00000b06 	br	48c2c <sbrk+0xa0>
  }
#endif

  prev_heap_end = heap_end; 
   48c00:	d0a00a17 	ldw	r2,-32728(gp)
   48c04:	e0bffd15 	stw	r2,-12(fp)
  heap_end += incr; 
   48c08:	d0e00a17 	ldw	r3,-32728(gp)
   48c0c:	e0bfff17 	ldw	r2,-4(fp)
   48c10:	1885883a 	add	r2,r3,r2
   48c14:	d0a00a15 	stw	r2,-32728(gp)
   48c18:	e0bffb17 	ldw	r2,-20(fp)
   48c1c:	e0bffc15 	stw	r2,-16(fp)
   48c20:	e0bffc17 	ldw	r2,-16(fp)
   48c24:	1001703a 	wrctl	status,r2

#endif

  alt_irq_enable_all(context);

  return (caddr_t) prev_heap_end; 
   48c28:	e0bffd17 	ldw	r2,-12(fp)
} 
   48c2c:	e037883a 	mov	sp,fp
   48c30:	df000017 	ldw	fp,0(sp)
   48c34:	dec00104 	addi	sp,sp,4
   48c38:	f800283a 	ret

00048c3c <usleep>:
#if defined (__GNUC__) && __GNUC__ >= 4
int ALT_USLEEP (useconds_t us)
#else
unsigned int ALT_USLEEP (unsigned int us)
#endif
{
   48c3c:	defffd04 	addi	sp,sp,-12
   48c40:	dfc00215 	stw	ra,8(sp)
   48c44:	df000115 	stw	fp,4(sp)
   48c48:	df000104 	addi	fp,sp,4
   48c4c:	e13fff15 	stw	r4,-4(fp)
  return alt_busy_sleep(us);
   48c50:	e13fff17 	ldw	r4,-4(fp)
   48c54:	0049af80 	call	49af8 <alt_busy_sleep>
}
   48c58:	e037883a 	mov	sp,fp
   48c5c:	dfc00117 	ldw	ra,4(sp)
   48c60:	df000017 	ldw	fp,0(sp)
   48c64:	dec00204 	addi	sp,sp,8
   48c68:	f800283a 	ret

00048c6c <alt_get_errno>:
#undef errno

extern int errno;

static ALT_INLINE int* alt_get_errno(void)
{
   48c6c:	defffe04 	addi	sp,sp,-8
   48c70:	dfc00115 	stw	ra,4(sp)
   48c74:	df000015 	stw	fp,0(sp)
   48c78:	d839883a 	mov	fp,sp
  return ((alt_errno) ? alt_errno() : &errno);
   48c7c:	d0a00917 	ldw	r2,-32732(gp)
   48c80:	10000326 	beq	r2,zero,48c90 <alt_get_errno+0x24>
   48c84:	d0a00917 	ldw	r2,-32732(gp)
   48c88:	103ee83a 	callr	r2
   48c8c:	00000106 	br	48c94 <alt_get_errno+0x28>
   48c90:	d0a6ac04 	addi	r2,gp,-25936
}
   48c94:	e037883a 	mov	sp,fp
   48c98:	dfc00117 	ldw	ra,4(sp)
   48c9c:	df000017 	ldw	fp,0(sp)
   48ca0:	dec00204 	addi	sp,sp,8
   48ca4:	f800283a 	ret

00048ca8 <write>:
}

#else /* !ALT_USE_DIRECT_DRIVERS */

int ALT_WRITE (int file, const void *ptr, size_t len)
{
   48ca8:	defff904 	addi	sp,sp,-28
   48cac:	dfc00615 	stw	ra,24(sp)
   48cb0:	df000515 	stw	fp,20(sp)
   48cb4:	df000504 	addi	fp,sp,20
   48cb8:	e13ffd15 	stw	r4,-12(fp)
   48cbc:	e17ffe15 	stw	r5,-8(fp)
   48cc0:	e1bfff15 	stw	r6,-4(fp)
   * A common error case is that when the file descriptor was created, the call
   * to open() failed resulting in a negative file descriptor. This is trapped
   * below so that we don't try and process an invalid file descriptor.
   */

  fd = (file < 0) ? NULL : &alt_fd_list[file];
   48cc4:	e0bffd17 	ldw	r2,-12(fp)
   48cc8:	10000616 	blt	r2,zero,48ce4 <write+0x3c>
   48ccc:	e0bffd17 	ldw	r2,-12(fp)
   48cd0:	10c00324 	muli	r3,r2,12
   48cd4:	00800174 	movhi	r2,5
   48cd8:	10ae1204 	addi	r2,r2,-18360
   48cdc:	1885883a 	add	r2,r3,r2
   48ce0:	00000106 	br	48ce8 <write+0x40>
   48ce4:	0005883a 	mov	r2,zero
   48ce8:	e0bffb15 	stw	r2,-20(fp)
  
  if (fd)
   48cec:	e0bffb17 	ldw	r2,-20(fp)
   48cf0:	10002126 	beq	r2,zero,48d78 <write+0xd0>
     * If the file has not been opened with write access, or if the driver does
     * not provide an implementation of write(), generate an error. Otherwise
     * call the drivers write() function to process the request.
     */

    if (((fd->fd_flags & O_ACCMODE) != O_RDONLY) && fd->dev->write)
   48cf4:	e0bffb17 	ldw	r2,-20(fp)
   48cf8:	10800217 	ldw	r2,8(r2)
   48cfc:	108000cc 	andi	r2,r2,3
   48d00:	10001826 	beq	r2,zero,48d64 <write+0xbc>
   48d04:	e0bffb17 	ldw	r2,-20(fp)
   48d08:	10800017 	ldw	r2,0(r2)
   48d0c:	10800617 	ldw	r2,24(r2)
   48d10:	10001426 	beq	r2,zero,48d64 <write+0xbc>
    {
      
      /* ALT_LOG - see altera_hal/HAL/inc/sys/alt_log_printf.h */
      ALT_LOG_WRITE_FUNCTION(ptr,len);

      if ((rval = fd->dev->write(fd, ptr, len)) < 0)
   48d14:	e0bffb17 	ldw	r2,-20(fp)
   48d18:	10800017 	ldw	r2,0(r2)
   48d1c:	10800617 	ldw	r2,24(r2)
   48d20:	e0ffff17 	ldw	r3,-4(fp)
   48d24:	180d883a 	mov	r6,r3
   48d28:	e17ffe17 	ldw	r5,-8(fp)
   48d2c:	e13ffb17 	ldw	r4,-20(fp)
   48d30:	103ee83a 	callr	r2
   48d34:	e0bffc15 	stw	r2,-16(fp)
   48d38:	e0bffc17 	ldw	r2,-16(fp)
   48d3c:	1000070e 	bge	r2,zero,48d5c <write+0xb4>
      {
        ALT_ERRNO = -rval;
   48d40:	0048c6c0 	call	48c6c <alt_get_errno>
   48d44:	1007883a 	mov	r3,r2
   48d48:	e0bffc17 	ldw	r2,-16(fp)
   48d4c:	0085c83a 	sub	r2,zero,r2
   48d50:	18800015 	stw	r2,0(r3)
        return -1;
   48d54:	00bfffc4 	movi	r2,-1
   48d58:	00000c06 	br	48d8c <write+0xe4>
      }
      return rval;
   48d5c:	e0bffc17 	ldw	r2,-16(fp)
   48d60:	00000a06 	br	48d8c <write+0xe4>
    }
    else
    {
      ALT_ERRNO = EACCES;
   48d64:	0048c6c0 	call	48c6c <alt_get_errno>
   48d68:	1007883a 	mov	r3,r2
   48d6c:	00800344 	movi	r2,13
   48d70:	18800015 	stw	r2,0(r3)
   48d74:	00000406 	br	48d88 <write+0xe0>
    }
  }
  else  
  {
    ALT_ERRNO = EBADFD;
   48d78:	0048c6c0 	call	48c6c <alt_get_errno>
   48d7c:	1007883a 	mov	r3,r2
   48d80:	00801444 	movi	r2,81
   48d84:	18800015 	stw	r2,0(r3)
  }
  return -1;
   48d88:	00bfffc4 	movi	r2,-1
}
   48d8c:	e037883a 	mov	sp,fp
   48d90:	dfc00117 	ldw	ra,4(sp)
   48d94:	df000017 	ldw	fp,0(sp)
   48d98:	dec00204 	addi	sp,sp,8
   48d9c:	f800283a 	ret

00048da0 <alt_dev_reg>:
 */

extern int alt_fs_reg  (alt_dev* dev); 

static ALT_INLINE int alt_dev_reg (alt_dev* dev)
{
   48da0:	defffd04 	addi	sp,sp,-12
   48da4:	dfc00215 	stw	ra,8(sp)
   48da8:	df000115 	stw	fp,4(sp)
   48dac:	df000104 	addi	fp,sp,4
   48db0:	e13fff15 	stw	r4,-4(fp)
  extern alt_llist alt_dev_list;

  return alt_dev_llist_insert ((alt_dev_llist*) dev, &alt_dev_list);
   48db4:	d1600604 	addi	r5,gp,-32744
   48db8:	e13fff17 	ldw	r4,-4(fp)
   48dbc:	0049cd40 	call	49cd4 <alt_dev_llist_insert>
}
   48dc0:	e037883a 	mov	sp,fp
   48dc4:	dfc00117 	ldw	ra,4(sp)
   48dc8:	df000017 	ldw	fp,0(sp)
   48dcc:	dec00204 	addi	sp,sp,8
   48dd0:	f800283a 	ret

00048dd4 <alt_irq_init>:
 * The "base" parameter is ignored and only
 * present for backwards-compatibility.
 */

void alt_irq_init ( const void* base )
{
   48dd4:	defffd04 	addi	sp,sp,-12
   48dd8:	dfc00215 	stw	ra,8(sp)
   48ddc:	df000115 	stw	fp,4(sp)
   48de0:	df000104 	addi	fp,sp,4
   48de4:	e13fff15 	stw	r4,-4(fp)
    ALTERA_NIOS2_QSYS_IRQ_INIT ( NIOS2_QSYS, nios2_qsys);
   48de8:	004a6440 	call	4a644 <altera_nios2_qsys_irq_init>
 * alt_irq_cpu_enable_interrupts() enables the CPU to start taking interrupts.
 */
static ALT_INLINE void ALT_ALWAYS_INLINE 
       alt_irq_cpu_enable_interrupts (void)
{
    NIOS2_WRITE_STATUS(NIOS2_STATUS_PIE_MSK
   48dec:	00800044 	movi	r2,1
   48df0:	1001703a 	wrctl	status,r2
    alt_irq_cpu_enable_interrupts();
}
   48df4:	0001883a 	nop
   48df8:	e037883a 	mov	sp,fp
   48dfc:	dfc00117 	ldw	ra,4(sp)
   48e00:	df000017 	ldw	fp,0(sp)
   48e04:	dec00204 	addi	sp,sp,8
   48e08:	f800283a 	ret

00048e0c <alt_sys_init>:
 * Initialize the non-interrupt controller devices.
 * Called after alt_irq_init().
 */

void alt_sys_init( void )
{
   48e0c:	defffe04 	addi	sp,sp,-8
   48e10:	dfc00115 	stw	ra,4(sp)
   48e14:	df000015 	stw	fp,0(sp)
   48e18:	d839883a 	mov	fp,sp
    ALTERA_AVALON_TIMER_INIT ( INTERVAL_TIMER, Interval_timer);
   48e1c:	01c0fa04 	movi	r7,1000
   48e20:	01800084 	movi	r6,2
   48e24:	000b883a 	mov	r5,zero
   48e28:	01000234 	movhi	r4,8
   48e2c:	21041004 	addi	r4,r4,4160
   48e30:	00499500 	call	49950 <alt_avalon_timer_sc_init>
    ALTERA_AVALON_JTAG_UART_INIT ( JTAG_UART, jtag_uart);
   48e34:	000d883a 	mov	r6,zero
   48e38:	000b883a 	mov	r5,zero
   48e3c:	01000174 	movhi	r4,5
   48e40:	212e7c04 	addi	r4,r4,-17936
   48e44:	0048fd40 	call	48fd4 <altera_avalon_jtag_uart_init>
   48e48:	01000174 	movhi	r4,5
   48e4c:	212e7204 	addi	r4,r4,-17976
   48e50:	0048da00 	call	48da0 <alt_dev_reg>
    ALTERA_AVALON_SYSID_QSYS_INIT ( SYSID_QSYS, sysid_qsys);
   48e54:	0001883a 	nop
}
   48e58:	0001883a 	nop
   48e5c:	e037883a 	mov	sp,fp
   48e60:	dfc00117 	ldw	ra,4(sp)
   48e64:	df000017 	ldw	fp,0(sp)
   48e68:	dec00204 	addi	sp,sp,8
   48e6c:	f800283a 	ret

00048e70 <altera_avalon_jtag_uart_read_fd>:
 *
 */

int 
altera_avalon_jtag_uart_read_fd(alt_fd* fd, char* buffer, int space)
{
   48e70:	defffa04 	addi	sp,sp,-24
   48e74:	dfc00515 	stw	ra,20(sp)
   48e78:	df000415 	stw	fp,16(sp)
   48e7c:	df000404 	addi	fp,sp,16
   48e80:	e13ffd15 	stw	r4,-12(fp)
   48e84:	e17ffe15 	stw	r5,-8(fp)
   48e88:	e1bfff15 	stw	r6,-4(fp)
    altera_avalon_jtag_uart_dev* dev = (altera_avalon_jtag_uart_dev*) fd->dev; 
   48e8c:	e0bffd17 	ldw	r2,-12(fp)
   48e90:	10800017 	ldw	r2,0(r2)
   48e94:	e0bffc15 	stw	r2,-16(fp)

    return altera_avalon_jtag_uart_read(&dev->state, buffer, space,
   48e98:	e0bffc17 	ldw	r2,-16(fp)
   48e9c:	10c00a04 	addi	r3,r2,40
   48ea0:	e0bffd17 	ldw	r2,-12(fp)
   48ea4:	10800217 	ldw	r2,8(r2)
   48ea8:	100f883a 	mov	r7,r2
   48eac:	e1bfff17 	ldw	r6,-4(fp)
   48eb0:	e17ffe17 	ldw	r5,-8(fp)
   48eb4:	1809883a 	mov	r4,r3
   48eb8:	00494980 	call	49498 <altera_avalon_jtag_uart_read>
      fd->fd_flags);
}
   48ebc:	e037883a 	mov	sp,fp
   48ec0:	dfc00117 	ldw	ra,4(sp)
   48ec4:	df000017 	ldw	fp,0(sp)
   48ec8:	dec00204 	addi	sp,sp,8
   48ecc:	f800283a 	ret

00048ed0 <altera_avalon_jtag_uart_write_fd>:

int 
altera_avalon_jtag_uart_write_fd(alt_fd* fd, const char* buffer, int space)
{
   48ed0:	defffa04 	addi	sp,sp,-24
   48ed4:	dfc00515 	stw	ra,20(sp)
   48ed8:	df000415 	stw	fp,16(sp)
   48edc:	df000404 	addi	fp,sp,16
   48ee0:	e13ffd15 	stw	r4,-12(fp)
   48ee4:	e17ffe15 	stw	r5,-8(fp)
   48ee8:	e1bfff15 	stw	r6,-4(fp)
    altera_avalon_jtag_uart_dev* dev = (altera_avalon_jtag_uart_dev*) fd->dev; 
   48eec:	e0bffd17 	ldw	r2,-12(fp)
   48ef0:	10800017 	ldw	r2,0(r2)
   48ef4:	e0bffc15 	stw	r2,-16(fp)

    return altera_avalon_jtag_uart_write(&dev->state, buffer, space,
   48ef8:	e0bffc17 	ldw	r2,-16(fp)
   48efc:	10c00a04 	addi	r3,r2,40
   48f00:	e0bffd17 	ldw	r2,-12(fp)
   48f04:	10800217 	ldw	r2,8(r2)
   48f08:	100f883a 	mov	r7,r2
   48f0c:	e1bfff17 	ldw	r6,-4(fp)
   48f10:	e17ffe17 	ldw	r5,-8(fp)
   48f14:	1809883a 	mov	r4,r3
   48f18:	00496b40 	call	496b4 <altera_avalon_jtag_uart_write>
      fd->fd_flags);
}
   48f1c:	e037883a 	mov	sp,fp
   48f20:	dfc00117 	ldw	ra,4(sp)
   48f24:	df000017 	ldw	fp,0(sp)
   48f28:	dec00204 	addi	sp,sp,8
   48f2c:	f800283a 	ret

00048f30 <altera_avalon_jtag_uart_close_fd>:

#ifndef ALTERA_AVALON_JTAG_UART_SMALL

int 
altera_avalon_jtag_uart_close_fd(alt_fd* fd)
{
   48f30:	defffc04 	addi	sp,sp,-16
   48f34:	dfc00315 	stw	ra,12(sp)
   48f38:	df000215 	stw	fp,8(sp)
   48f3c:	df000204 	addi	fp,sp,8
   48f40:	e13fff15 	stw	r4,-4(fp)
    altera_avalon_jtag_uart_dev* dev = (altera_avalon_jtag_uart_dev*) fd->dev; 
   48f44:	e0bfff17 	ldw	r2,-4(fp)
   48f48:	10800017 	ldw	r2,0(r2)
   48f4c:	e0bffe15 	stw	r2,-8(fp)

    return altera_avalon_jtag_uart_close(&dev->state, fd->fd_flags);
   48f50:	e0bffe17 	ldw	r2,-8(fp)
   48f54:	10c00a04 	addi	r3,r2,40
   48f58:	e0bfff17 	ldw	r2,-4(fp)
   48f5c:	10800217 	ldw	r2,8(r2)
   48f60:	100b883a 	mov	r5,r2
   48f64:	1809883a 	mov	r4,r3
   48f68:	00493400 	call	49340 <altera_avalon_jtag_uart_close>
}
   48f6c:	e037883a 	mov	sp,fp
   48f70:	dfc00117 	ldw	ra,4(sp)
   48f74:	df000017 	ldw	fp,0(sp)
   48f78:	dec00204 	addi	sp,sp,8
   48f7c:	f800283a 	ret

00048f80 <altera_avalon_jtag_uart_ioctl_fd>:

int 
altera_avalon_jtag_uart_ioctl_fd(alt_fd* fd, int req, void* arg)
{
   48f80:	defffa04 	addi	sp,sp,-24
   48f84:	dfc00515 	stw	ra,20(sp)
   48f88:	df000415 	stw	fp,16(sp)
   48f8c:	df000404 	addi	fp,sp,16
   48f90:	e13ffd15 	stw	r4,-12(fp)
   48f94:	e17ffe15 	stw	r5,-8(fp)
   48f98:	e1bfff15 	stw	r6,-4(fp)
    altera_avalon_jtag_uart_dev* dev = (altera_avalon_jtag_uart_dev*) fd->dev;
   48f9c:	e0bffd17 	ldw	r2,-12(fp)
   48fa0:	10800017 	ldw	r2,0(r2)
   48fa4:	e0bffc15 	stw	r2,-16(fp)

    return altera_avalon_jtag_uart_ioctl(&dev->state, req, arg);
   48fa8:	e0bffc17 	ldw	r2,-16(fp)
   48fac:	10800a04 	addi	r2,r2,40
   48fb0:	e1bfff17 	ldw	r6,-4(fp)
   48fb4:	e17ffe17 	ldw	r5,-8(fp)
   48fb8:	1009883a 	mov	r4,r2
   48fbc:	00493a80 	call	493a8 <altera_avalon_jtag_uart_ioctl>
}
   48fc0:	e037883a 	mov	sp,fp
   48fc4:	dfc00117 	ldw	ra,4(sp)
   48fc8:	df000017 	ldw	fp,0(sp)
   48fcc:	dec00204 	addi	sp,sp,8
   48fd0:	f800283a 	ret

00048fd4 <altera_avalon_jtag_uart_init>:
 * Return 1 on sucessful IRQ register and 0 on failure.
 */

void altera_avalon_jtag_uart_init(altera_avalon_jtag_uart_state* sp, 
                                  int irq_controller_id, int irq)
{
   48fd4:	defffa04 	addi	sp,sp,-24
   48fd8:	dfc00515 	stw	ra,20(sp)
   48fdc:	df000415 	stw	fp,16(sp)
   48fe0:	df000404 	addi	fp,sp,16
   48fe4:	e13ffd15 	stw	r4,-12(fp)
   48fe8:	e17ffe15 	stw	r5,-8(fp)
   48fec:	e1bfff15 	stw	r6,-4(fp)
  ALT_FLAG_CREATE(&sp->events, 0);
  ALT_SEM_CREATE(&sp->read_lock, 1);
  ALT_SEM_CREATE(&sp->write_lock, 1);

  /* enable read interrupts at the device */
  sp->irq_enable = ALTERA_AVALON_JTAG_UART_CONTROL_RE_MSK;
   48ff0:	e0bffd17 	ldw	r2,-12(fp)
   48ff4:	00c00044 	movi	r3,1
   48ff8:	10c00815 	stw	r3,32(r2)

  IOWR_ALTERA_AVALON_JTAG_UART_CONTROL(sp->base, sp->irq_enable); 
   48ffc:	e0bffd17 	ldw	r2,-12(fp)
   49000:	10800017 	ldw	r2,0(r2)
   49004:	10800104 	addi	r2,r2,4
   49008:	1007883a 	mov	r3,r2
   4900c:	e0bffd17 	ldw	r2,-12(fp)
   49010:	10800817 	ldw	r2,32(r2)
   49014:	18800035 	stwio	r2,0(r3)
  
  /* register the interrupt handler */
#ifdef ALT_ENHANCED_INTERRUPT_API_PRESENT
  alt_ic_isr_register(irq_controller_id, irq, altera_avalon_jtag_uart_irq, 
   49018:	e0bffe17 	ldw	r2,-8(fp)
   4901c:	e0ffff17 	ldw	r3,-4(fp)
   49020:	d8000015 	stw	zero,0(sp)
   49024:	e1fffd17 	ldw	r7,-12(fp)
   49028:	01800174 	movhi	r6,5
   4902c:	31a42504 	addi	r6,r6,-28524
   49030:	180b883a 	mov	r5,r3
   49034:	1009883a 	mov	r4,r2
   49038:	0049e6c0 	call	49e6c <alt_ic_isr_register>
#else
  alt_irq_register(irq, sp, altera_avalon_jtag_uart_irq);
#endif  

  /* Register an alarm to go off every second to check for presence of host */
  sp->host_inactive = 0;
   4903c:	e0bffd17 	ldw	r2,-12(fp)
   49040:	10000915 	stw	zero,36(r2)

  if (alt_alarm_start(&sp->alarm, alt_ticks_per_second(), 
   49044:	e0bffd17 	ldw	r2,-12(fp)
   49048:	10800204 	addi	r2,r2,8
 * Obtain the system clock rate in ticks/s. 
 */

static ALT_INLINE alt_u32 ALT_ALWAYS_INLINE alt_ticks_per_second (void)
{
  return _alt_tick_rate;
   4904c:	d0e6b117 	ldw	r3,-25916(gp)
   49050:	e1fffd17 	ldw	r7,-12(fp)
   49054:	01800174 	movhi	r6,5
   49058:	31a4a804 	addi	r6,r6,-28000
   4905c:	180b883a 	mov	r5,r3
   49060:	1009883a 	mov	r4,r2
   49064:	00499cc0 	call	499cc <alt_alarm_start>
   49068:	1000040e 	bge	r2,zero,4907c <altera_avalon_jtag_uart_init+0xa8>
    &altera_avalon_jtag_uart_timeout, sp) < 0)
  {
    /* If we can't set the alarm then record "don't know if host present" 
     * and behave as though the host is present.
     */
    sp->timeout = INT_MAX;
   4906c:	e0fffd17 	ldw	r3,-12(fp)
   49070:	00a00034 	movhi	r2,32768
   49074:	10bfffc4 	addi	r2,r2,-1
   49078:	18800115 	stw	r2,4(r3)
  }

  /* ALT_LOG - see altera_hal/HAL/inc/sys/alt_log_printf.h */ 
  ALT_LOG_JTAG_UART_ALARM_REGISTER(sp, sp->base);
}
   4907c:	0001883a 	nop
   49080:	e037883a 	mov	sp,fp
   49084:	dfc00117 	ldw	ra,4(sp)
   49088:	df000017 	ldw	fp,0(sp)
   4908c:	dec00204 	addi	sp,sp,8
   49090:	f800283a 	ret

00049094 <altera_avalon_jtag_uart_irq>:
#ifdef ALT_ENHANCED_INTERRUPT_API_PRESENT
static void altera_avalon_jtag_uart_irq(void* context)
#else
static void altera_avalon_jtag_uart_irq(void* context, alt_u32 id)
#endif
{
   49094:	defff804 	addi	sp,sp,-32
   49098:	df000715 	stw	fp,28(sp)
   4909c:	df000704 	addi	fp,sp,28
   490a0:	e13fff15 	stw	r4,-4(fp)
  altera_avalon_jtag_uart_state* sp = (altera_avalon_jtag_uart_state*) context;
   490a4:	e0bfff17 	ldw	r2,-4(fp)
   490a8:	e0bffb15 	stw	r2,-20(fp)
  unsigned int base = sp->base;
   490ac:	e0bffb17 	ldw	r2,-20(fp)
   490b0:	10800017 	ldw	r2,0(r2)
   490b4:	e0bffc15 	stw	r2,-16(fp)
  /* ALT_LOG - see altera_hal/HAL/inc/sys/alt_log_printf.h */ 
  ALT_LOG_JTAG_UART_ISR_FUNCTION(base, sp);

  for ( ; ; )
  {
    unsigned int control = IORD_ALTERA_AVALON_JTAG_UART_CONTROL(base);
   490b8:	e0bffc17 	ldw	r2,-16(fp)
   490bc:	10800104 	addi	r2,r2,4
   490c0:	10800037 	ldwio	r2,0(r2)
   490c4:	e0bffd15 	stw	r2,-12(fp)

    /* Return once nothing more to do */
    if ((control & (ALTERA_AVALON_JTAG_UART_CONTROL_RI_MSK | ALTERA_AVALON_JTAG_UART_CONTROL_WI_MSK)) == 0)
   490c8:	e0bffd17 	ldw	r2,-12(fp)
   490cc:	1080c00c 	andi	r2,r2,768
   490d0:	10006d26 	beq	r2,zero,49288 <altera_avalon_jtag_uart_irq+0x1f4>
      break;

    if (control & ALTERA_AVALON_JTAG_UART_CONTROL_RI_MSK)
   490d4:	e0bffd17 	ldw	r2,-12(fp)
   490d8:	1080400c 	andi	r2,r2,256
   490dc:	10003526 	beq	r2,zero,491b4 <altera_avalon_jtag_uart_irq+0x120>
    {
      /* process a read irq.  Start by assuming that there is data in the
       * receive FIFO (otherwise why would we have been interrupted?)
       */
      unsigned int data = 1 << ALTERA_AVALON_JTAG_UART_DATA_RAVAIL_OFST;
   490e0:	00800074 	movhi	r2,1
   490e4:	e0bff915 	stw	r2,-28(fp)
      for ( ; ; )
      {
        /* Check whether there is space in the buffer.  If not then we must not
         * read any characters from the buffer as they will be lost.
         */
        unsigned int next = (sp->rx_in + 1) % ALTERA_AVALON_JTAG_UART_BUF_LEN;
   490e8:	e0bffb17 	ldw	r2,-20(fp)
   490ec:	10800a17 	ldw	r2,40(r2)
   490f0:	10800044 	addi	r2,r2,1
   490f4:	1081ffcc 	andi	r2,r2,2047
   490f8:	e0bffe15 	stw	r2,-8(fp)
        if (next == sp->rx_out)
   490fc:	e0bffb17 	ldw	r2,-20(fp)
   49100:	10c00b17 	ldw	r3,44(r2)
   49104:	e0bffe17 	ldw	r2,-8(fp)
   49108:	18801526 	beq	r3,r2,49160 <altera_avalon_jtag_uart_irq+0xcc>
          break;

        /* Try to remove a character from the FIFO and find out whether there
         * are any more characters remaining.
         */
        data = IORD_ALTERA_AVALON_JTAG_UART_DATA(base);
   4910c:	e0bffc17 	ldw	r2,-16(fp)
   49110:	10800037 	ldwio	r2,0(r2)
   49114:	e0bff915 	stw	r2,-28(fp)
        
        if ((data & ALTERA_AVALON_JTAG_UART_DATA_RVALID_MSK) == 0)
   49118:	e0bff917 	ldw	r2,-28(fp)
   4911c:	10a0000c 	andi	r2,r2,32768
   49120:	10001126 	beq	r2,zero,49168 <altera_avalon_jtag_uart_irq+0xd4>
          break;

        sp->rx_buf[sp->rx_in] = (data & ALTERA_AVALON_JTAG_UART_DATA_DATA_MSK) >> ALTERA_AVALON_JTAG_UART_DATA_DATA_OFST;
   49124:	e0bffb17 	ldw	r2,-20(fp)
   49128:	10800a17 	ldw	r2,40(r2)
   4912c:	e0fff917 	ldw	r3,-28(fp)
   49130:	1809883a 	mov	r4,r3
   49134:	e0fffb17 	ldw	r3,-20(fp)
   49138:	1885883a 	add	r2,r3,r2
   4913c:	10800e04 	addi	r2,r2,56
   49140:	11000005 	stb	r4,0(r2)
        sp->rx_in = (sp->rx_in + 1) % ALTERA_AVALON_JTAG_UART_BUF_LEN;
   49144:	e0bffb17 	ldw	r2,-20(fp)
   49148:	10800a17 	ldw	r2,40(r2)
   4914c:	10800044 	addi	r2,r2,1
   49150:	10c1ffcc 	andi	r3,r2,2047
   49154:	e0bffb17 	ldw	r2,-20(fp)
   49158:	10c00a15 	stw	r3,40(r2)

        /* Post an event to notify jtag_uart_read that a character has been read */
        ALT_FLAG_POST (sp->events, ALT_JTAG_UART_READ_RDY, OS_FLAG_SET);
      }
   4915c:	003fe206 	br	490e8 <__alt_data_end+0xfffe1fe8>
        /* Check whether there is space in the buffer.  If not then we must not
         * read any characters from the buffer as they will be lost.
         */
        unsigned int next = (sp->rx_in + 1) % ALTERA_AVALON_JTAG_UART_BUF_LEN;
        if (next == sp->rx_out)
          break;
   49160:	0001883a 	nop
   49164:	00000106 	br	4916c <altera_avalon_jtag_uart_irq+0xd8>
         * are any more characters remaining.
         */
        data = IORD_ALTERA_AVALON_JTAG_UART_DATA(base);
        
        if ((data & ALTERA_AVALON_JTAG_UART_DATA_RVALID_MSK) == 0)
          break;
   49168:	0001883a 	nop

        /* Post an event to notify jtag_uart_read that a character has been read */
        ALT_FLAG_POST (sp->events, ALT_JTAG_UART_READ_RDY, OS_FLAG_SET);
      }

      if (data & ALTERA_AVALON_JTAG_UART_DATA_RAVAIL_MSK)
   4916c:	e0bff917 	ldw	r2,-28(fp)
   49170:	10bfffec 	andhi	r2,r2,65535
   49174:	10000f26 	beq	r2,zero,491b4 <altera_avalon_jtag_uart_irq+0x120>
      {
        /* If there is still data available here then the buffer is full 
         * so turn off receive interrupts until some space becomes available.
         */
        sp->irq_enable &= ~ALTERA_AVALON_JTAG_UART_CONTROL_RE_MSK;
   49178:	e0bffb17 	ldw	r2,-20(fp)
   4917c:	10c00817 	ldw	r3,32(r2)
   49180:	00bfff84 	movi	r2,-2
   49184:	1886703a 	and	r3,r3,r2
   49188:	e0bffb17 	ldw	r2,-20(fp)
   4918c:	10c00815 	stw	r3,32(r2)
        IOWR_ALTERA_AVALON_JTAG_UART_CONTROL(base, sp->irq_enable);
   49190:	e0bffc17 	ldw	r2,-16(fp)
   49194:	10800104 	addi	r2,r2,4
   49198:	1007883a 	mov	r3,r2
   4919c:	e0bffb17 	ldw	r2,-20(fp)
   491a0:	10800817 	ldw	r2,32(r2)
   491a4:	18800035 	stwio	r2,0(r3)
        
        /* Dummy read to ensure IRQ is cleared prior to ISR completion */
        IORD_ALTERA_AVALON_JTAG_UART_CONTROL(base);
   491a8:	e0bffc17 	ldw	r2,-16(fp)
   491ac:	10800104 	addi	r2,r2,4
   491b0:	10800037 	ldwio	r2,0(r2)
      }
    }

    if (control & ALTERA_AVALON_JTAG_UART_CONTROL_WI_MSK)
   491b4:	e0bffd17 	ldw	r2,-12(fp)
   491b8:	1080800c 	andi	r2,r2,512
   491bc:	103fbe26 	beq	r2,zero,490b8 <__alt_data_end+0xfffe1fb8>
    {
      /* process a write irq */
      unsigned int space = (control & ALTERA_AVALON_JTAG_UART_CONTROL_WSPACE_MSK) >> ALTERA_AVALON_JTAG_UART_CONTROL_WSPACE_OFST;
   491c0:	e0bffd17 	ldw	r2,-12(fp)
   491c4:	1004d43a 	srli	r2,r2,16
   491c8:	e0bffa15 	stw	r2,-24(fp)

      while (space > 0 && sp->tx_out != sp->tx_in)
   491cc:	00001406 	br	49220 <altera_avalon_jtag_uart_irq+0x18c>
      {
        IOWR_ALTERA_AVALON_JTAG_UART_DATA(base, sp->tx_buf[sp->tx_out]);
   491d0:	e0bffc17 	ldw	r2,-16(fp)
   491d4:	e0fffb17 	ldw	r3,-20(fp)
   491d8:	18c00d17 	ldw	r3,52(r3)
   491dc:	e13ffb17 	ldw	r4,-20(fp)
   491e0:	20c7883a 	add	r3,r4,r3
   491e4:	18c20e04 	addi	r3,r3,2104
   491e8:	18c00003 	ldbu	r3,0(r3)
   491ec:	18c03fcc 	andi	r3,r3,255
   491f0:	18c0201c 	xori	r3,r3,128
   491f4:	18ffe004 	addi	r3,r3,-128
   491f8:	10c00035 	stwio	r3,0(r2)

        sp->tx_out = (sp->tx_out + 1) % ALTERA_AVALON_JTAG_UART_BUF_LEN;
   491fc:	e0bffb17 	ldw	r2,-20(fp)
   49200:	10800d17 	ldw	r2,52(r2)
   49204:	10800044 	addi	r2,r2,1
   49208:	10c1ffcc 	andi	r3,r2,2047
   4920c:	e0bffb17 	ldw	r2,-20(fp)
   49210:	10c00d15 	stw	r3,52(r2)

        /* Post an event to notify jtag_uart_write that a character has been written */
        ALT_FLAG_POST (sp->events, ALT_JTAG_UART_WRITE_RDY, OS_FLAG_SET);

        space--;
   49214:	e0bffa17 	ldw	r2,-24(fp)
   49218:	10bfffc4 	addi	r2,r2,-1
   4921c:	e0bffa15 	stw	r2,-24(fp)
    if (control & ALTERA_AVALON_JTAG_UART_CONTROL_WI_MSK)
    {
      /* process a write irq */
      unsigned int space = (control & ALTERA_AVALON_JTAG_UART_CONTROL_WSPACE_MSK) >> ALTERA_AVALON_JTAG_UART_CONTROL_WSPACE_OFST;

      while (space > 0 && sp->tx_out != sp->tx_in)
   49220:	e0bffa17 	ldw	r2,-24(fp)
   49224:	10000526 	beq	r2,zero,4923c <altera_avalon_jtag_uart_irq+0x1a8>
   49228:	e0bffb17 	ldw	r2,-20(fp)
   4922c:	10c00d17 	ldw	r3,52(r2)
   49230:	e0bffb17 	ldw	r2,-20(fp)
   49234:	10800c17 	ldw	r2,48(r2)
   49238:	18bfe51e 	bne	r3,r2,491d0 <__alt_data_end+0xfffe20d0>
        ALT_FLAG_POST (sp->events, ALT_JTAG_UART_WRITE_RDY, OS_FLAG_SET);

        space--;
      }

      if (space > 0)
   4923c:	e0bffa17 	ldw	r2,-24(fp)
   49240:	103f9d26 	beq	r2,zero,490b8 <__alt_data_end+0xfffe1fb8>
      {
        /* If we don't have any more data available then turn off the TX interrupt */
        sp->irq_enable &= ~ALTERA_AVALON_JTAG_UART_CONTROL_WE_MSK;
   49244:	e0bffb17 	ldw	r2,-20(fp)
   49248:	10c00817 	ldw	r3,32(r2)
   4924c:	00bfff44 	movi	r2,-3
   49250:	1886703a 	and	r3,r3,r2
   49254:	e0bffb17 	ldw	r2,-20(fp)
   49258:	10c00815 	stw	r3,32(r2)
        IOWR_ALTERA_AVALON_JTAG_UART_CONTROL(sp->base, sp->irq_enable);
   4925c:	e0bffb17 	ldw	r2,-20(fp)
   49260:	10800017 	ldw	r2,0(r2)
   49264:	10800104 	addi	r2,r2,4
   49268:	1007883a 	mov	r3,r2
   4926c:	e0bffb17 	ldw	r2,-20(fp)
   49270:	10800817 	ldw	r2,32(r2)
   49274:	18800035 	stwio	r2,0(r3)
        
        /* Dummy read to ensure IRQ is cleared prior to ISR completion */
        IORD_ALTERA_AVALON_JTAG_UART_CONTROL(base);
   49278:	e0bffc17 	ldw	r2,-16(fp)
   4927c:	10800104 	addi	r2,r2,4
   49280:	10800037 	ldwio	r2,0(r2)
      }
    }
  }
   49284:	003f8c06 	br	490b8 <__alt_data_end+0xfffe1fb8>
  {
    unsigned int control = IORD_ALTERA_AVALON_JTAG_UART_CONTROL(base);

    /* Return once nothing more to do */
    if ((control & (ALTERA_AVALON_JTAG_UART_CONTROL_RI_MSK | ALTERA_AVALON_JTAG_UART_CONTROL_WI_MSK)) == 0)
      break;
   49288:	0001883a 	nop
        /* Dummy read to ensure IRQ is cleared prior to ISR completion */
        IORD_ALTERA_AVALON_JTAG_UART_CONTROL(base);
      }
    }
  }
}
   4928c:	0001883a 	nop
   49290:	e037883a 	mov	sp,fp
   49294:	df000017 	ldw	fp,0(sp)
   49298:	dec00104 	addi	sp,sp,4
   4929c:	f800283a 	ret

000492a0 <altera_avalon_jtag_uart_timeout>:
 * Timeout routine is called every second
 */

static alt_u32 
altera_avalon_jtag_uart_timeout(void* context) 
{
   492a0:	defff804 	addi	sp,sp,-32
   492a4:	df000715 	stw	fp,28(sp)
   492a8:	df000704 	addi	fp,sp,28
   492ac:	e13ffb15 	stw	r4,-20(fp)
  altera_avalon_jtag_uart_state* sp = (altera_avalon_jtag_uart_state *) context;
   492b0:	e0bffb17 	ldw	r2,-20(fp)
   492b4:	e0bff915 	stw	r2,-28(fp)

  unsigned int control = IORD_ALTERA_AVALON_JTAG_UART_CONTROL(sp->base);
   492b8:	e0bff917 	ldw	r2,-28(fp)
   492bc:	10800017 	ldw	r2,0(r2)
   492c0:	10800104 	addi	r2,r2,4
   492c4:	10800037 	ldwio	r2,0(r2)
   492c8:	e0bffa15 	stw	r2,-24(fp)

  if (control & ALTERA_AVALON_JTAG_UART_CONTROL_AC_MSK)
   492cc:	e0bffa17 	ldw	r2,-24(fp)
   492d0:	1081000c 	andi	r2,r2,1024
   492d4:	10000b26 	beq	r2,zero,49304 <altera_avalon_jtag_uart_timeout+0x64>
  {
    IOWR_ALTERA_AVALON_JTAG_UART_CONTROL(sp->base, sp->irq_enable | ALTERA_AVALON_JTAG_UART_CONTROL_AC_MSK);
   492d8:	e0bff917 	ldw	r2,-28(fp)
   492dc:	10800017 	ldw	r2,0(r2)
   492e0:	10800104 	addi	r2,r2,4
   492e4:	1007883a 	mov	r3,r2
   492e8:	e0bff917 	ldw	r2,-28(fp)
   492ec:	10800817 	ldw	r2,32(r2)
   492f0:	10810014 	ori	r2,r2,1024
   492f4:	18800035 	stwio	r2,0(r3)
    sp->host_inactive = 0;
   492f8:	e0bff917 	ldw	r2,-28(fp)
   492fc:	10000915 	stw	zero,36(r2)
   49300:	00000a06 	br	4932c <altera_avalon_jtag_uart_timeout+0x8c>
  }
  else if (sp->host_inactive < INT_MAX - 2) {
   49304:	e0bff917 	ldw	r2,-28(fp)
   49308:	10c00917 	ldw	r3,36(r2)
   4930c:	00a00034 	movhi	r2,32768
   49310:	10bfff04 	addi	r2,r2,-4
   49314:	10c00536 	bltu	r2,r3,4932c <altera_avalon_jtag_uart_timeout+0x8c>
    sp->host_inactive++;
   49318:	e0bff917 	ldw	r2,-28(fp)
   4931c:	10800917 	ldw	r2,36(r2)
   49320:	10c00044 	addi	r3,r2,1
   49324:	e0bff917 	ldw	r2,-28(fp)
   49328:	10c00915 	stw	r3,36(r2)
   4932c:	d0a6b117 	ldw	r2,-25916(gp)
      ALT_FLAG_POST (sp->events, ALT_JTAG_UART_TIMEOUT, OS_FLAG_SET);
    }
  }

  return alt_ticks_per_second();
}
   49330:	e037883a 	mov	sp,fp
   49334:	df000017 	ldw	fp,0(sp)
   49338:	dec00104 	addi	sp,sp,4
   4933c:	f800283a 	ret

00049340 <altera_avalon_jtag_uart_close>:
 * The close routine is not implemented for the small driver; instead it will
 * map to null. This is because the small driver simply waits while characters
 * are transmitted; there is no interrupt-serviced buffer to empty 
 */
int altera_avalon_jtag_uart_close(altera_avalon_jtag_uart_state* sp, int flags)
{
   49340:	defffd04 	addi	sp,sp,-12
   49344:	df000215 	stw	fp,8(sp)
   49348:	df000204 	addi	fp,sp,8
   4934c:	e13ffe15 	stw	r4,-8(fp)
   49350:	e17fff15 	stw	r5,-4(fp)
  /* 
   * Wait for all transmit data to be emptied by the JTAG UART ISR, or
   * for a host-inactivity timeout, in which case transmit data will be lost
   */
  while ( (sp->tx_out != sp->tx_in) && (sp->host_inactive < sp->timeout) ) {
   49354:	00000506 	br	4936c <altera_avalon_jtag_uart_close+0x2c>
    if (flags & O_NONBLOCK) {
   49358:	e0bfff17 	ldw	r2,-4(fp)
   4935c:	1090000c 	andi	r2,r2,16384
   49360:	10000226 	beq	r2,zero,4936c <altera_avalon_jtag_uart_close+0x2c>
      return -EWOULDBLOCK; 
   49364:	00bffd44 	movi	r2,-11
   49368:	00000b06 	br	49398 <altera_avalon_jtag_uart_close+0x58>
{
  /* 
   * Wait for all transmit data to be emptied by the JTAG UART ISR, or
   * for a host-inactivity timeout, in which case transmit data will be lost
   */
  while ( (sp->tx_out != sp->tx_in) && (sp->host_inactive < sp->timeout) ) {
   4936c:	e0bffe17 	ldw	r2,-8(fp)
   49370:	10c00d17 	ldw	r3,52(r2)
   49374:	e0bffe17 	ldw	r2,-8(fp)
   49378:	10800c17 	ldw	r2,48(r2)
   4937c:	18800526 	beq	r3,r2,49394 <altera_avalon_jtag_uart_close+0x54>
   49380:	e0bffe17 	ldw	r2,-8(fp)
   49384:	10c00917 	ldw	r3,36(r2)
   49388:	e0bffe17 	ldw	r2,-8(fp)
   4938c:	10800117 	ldw	r2,4(r2)
   49390:	18bff136 	bltu	r3,r2,49358 <__alt_data_end+0xfffe2258>
    if (flags & O_NONBLOCK) {
      return -EWOULDBLOCK; 
    }
  }

  return 0;
   49394:	0005883a 	mov	r2,zero
}
   49398:	e037883a 	mov	sp,fp
   4939c:	df000017 	ldw	fp,0(sp)
   493a0:	dec00104 	addi	sp,sp,4
   493a4:	f800283a 	ret

000493a8 <altera_avalon_jtag_uart_ioctl>:
/* ----------------------------------------------------------- */

int 
altera_avalon_jtag_uart_ioctl(altera_avalon_jtag_uart_state* sp, int req,
  void* arg)
{
   493a8:	defffa04 	addi	sp,sp,-24
   493ac:	df000515 	stw	fp,20(sp)
   493b0:	df000504 	addi	fp,sp,20
   493b4:	e13ffd15 	stw	r4,-12(fp)
   493b8:	e17ffe15 	stw	r5,-8(fp)
   493bc:	e1bfff15 	stw	r6,-4(fp)
  int rc = -ENOTTY;
   493c0:	00bff9c4 	movi	r2,-25
   493c4:	e0bffb15 	stw	r2,-20(fp)

  switch (req)
   493c8:	e0bffe17 	ldw	r2,-8(fp)
   493cc:	10da8060 	cmpeqi	r3,r2,27137
   493d0:	1800031e 	bne	r3,zero,493e0 <altera_avalon_jtag_uart_ioctl+0x38>
   493d4:	109a80a0 	cmpeqi	r2,r2,27138
   493d8:	1000181e 	bne	r2,zero,4943c <altera_avalon_jtag_uart_ioctl+0x94>
      rc = 0;
    }
    break;

  default:
    break;
   493dc:	00002906 	br	49484 <altera_avalon_jtag_uart_ioctl+0xdc>

  switch (req)
  {
  case TIOCSTIMEOUT:
    /* Set the time to wait until assuming host is not connected */
    if (sp->timeout != INT_MAX)
   493e0:	e0bffd17 	ldw	r2,-12(fp)
   493e4:	10c00117 	ldw	r3,4(r2)
   493e8:	00a00034 	movhi	r2,32768
   493ec:	10bfffc4 	addi	r2,r2,-1
   493f0:	18802126 	beq	r3,r2,49478 <altera_avalon_jtag_uart_ioctl+0xd0>
    {
      int timeout = *((int *)arg);
   493f4:	e0bfff17 	ldw	r2,-4(fp)
   493f8:	10800017 	ldw	r2,0(r2)
   493fc:	e0bffc15 	stw	r2,-16(fp)
      sp->timeout = (timeout >= 2 && timeout < INT_MAX) ? timeout : INT_MAX - 1;
   49400:	e0bffc17 	ldw	r2,-16(fp)
   49404:	10800090 	cmplti	r2,r2,2
   49408:	1000061e 	bne	r2,zero,49424 <altera_avalon_jtag_uart_ioctl+0x7c>
   4940c:	e0fffc17 	ldw	r3,-16(fp)
   49410:	00a00034 	movhi	r2,32768
   49414:	10bfffc4 	addi	r2,r2,-1
   49418:	18800226 	beq	r3,r2,49424 <altera_avalon_jtag_uart_ioctl+0x7c>
   4941c:	e0bffc17 	ldw	r2,-16(fp)
   49420:	00000206 	br	4942c <altera_avalon_jtag_uart_ioctl+0x84>
   49424:	00a00034 	movhi	r2,32768
   49428:	10bfff84 	addi	r2,r2,-2
   4942c:	e0fffd17 	ldw	r3,-12(fp)
   49430:	18800115 	stw	r2,4(r3)
      rc = 0;
   49434:	e03ffb15 	stw	zero,-20(fp)
    }
    break;
   49438:	00000f06 	br	49478 <altera_avalon_jtag_uart_ioctl+0xd0>

  case TIOCGCONNECTED:
    /* Find out whether host is connected */
    if (sp->timeout != INT_MAX)
   4943c:	e0bffd17 	ldw	r2,-12(fp)
   49440:	10c00117 	ldw	r3,4(r2)
   49444:	00a00034 	movhi	r2,32768
   49448:	10bfffc4 	addi	r2,r2,-1
   4944c:	18800c26 	beq	r3,r2,49480 <altera_avalon_jtag_uart_ioctl+0xd8>
    {
      *((int *)arg) = (sp->host_inactive < sp->timeout) ? 1 : 0;
   49450:	e0bffd17 	ldw	r2,-12(fp)
   49454:	10c00917 	ldw	r3,36(r2)
   49458:	e0bffd17 	ldw	r2,-12(fp)
   4945c:	10800117 	ldw	r2,4(r2)
   49460:	1885803a 	cmpltu	r2,r3,r2
   49464:	10c03fcc 	andi	r3,r2,255
   49468:	e0bfff17 	ldw	r2,-4(fp)
   4946c:	10c00015 	stw	r3,0(r2)
      rc = 0;
   49470:	e03ffb15 	stw	zero,-20(fp)
    }
    break;
   49474:	00000206 	br	49480 <altera_avalon_jtag_uart_ioctl+0xd8>
    {
      int timeout = *((int *)arg);
      sp->timeout = (timeout >= 2 && timeout < INT_MAX) ? timeout : INT_MAX - 1;
      rc = 0;
    }
    break;
   49478:	0001883a 	nop
   4947c:	00000106 	br	49484 <altera_avalon_jtag_uart_ioctl+0xdc>
    if (sp->timeout != INT_MAX)
    {
      *((int *)arg) = (sp->host_inactive < sp->timeout) ? 1 : 0;
      rc = 0;
    }
    break;
   49480:	0001883a 	nop

  default:
    break;
  }

  return rc;
   49484:	e0bffb17 	ldw	r2,-20(fp)
}
   49488:	e037883a 	mov	sp,fp
   4948c:	df000017 	ldw	fp,0(sp)
   49490:	dec00104 	addi	sp,sp,4
   49494:	f800283a 	ret

00049498 <altera_avalon_jtag_uart_read>:
/* ----------------------------------------------------------- */

int 
altera_avalon_jtag_uart_read(altera_avalon_jtag_uart_state* sp, 
  char * buffer, int space, int flags)
{
   49498:	defff304 	addi	sp,sp,-52
   4949c:	dfc00c15 	stw	ra,48(sp)
   494a0:	df000b15 	stw	fp,44(sp)
   494a4:	df000b04 	addi	fp,sp,44
   494a8:	e13ffc15 	stw	r4,-16(fp)
   494ac:	e17ffd15 	stw	r5,-12(fp)
   494b0:	e1bffe15 	stw	r6,-8(fp)
   494b4:	e1ffff15 	stw	r7,-4(fp)
  char * ptr = buffer;
   494b8:	e0bffd17 	ldw	r2,-12(fp)
   494bc:	e0bff515 	stw	r2,-44(fp)
   * When running in a multi threaded environment, obtain the "read_lock"
   * semaphore. This ensures that reading from the device is thread-safe.
   */
  ALT_SEM_PEND (sp->read_lock, 0);

  while (space > 0)
   494c0:	00004706 	br	495e0 <altera_avalon_jtag_uart_read+0x148>
    unsigned int in, out;

    /* Read as much data as possible */
    do
    {
      in  = sp->rx_in;
   494c4:	e0bffc17 	ldw	r2,-16(fp)
   494c8:	10800a17 	ldw	r2,40(r2)
   494cc:	e0bff715 	stw	r2,-36(fp)
      out = sp->rx_out;
   494d0:	e0bffc17 	ldw	r2,-16(fp)
   494d4:	10800b17 	ldw	r2,44(r2)
   494d8:	e0bff815 	stw	r2,-32(fp)

      if (in >= out)
   494dc:	e0fff717 	ldw	r3,-36(fp)
   494e0:	e0bff817 	ldw	r2,-32(fp)
   494e4:	18800536 	bltu	r3,r2,494fc <altera_avalon_jtag_uart_read+0x64>
        n = in - out;
   494e8:	e0fff717 	ldw	r3,-36(fp)
   494ec:	e0bff817 	ldw	r2,-32(fp)
   494f0:	1885c83a 	sub	r2,r3,r2
   494f4:	e0bff615 	stw	r2,-40(fp)
   494f8:	00000406 	br	4950c <altera_avalon_jtag_uart_read+0x74>
      else
        n = ALTERA_AVALON_JTAG_UART_BUF_LEN - out;
   494fc:	00c20004 	movi	r3,2048
   49500:	e0bff817 	ldw	r2,-32(fp)
   49504:	1885c83a 	sub	r2,r3,r2
   49508:	e0bff615 	stw	r2,-40(fp)

      if (n == 0)
   4950c:	e0bff617 	ldw	r2,-40(fp)
   49510:	10001e26 	beq	r2,zero,4958c <altera_avalon_jtag_uart_read+0xf4>
        break; /* No more data available */

      if (n > space)
   49514:	e0fffe17 	ldw	r3,-8(fp)
   49518:	e0bff617 	ldw	r2,-40(fp)
   4951c:	1880022e 	bgeu	r3,r2,49528 <altera_avalon_jtag_uart_read+0x90>
        n = space;
   49520:	e0bffe17 	ldw	r2,-8(fp)
   49524:	e0bff615 	stw	r2,-40(fp)

      memcpy(ptr, sp->rx_buf + out, n);
   49528:	e0bffc17 	ldw	r2,-16(fp)
   4952c:	10c00e04 	addi	r3,r2,56
   49530:	e0bff817 	ldw	r2,-32(fp)
   49534:	1885883a 	add	r2,r3,r2
   49538:	e1bff617 	ldw	r6,-40(fp)
   4953c:	100b883a 	mov	r5,r2
   49540:	e13ff517 	ldw	r4,-44(fp)
   49544:	0046c580 	call	46c58 <memcpy>
      ptr   += n;
   49548:	e0fff517 	ldw	r3,-44(fp)
   4954c:	e0bff617 	ldw	r2,-40(fp)
   49550:	1885883a 	add	r2,r3,r2
   49554:	e0bff515 	stw	r2,-44(fp)
      space -= n;
   49558:	e0fffe17 	ldw	r3,-8(fp)
   4955c:	e0bff617 	ldw	r2,-40(fp)
   49560:	1885c83a 	sub	r2,r3,r2
   49564:	e0bffe15 	stw	r2,-8(fp)

      sp->rx_out = (out + n) % ALTERA_AVALON_JTAG_UART_BUF_LEN;
   49568:	e0fff817 	ldw	r3,-32(fp)
   4956c:	e0bff617 	ldw	r2,-40(fp)
   49570:	1885883a 	add	r2,r3,r2
   49574:	10c1ffcc 	andi	r3,r2,2047
   49578:	e0bffc17 	ldw	r2,-16(fp)
   4957c:	10c00b15 	stw	r3,44(r2)
    }
    while (space > 0);
   49580:	e0bffe17 	ldw	r2,-8(fp)
   49584:	00bfcf16 	blt	zero,r2,494c4 <__alt_data_end+0xfffe23c4>
   49588:	00000106 	br	49590 <altera_avalon_jtag_uart_read+0xf8>
        n = in - out;
      else
        n = ALTERA_AVALON_JTAG_UART_BUF_LEN - out;

      if (n == 0)
        break; /* No more data available */
   4958c:	0001883a 	nop
      sp->rx_out = (out + n) % ALTERA_AVALON_JTAG_UART_BUF_LEN;
    }
    while (space > 0);

    /* If we read any data then return it */
    if (ptr != buffer)
   49590:	e0fff517 	ldw	r3,-44(fp)
   49594:	e0bffd17 	ldw	r2,-12(fp)
   49598:	1880141e 	bne	r3,r2,495ec <altera_avalon_jtag_uart_read+0x154>
      break;

    /* If in non-blocking mode then return error */
    if (flags & O_NONBLOCK)
   4959c:	e0bfff17 	ldw	r2,-4(fp)
   495a0:	1090000c 	andi	r2,r2,16384
   495a4:	1000131e 	bne	r2,zero,495f4 <altera_avalon_jtag_uart_read+0x15c>
      while (in == sp->rx_in && sp->host_inactive < sp->timeout)
        ;
    }
#else
    /* No OS: Always spin */
    while (in == sp->rx_in && sp->host_inactive < sp->timeout)
   495a8:	0001883a 	nop
   495ac:	e0bffc17 	ldw	r2,-16(fp)
   495b0:	10c00a17 	ldw	r3,40(r2)
   495b4:	e0bff717 	ldw	r2,-36(fp)
   495b8:	1880051e 	bne	r3,r2,495d0 <altera_avalon_jtag_uart_read+0x138>
   495bc:	e0bffc17 	ldw	r2,-16(fp)
   495c0:	10c00917 	ldw	r3,36(r2)
   495c4:	e0bffc17 	ldw	r2,-16(fp)
   495c8:	10800117 	ldw	r2,4(r2)
   495cc:	18bff736 	bltu	r3,r2,495ac <__alt_data_end+0xfffe24ac>
      ;
#endif /* __ucosii__ */

    if (in == sp->rx_in)
   495d0:	e0bffc17 	ldw	r2,-16(fp)
   495d4:	10c00a17 	ldw	r3,40(r2)
   495d8:	e0bff717 	ldw	r2,-36(fp)
   495dc:	18800726 	beq	r3,r2,495fc <altera_avalon_jtag_uart_read+0x164>
   * When running in a multi threaded environment, obtain the "read_lock"
   * semaphore. This ensures that reading from the device is thread-safe.
   */
  ALT_SEM_PEND (sp->read_lock, 0);

  while (space > 0)
   495e0:	e0bffe17 	ldw	r2,-8(fp)
   495e4:	00bfb716 	blt	zero,r2,494c4 <__alt_data_end+0xfffe23c4>
   495e8:	00000506 	br	49600 <altera_avalon_jtag_uart_read+0x168>
    }
    while (space > 0);

    /* If we read any data then return it */
    if (ptr != buffer)
      break;
   495ec:	0001883a 	nop
   495f0:	00000306 	br	49600 <altera_avalon_jtag_uart_read+0x168>

    /* If in non-blocking mode then return error */
    if (flags & O_NONBLOCK)
      break;
   495f4:	0001883a 	nop
   495f8:	00000106 	br	49600 <altera_avalon_jtag_uart_read+0x168>
    while (in == sp->rx_in && sp->host_inactive < sp->timeout)
      ;
#endif /* __ucosii__ */

    if (in == sp->rx_in)
      break;
   495fc:	0001883a 	nop
   * semaphore so that other threads can access the buffer.
   */

  ALT_SEM_POST (sp->read_lock);

  if (ptr != buffer)
   49600:	e0fff517 	ldw	r3,-44(fp)
   49604:	e0bffd17 	ldw	r2,-12(fp)
   49608:	18801826 	beq	r3,r2,4966c <altera_avalon_jtag_uart_read+0x1d4>
static ALT_INLINE alt_irq_context ALT_ALWAYS_INLINE 
       alt_irq_disable_all (void)
{
  alt_irq_context context;

  NIOS2_READ_STATUS (context);
   4960c:	0005303a 	rdctl	r2,status
   49610:	e0bffb15 	stw	r2,-20(fp)

  NIOS2_WRITE_STATUS (context & ~NIOS2_STATUS_PIE_MSK);
   49614:	e0fffb17 	ldw	r3,-20(fp)
   49618:	00bfff84 	movi	r2,-2
   4961c:	1884703a 	and	r2,r3,r2
   49620:	1001703a 	wrctl	status,r2
  
  return context;
   49624:	e0bffb17 	ldw	r2,-20(fp)
  {
    /* If we read any data then there is space in the buffer so enable interrupts */
    context = alt_irq_disable_all();
   49628:	e0bffa15 	stw	r2,-24(fp)
    sp->irq_enable |= ALTERA_AVALON_JTAG_UART_CONTROL_RE_MSK;
   4962c:	e0bffc17 	ldw	r2,-16(fp)
   49630:	10800817 	ldw	r2,32(r2)
   49634:	10c00054 	ori	r3,r2,1
   49638:	e0bffc17 	ldw	r2,-16(fp)
   4963c:	10c00815 	stw	r3,32(r2)
    IOWR_ALTERA_AVALON_JTAG_UART_CONTROL(sp->base, sp->irq_enable);
   49640:	e0bffc17 	ldw	r2,-16(fp)
   49644:	10800017 	ldw	r2,0(r2)
   49648:	10800104 	addi	r2,r2,4
   4964c:	1007883a 	mov	r3,r2
   49650:	e0bffc17 	ldw	r2,-16(fp)
   49654:	10800817 	ldw	r2,32(r2)
   49658:	18800035 	stwio	r2,0(r3)
   4965c:	e0bffa17 	ldw	r2,-24(fp)
   49660:	e0bff915 	stw	r2,-28(fp)
  status &= ~NIOS2_STATUS_PIE_MSK;
  status |= (context & NIOS2_STATUS_PIE_MSK);
  
  NIOS2_WRITE_STATUS (status);
#else
  NIOS2_WRITE_STATUS (context);
   49664:	e0bff917 	ldw	r2,-28(fp)
   49668:	1001703a 	wrctl	status,r2
    alt_irq_enable_all(context);
  }

  if (ptr != buffer)
   4966c:	e0fff517 	ldw	r3,-44(fp)
   49670:	e0bffd17 	ldw	r2,-12(fp)
   49674:	18800426 	beq	r3,r2,49688 <altera_avalon_jtag_uart_read+0x1f0>
    return ptr - buffer;
   49678:	e0fff517 	ldw	r3,-44(fp)
   4967c:	e0bffd17 	ldw	r2,-12(fp)
   49680:	1885c83a 	sub	r2,r3,r2
   49684:	00000606 	br	496a0 <altera_avalon_jtag_uart_read+0x208>
  else if (flags & O_NONBLOCK)
   49688:	e0bfff17 	ldw	r2,-4(fp)
   4968c:	1090000c 	andi	r2,r2,16384
   49690:	10000226 	beq	r2,zero,4969c <altera_avalon_jtag_uart_read+0x204>
    return -EWOULDBLOCK;
   49694:	00bffd44 	movi	r2,-11
   49698:	00000106 	br	496a0 <altera_avalon_jtag_uart_read+0x208>
  else
    return -EIO;
   4969c:	00bffec4 	movi	r2,-5
}
   496a0:	e037883a 	mov	sp,fp
   496a4:	dfc00117 	ldw	ra,4(sp)
   496a8:	df000017 	ldw	fp,0(sp)
   496ac:	dec00204 	addi	sp,sp,8
   496b0:	f800283a 	ret

000496b4 <altera_avalon_jtag_uart_write>:
/* ----------------------------------------------------------- */

int 
altera_avalon_jtag_uart_write(altera_avalon_jtag_uart_state* sp, 
  const char * ptr, int count, int flags)
{
   496b4:	defff304 	addi	sp,sp,-52
   496b8:	dfc00c15 	stw	ra,48(sp)
   496bc:	df000b15 	stw	fp,44(sp)
   496c0:	df000b04 	addi	fp,sp,44
   496c4:	e13ffc15 	stw	r4,-16(fp)
   496c8:	e17ffd15 	stw	r5,-12(fp)
   496cc:	e1bffe15 	stw	r6,-8(fp)
   496d0:	e1ffff15 	stw	r7,-4(fp)
  /* Remove warning at optimisation level 03 by seting out to 0 */
  unsigned int in, out=0;
   496d4:	e03ff515 	stw	zero,-44(fp)
  unsigned int n;
  alt_irq_context context;

  const char * start = ptr;
   496d8:	e0bffd17 	ldw	r2,-12(fp)
   496dc:	e0bff715 	stw	r2,-36(fp)
  ALT_SEM_PEND (sp->write_lock, 0);

  do
  {
    /* Copy as much as we can into the transmit buffer */
    while (count > 0)
   496e0:	00003706 	br	497c0 <altera_avalon_jtag_uart_write+0x10c>
    {
      /* We need a stable value of the out pointer to calculate the space available */
      in  = sp->tx_in;
   496e4:	e0bffc17 	ldw	r2,-16(fp)
   496e8:	10800c17 	ldw	r2,48(r2)
   496ec:	e0bff915 	stw	r2,-28(fp)
      out = sp->tx_out;
   496f0:	e0bffc17 	ldw	r2,-16(fp)
   496f4:	10800d17 	ldw	r2,52(r2)
   496f8:	e0bff515 	stw	r2,-44(fp)

      if (in < out)
   496fc:	e0fff917 	ldw	r3,-28(fp)
   49700:	e0bff517 	ldw	r2,-44(fp)
   49704:	1880062e 	bgeu	r3,r2,49720 <altera_avalon_jtag_uart_write+0x6c>
        n = out - 1 - in;
   49708:	e0fff517 	ldw	r3,-44(fp)
   4970c:	e0bff917 	ldw	r2,-28(fp)
   49710:	1885c83a 	sub	r2,r3,r2
   49714:	10bfffc4 	addi	r2,r2,-1
   49718:	e0bff615 	stw	r2,-40(fp)
   4971c:	00000b06 	br	4974c <altera_avalon_jtag_uart_write+0x98>
      else if (out > 0)
   49720:	e0bff517 	ldw	r2,-44(fp)
   49724:	10000526 	beq	r2,zero,4973c <altera_avalon_jtag_uart_write+0x88>
        n = ALTERA_AVALON_JTAG_UART_BUF_LEN - in;
   49728:	00c20004 	movi	r3,2048
   4972c:	e0bff917 	ldw	r2,-28(fp)
   49730:	1885c83a 	sub	r2,r3,r2
   49734:	e0bff615 	stw	r2,-40(fp)
   49738:	00000406 	br	4974c <altera_avalon_jtag_uart_write+0x98>
      else
        n = ALTERA_AVALON_JTAG_UART_BUF_LEN - 1 - in;
   4973c:	00c1ffc4 	movi	r3,2047
   49740:	e0bff917 	ldw	r2,-28(fp)
   49744:	1885c83a 	sub	r2,r3,r2
   49748:	e0bff615 	stw	r2,-40(fp)

      if (n == 0)
   4974c:	e0bff617 	ldw	r2,-40(fp)
   49750:	10001e26 	beq	r2,zero,497cc <altera_avalon_jtag_uart_write+0x118>
        break;

      if (n > count)
   49754:	e0fffe17 	ldw	r3,-8(fp)
   49758:	e0bff617 	ldw	r2,-40(fp)
   4975c:	1880022e 	bgeu	r3,r2,49768 <altera_avalon_jtag_uart_write+0xb4>
        n = count;
   49760:	e0bffe17 	ldw	r2,-8(fp)
   49764:	e0bff615 	stw	r2,-40(fp)

      memcpy(sp->tx_buf + in, ptr, n);
   49768:	e0bffc17 	ldw	r2,-16(fp)
   4976c:	10c20e04 	addi	r3,r2,2104
   49770:	e0bff917 	ldw	r2,-28(fp)
   49774:	1885883a 	add	r2,r3,r2
   49778:	e1bff617 	ldw	r6,-40(fp)
   4977c:	e17ffd17 	ldw	r5,-12(fp)
   49780:	1009883a 	mov	r4,r2
   49784:	0046c580 	call	46c58 <memcpy>
      ptr   += n;
   49788:	e0fffd17 	ldw	r3,-12(fp)
   4978c:	e0bff617 	ldw	r2,-40(fp)
   49790:	1885883a 	add	r2,r3,r2
   49794:	e0bffd15 	stw	r2,-12(fp)
      count -= n;
   49798:	e0fffe17 	ldw	r3,-8(fp)
   4979c:	e0bff617 	ldw	r2,-40(fp)
   497a0:	1885c83a 	sub	r2,r3,r2
   497a4:	e0bffe15 	stw	r2,-8(fp)

      sp->tx_in = (in + n) % ALTERA_AVALON_JTAG_UART_BUF_LEN;
   497a8:	e0fff917 	ldw	r3,-28(fp)
   497ac:	e0bff617 	ldw	r2,-40(fp)
   497b0:	1885883a 	add	r2,r3,r2
   497b4:	10c1ffcc 	andi	r3,r2,2047
   497b8:	e0bffc17 	ldw	r2,-16(fp)
   497bc:	10c00c15 	stw	r3,48(r2)
  ALT_SEM_PEND (sp->write_lock, 0);

  do
  {
    /* Copy as much as we can into the transmit buffer */
    while (count > 0)
   497c0:	e0bffe17 	ldw	r2,-8(fp)
   497c4:	00bfc716 	blt	zero,r2,496e4 <__alt_data_end+0xfffe25e4>
   497c8:	00000106 	br	497d0 <altera_avalon_jtag_uart_write+0x11c>
        n = ALTERA_AVALON_JTAG_UART_BUF_LEN - in;
      else
        n = ALTERA_AVALON_JTAG_UART_BUF_LEN - 1 - in;

      if (n == 0)
        break;
   497cc:	0001883a 	nop
static ALT_INLINE alt_irq_context ALT_ALWAYS_INLINE 
       alt_irq_disable_all (void)
{
  alt_irq_context context;

  NIOS2_READ_STATUS (context);
   497d0:	0005303a 	rdctl	r2,status
   497d4:	e0bffb15 	stw	r2,-20(fp)

  NIOS2_WRITE_STATUS (context & ~NIOS2_STATUS_PIE_MSK);
   497d8:	e0fffb17 	ldw	r3,-20(fp)
   497dc:	00bfff84 	movi	r2,-2
   497e0:	1884703a 	and	r2,r3,r2
   497e4:	1001703a 	wrctl	status,r2
  
  return context;
   497e8:	e0bffb17 	ldw	r2,-20(fp)
     * to enable interrupts if there is no space left in the FIFO
     *
     * For now kick the interrupt routine every time to make it transmit 
     * the data 
     */
    context = alt_irq_disable_all();
   497ec:	e0bffa15 	stw	r2,-24(fp)
    sp->irq_enable |= ALTERA_AVALON_JTAG_UART_CONTROL_WE_MSK;
   497f0:	e0bffc17 	ldw	r2,-16(fp)
   497f4:	10800817 	ldw	r2,32(r2)
   497f8:	10c00094 	ori	r3,r2,2
   497fc:	e0bffc17 	ldw	r2,-16(fp)
   49800:	10c00815 	stw	r3,32(r2)
    IOWR_ALTERA_AVALON_JTAG_UART_CONTROL(sp->base, sp->irq_enable);
   49804:	e0bffc17 	ldw	r2,-16(fp)
   49808:	10800017 	ldw	r2,0(r2)
   4980c:	10800104 	addi	r2,r2,4
   49810:	1007883a 	mov	r3,r2
   49814:	e0bffc17 	ldw	r2,-16(fp)
   49818:	10800817 	ldw	r2,32(r2)
   4981c:	18800035 	stwio	r2,0(r3)
   49820:	e0bffa17 	ldw	r2,-24(fp)
   49824:	e0bff815 	stw	r2,-32(fp)
  status &= ~NIOS2_STATUS_PIE_MSK;
  status |= (context & NIOS2_STATUS_PIE_MSK);
  
  NIOS2_WRITE_STATUS (status);
#else
  NIOS2_WRITE_STATUS (context);
   49828:	e0bff817 	ldw	r2,-32(fp)
   4982c:	1001703a 	wrctl	status,r2
    /* 
     * If there is any data left then either return now or block until 
     * some has been sent 
     */
    /* consider: test whether there is anything there while doing this and delay for at most 2s. */
    if (count > 0)
   49830:	e0bffe17 	ldw	r2,-8(fp)
   49834:	0080100e 	bge	zero,r2,49878 <altera_avalon_jtag_uart_write+0x1c4>
    {
      if (flags & O_NONBLOCK)
   49838:	e0bfff17 	ldw	r2,-4(fp)
   4983c:	1090000c 	andi	r2,r2,16384
   49840:	1000101e 	bne	r2,zero,49884 <altera_avalon_jtag_uart_write+0x1d0>
      /*
       * No OS present: Always wait for data to be removed from buffer.  Once
       * the interrupt routine has removed some data then we will be able to
       * insert some more.
       */
      while (out == sp->tx_out && sp->host_inactive < sp->timeout)
   49844:	0001883a 	nop
   49848:	e0bffc17 	ldw	r2,-16(fp)
   4984c:	10c00d17 	ldw	r3,52(r2)
   49850:	e0bff517 	ldw	r2,-44(fp)
   49854:	1880051e 	bne	r3,r2,4986c <altera_avalon_jtag_uart_write+0x1b8>
   49858:	e0bffc17 	ldw	r2,-16(fp)
   4985c:	10c00917 	ldw	r3,36(r2)
   49860:	e0bffc17 	ldw	r2,-16(fp)
   49864:	10800117 	ldw	r2,4(r2)
   49868:	18bff736 	bltu	r3,r2,49848 <__alt_data_end+0xfffe2748>
        ;
#endif /* __ucosii__ */

      if  (sp->host_inactive)
   4986c:	e0bffc17 	ldw	r2,-16(fp)
   49870:	10800917 	ldw	r2,36(r2)
   49874:	1000051e 	bne	r2,zero,4988c <altera_avalon_jtag_uart_write+0x1d8>
         break;
    }
  }
  while (count > 0);
   49878:	e0bffe17 	ldw	r2,-8(fp)
   4987c:	00bfd016 	blt	zero,r2,497c0 <__alt_data_end+0xfffe26c0>
   49880:	00000306 	br	49890 <altera_avalon_jtag_uart_write+0x1dc>
     */
    /* consider: test whether there is anything there while doing this and delay for at most 2s. */
    if (count > 0)
    {
      if (flags & O_NONBLOCK)
        break;
   49884:	0001883a 	nop
   49888:	00000106 	br	49890 <altera_avalon_jtag_uart_write+0x1dc>
      while (out == sp->tx_out && sp->host_inactive < sp->timeout)
        ;
#endif /* __ucosii__ */

      if  (sp->host_inactive)
         break;
   4988c:	0001883a 	nop
   * Now that access to the circular buffer is complete, release the write
   * semaphore so that other threads can access the buffer.
   */
  ALT_SEM_POST (sp->write_lock);

  if (ptr != start)
   49890:	e0fffd17 	ldw	r3,-12(fp)
   49894:	e0bff717 	ldw	r2,-36(fp)
   49898:	18800426 	beq	r3,r2,498ac <altera_avalon_jtag_uart_write+0x1f8>
    return ptr - start;
   4989c:	e0fffd17 	ldw	r3,-12(fp)
   498a0:	e0bff717 	ldw	r2,-36(fp)
   498a4:	1885c83a 	sub	r2,r3,r2
   498a8:	00000606 	br	498c4 <altera_avalon_jtag_uart_write+0x210>
  else if (flags & O_NONBLOCK)
   498ac:	e0bfff17 	ldw	r2,-4(fp)
   498b0:	1090000c 	andi	r2,r2,16384
   498b4:	10000226 	beq	r2,zero,498c0 <altera_avalon_jtag_uart_write+0x20c>
    return -EWOULDBLOCK;
   498b8:	00bffd44 	movi	r2,-11
   498bc:	00000106 	br	498c4 <altera_avalon_jtag_uart_write+0x210>
    sp->tx_out = sp->tx_in = 0;
    return ptr - start + count;
  }
#endif
  else
    return -EIO; /* Host not connected */
   498c0:	00bffec4 	movi	r2,-5
}
   498c4:	e037883a 	mov	sp,fp
   498c8:	dfc00117 	ldw	ra,4(sp)
   498cc:	df000017 	ldw	fp,0(sp)
   498d0:	dec00204 	addi	sp,sp,8
   498d4:	f800283a 	ret

000498d8 <alt_avalon_timer_sc_irq>:
#ifdef ALT_ENHANCED_INTERRUPT_API_PRESENT
static void alt_avalon_timer_sc_irq (void* base)
#else
static void alt_avalon_timer_sc_irq (void* base, alt_u32 id)
#endif
{
   498d8:	defffa04 	addi	sp,sp,-24
   498dc:	dfc00515 	stw	ra,20(sp)
   498e0:	df000415 	stw	fp,16(sp)
   498e4:	df000404 	addi	fp,sp,16
   498e8:	e13fff15 	stw	r4,-4(fp)
  alt_irq_context cpu_sr;
  
  /* clear the interrupt */
  IOWR_ALTERA_AVALON_TIMER_STATUS (base, 0);
   498ec:	0007883a 	mov	r3,zero
   498f0:	e0bfff17 	ldw	r2,-4(fp)
   498f4:	10c00035 	stwio	r3,0(r2)
  /* 
   * Dummy read to ensure IRQ is negated before the ISR returns.
   * The control register is read because reading the status
   * register has side-effects per the register map documentation.
   */
  IORD_ALTERA_AVALON_TIMER_CONTROL (base);
   498f8:	e0bfff17 	ldw	r2,-4(fp)
   498fc:	10800104 	addi	r2,r2,4
   49900:	10800037 	ldwio	r2,0(r2)
static ALT_INLINE alt_irq_context ALT_ALWAYS_INLINE 
       alt_irq_disable_all (void)
{
  alt_irq_context context;

  NIOS2_READ_STATUS (context);
   49904:	0005303a 	rdctl	r2,status
   49908:	e0bffd15 	stw	r2,-12(fp)

  NIOS2_WRITE_STATUS (context & ~NIOS2_STATUS_PIE_MSK);
   4990c:	e0fffd17 	ldw	r3,-12(fp)
   49910:	00bfff84 	movi	r2,-2
   49914:	1884703a 	and	r2,r3,r2
   49918:	1001703a 	wrctl	status,r2
  
  return context;
   4991c:	e0bffd17 	ldw	r2,-12(fp)

  /* 
   * Notify the system of a clock tick. disable interrupts 
   * during this time to safely support ISR preemption
   */
  cpu_sr = alt_irq_disable_all();
   49920:	e0bffc15 	stw	r2,-16(fp)
  alt_tick ();
   49924:	004a53c0 	call	4a53c <alt_tick>
   49928:	e0bffc17 	ldw	r2,-16(fp)
   4992c:	e0bffe15 	stw	r2,-8(fp)
  status &= ~NIOS2_STATUS_PIE_MSK;
  status |= (context & NIOS2_STATUS_PIE_MSK);
  
  NIOS2_WRITE_STATUS (status);
#else
  NIOS2_WRITE_STATUS (context);
   49930:	e0bffe17 	ldw	r2,-8(fp)
   49934:	1001703a 	wrctl	status,r2
  alt_irq_enable_all(cpu_sr);
}
   49938:	0001883a 	nop
   4993c:	e037883a 	mov	sp,fp
   49940:	dfc00117 	ldw	ra,4(sp)
   49944:	df000017 	ldw	fp,0(sp)
   49948:	dec00204 	addi	sp,sp,8
   4994c:	f800283a 	ret

00049950 <alt_avalon_timer_sc_init>:
 * auto-generated alt_sys_init() function.
 */

void alt_avalon_timer_sc_init (void* base, alt_u32 irq_controller_id, 
                                alt_u32 irq, alt_u32 freq)
{
   49950:	defff804 	addi	sp,sp,-32
   49954:	dfc00715 	stw	ra,28(sp)
   49958:	df000615 	stw	fp,24(sp)
   4995c:	df000604 	addi	fp,sp,24
   49960:	e13ffc15 	stw	r4,-16(fp)
   49964:	e17ffd15 	stw	r5,-12(fp)
   49968:	e1bffe15 	stw	r6,-8(fp)
   4996c:	e1ffff15 	stw	r7,-4(fp)
   49970:	e0bfff17 	ldw	r2,-4(fp)
   49974:	e0bffb15 	stw	r2,-20(fp)
 * in order to initialise the value of the clock frequency.
 */

static ALT_INLINE int ALT_ALWAYS_INLINE alt_sysclk_init (alt_u32 nticks)
{
  if (! _alt_tick_rate)
   49978:	d0a6b117 	ldw	r2,-25916(gp)
   4997c:	1000021e 	bne	r2,zero,49988 <alt_avalon_timer_sc_init+0x38>
  {
    _alt_tick_rate = nticks;
   49980:	e0bffb17 	ldw	r2,-20(fp)
   49984:	d0a6b115 	stw	r2,-25916(gp)
  
  alt_sysclk_init (freq);
  
  /* set to free running mode */
  
  IOWR_ALTERA_AVALON_TIMER_CONTROL (base, 
   49988:	e0bffc17 	ldw	r2,-16(fp)
   4998c:	10800104 	addi	r2,r2,4
   49990:	00c001c4 	movi	r3,7
   49994:	10c00035 	stwio	r3,0(r2)
            ALTERA_AVALON_TIMER_CONTROL_CONT_MSK |
            ALTERA_AVALON_TIMER_CONTROL_START_MSK);

  /* register the interrupt handler, and enable the interrupt */
#ifdef ALT_ENHANCED_INTERRUPT_API_PRESENT
  alt_ic_isr_register(irq_controller_id, irq, alt_avalon_timer_sc_irq, 
   49998:	d8000015 	stw	zero,0(sp)
   4999c:	e1fffc17 	ldw	r7,-16(fp)
   499a0:	01800174 	movhi	r6,5
   499a4:	31a63604 	addi	r6,r6,-26408
   499a8:	e17ffe17 	ldw	r5,-8(fp)
   499ac:	e13ffd17 	ldw	r4,-12(fp)
   499b0:	0049e6c0 	call	49e6c <alt_ic_isr_register>
                      base, NULL);
#else
  alt_irq_register (irq, base, alt_avalon_timer_sc_irq);
#endif  
}
   499b4:	0001883a 	nop
   499b8:	e037883a 	mov	sp,fp
   499bc:	dfc00117 	ldw	ra,4(sp)
   499c0:	df000017 	ldw	fp,0(sp)
   499c4:	dec00204 	addi	sp,sp,8
   499c8:	f800283a 	ret

000499cc <alt_alarm_start>:
 */ 

int alt_alarm_start (alt_alarm* alarm, alt_u32 nticks,
                     alt_u32 (*callback) (void* context),
                     void* context)
{
   499cc:	defff504 	addi	sp,sp,-44
   499d0:	df000a15 	stw	fp,40(sp)
   499d4:	df000a04 	addi	fp,sp,40
   499d8:	e13ffc15 	stw	r4,-16(fp)
   499dc:	e17ffd15 	stw	r5,-12(fp)
   499e0:	e1bffe15 	stw	r6,-8(fp)
   499e4:	e1ffff15 	stw	r7,-4(fp)
  alt_irq_context irq_context;
  alt_u32 current_nticks = 0;
   499e8:	e03ff615 	stw	zero,-40(fp)
 * Obtain the system clock rate in ticks/s. 
 */

static ALT_INLINE alt_u32 ALT_ALWAYS_INLINE alt_ticks_per_second (void)
{
  return _alt_tick_rate;
   499ec:	d0a6b117 	ldw	r2,-25916(gp)
  
  if (alt_ticks_per_second ())
   499f0:	10003c26 	beq	r2,zero,49ae4 <alt_alarm_start+0x118>
  {
    if (alarm)
   499f4:	e0bffc17 	ldw	r2,-16(fp)
   499f8:	10003826 	beq	r2,zero,49adc <alt_alarm_start+0x110>
    {
      alarm->callback = callback;
   499fc:	e0bffc17 	ldw	r2,-16(fp)
   49a00:	e0fffe17 	ldw	r3,-8(fp)
   49a04:	10c00315 	stw	r3,12(r2)
      alarm->context  = context;
   49a08:	e0bffc17 	ldw	r2,-16(fp)
   49a0c:	e0ffff17 	ldw	r3,-4(fp)
   49a10:	10c00515 	stw	r3,20(r2)
static ALT_INLINE alt_irq_context ALT_ALWAYS_INLINE 
       alt_irq_disable_all (void)
{
  alt_irq_context context;

  NIOS2_READ_STATUS (context);
   49a14:	0005303a 	rdctl	r2,status
   49a18:	e0bff915 	stw	r2,-28(fp)

  NIOS2_WRITE_STATUS (context & ~NIOS2_STATUS_PIE_MSK);
   49a1c:	e0fff917 	ldw	r3,-28(fp)
   49a20:	00bfff84 	movi	r2,-2
   49a24:	1884703a 	and	r2,r3,r2
   49a28:	1001703a 	wrctl	status,r2
  
  return context;
   49a2c:	e0bff917 	ldw	r2,-28(fp)
 
      irq_context = alt_irq_disable_all ();
   49a30:	e0bff815 	stw	r2,-32(fp)
 * alt_nticks() returns the elapsed number of system clock ticks since reset.
 */

static ALT_INLINE alt_u32 ALT_ALWAYS_INLINE alt_nticks (void)
{
  return _alt_nticks;
   49a34:	d0a6b217 	ldw	r2,-25912(gp)
      
      current_nticks = alt_nticks();
   49a38:	e0bff615 	stw	r2,-40(fp)
      
      alarm->time = nticks + current_nticks + 1; 
   49a3c:	e0fffd17 	ldw	r3,-12(fp)
   49a40:	e0bff617 	ldw	r2,-40(fp)
   49a44:	1885883a 	add	r2,r3,r2
   49a48:	10c00044 	addi	r3,r2,1
   49a4c:	e0bffc17 	ldw	r2,-16(fp)
   49a50:	10c00215 	stw	r3,8(r2)
      /* 
       * If the desired alarm time causes a roll-over, set the rollover
       * flag. This will prevent the subsequent tick event from causing
       * an alarm too early.
       */
      if(alarm->time < current_nticks)
   49a54:	e0bffc17 	ldw	r2,-16(fp)
   49a58:	10c00217 	ldw	r3,8(r2)
   49a5c:	e0bff617 	ldw	r2,-40(fp)
   49a60:	1880042e 	bgeu	r3,r2,49a74 <alt_alarm_start+0xa8>
      {
        alarm->rollover = 1;
   49a64:	e0bffc17 	ldw	r2,-16(fp)
   49a68:	00c00044 	movi	r3,1
   49a6c:	10c00405 	stb	r3,16(r2)
   49a70:	00000206 	br	49a7c <alt_alarm_start+0xb0>
      }
      else
      {
        alarm->rollover = 0;
   49a74:	e0bffc17 	ldw	r2,-16(fp)
   49a78:	10000405 	stb	zero,16(r2)
      }
    
      alt_llist_insert (&alt_alarm_list, &alarm->llist);
   49a7c:	e0bffc17 	ldw	r2,-16(fp)
   49a80:	d0e00c04 	addi	r3,gp,-32720
   49a84:	e0fffa15 	stw	r3,-24(fp)
   49a88:	e0bffb15 	stw	r2,-20(fp)
 */

static ALT_INLINE void ALT_ALWAYS_INLINE alt_llist_insert(alt_llist* list, 
                alt_llist* entry)
{
  entry->previous = list;
   49a8c:	e0bffb17 	ldw	r2,-20(fp)
   49a90:	e0fffa17 	ldw	r3,-24(fp)
   49a94:	10c00115 	stw	r3,4(r2)
  entry->next     = list->next;
   49a98:	e0bffa17 	ldw	r2,-24(fp)
   49a9c:	10c00017 	ldw	r3,0(r2)
   49aa0:	e0bffb17 	ldw	r2,-20(fp)
   49aa4:	10c00015 	stw	r3,0(r2)

  list->next->previous = entry;
   49aa8:	e0bffa17 	ldw	r2,-24(fp)
   49aac:	10800017 	ldw	r2,0(r2)
   49ab0:	e0fffb17 	ldw	r3,-20(fp)
   49ab4:	10c00115 	stw	r3,4(r2)
  list->next           = entry;
   49ab8:	e0bffa17 	ldw	r2,-24(fp)
   49abc:	e0fffb17 	ldw	r3,-20(fp)
   49ac0:	10c00015 	stw	r3,0(r2)
   49ac4:	e0bff817 	ldw	r2,-32(fp)
   49ac8:	e0bff715 	stw	r2,-36(fp)
  status &= ~NIOS2_STATUS_PIE_MSK;
  status |= (context & NIOS2_STATUS_PIE_MSK);
  
  NIOS2_WRITE_STATUS (status);
#else
  NIOS2_WRITE_STATUS (context);
   49acc:	e0bff717 	ldw	r2,-36(fp)
   49ad0:	1001703a 	wrctl	status,r2
      alt_irq_enable_all (irq_context);

      return 0;
   49ad4:	0005883a 	mov	r2,zero
   49ad8:	00000306 	br	49ae8 <alt_alarm_start+0x11c>
    }
    else
    {
      return -EINVAL;
   49adc:	00bffa84 	movi	r2,-22
   49ae0:	00000106 	br	49ae8 <alt_alarm_start+0x11c>
    }
  }
  else
  {
    return -ENOTSUP;
   49ae4:	00bfde84 	movi	r2,-134
  }
}
   49ae8:	e037883a 	mov	sp,fp
   49aec:	df000017 	ldw	fp,0(sp)
   49af0:	dec00104 	addi	sp,sp,4
   49af4:	f800283a 	ret

00049af8 <alt_busy_sleep>:
#include "alt_types.h"

#include "priv/alt_busy_sleep.h"

unsigned int alt_busy_sleep (unsigned int us)
{
   49af8:	defffa04 	addi	sp,sp,-24
   49afc:	dfc00515 	stw	ra,20(sp)
   49b00:	df000415 	stw	fp,16(sp)
   49b04:	df000404 	addi	fp,sp,16
   49b08:	e13fff15 	stw	r4,-4(fp)
  {
    cycles_per_loop = 9;
  }
  else  
  {
    cycles_per_loop = 3;
   49b0c:	008000c4 	movi	r2,3
   49b10:	e0bffd15 	stw	r2,-12(fp)
  }
  

  big_loops = us / (INT_MAX/
  (ALT_CPU_FREQ/(cycles_per_loop * 1000000)));
   49b14:	e0fffd17 	ldw	r3,-12(fp)
   49b18:	008003f4 	movhi	r2,15
   49b1c:	10909004 	addi	r2,r2,16960
   49b20:	1885383a 	mul	r2,r3,r2
   49b24:	100b883a 	mov	r5,r2
   49b28:	01017db4 	movhi	r4,1526
   49b2c:	21384004 	addi	r4,r4,-7936
   49b30:	00425800 	call	42580 <__udivsi3>
  {
    cycles_per_loop = 3;
  }
  

  big_loops = us / (INT_MAX/
   49b34:	100b883a 	mov	r5,r2
   49b38:	01200034 	movhi	r4,32768
   49b3c:	213fffc4 	addi	r4,r4,-1
   49b40:	00425800 	call	42580 <__udivsi3>
   49b44:	100b883a 	mov	r5,r2
   49b48:	e13fff17 	ldw	r4,-4(fp)
   49b4c:	00425800 	call	42580 <__udivsi3>
   49b50:	e0bffe15 	stw	r2,-8(fp)
  (ALT_CPU_FREQ/(cycles_per_loop * 1000000)));

  if (big_loops)
   49b54:	e0bffe17 	ldw	r2,-8(fp)
   49b58:	10002a26 	beq	r2,zero,49c04 <alt_busy_sleep+0x10c>
  {
    for(i=0;i<big_loops;i++)
   49b5c:	e03ffc15 	stw	zero,-16(fp)
   49b60:	00001706 	br	49bc0 <alt_busy_sleep+0xc8>
      /*
      * Do NOT Try to single step the asm statement below 
      * (single step will never return)
      * Step out of this function or set a breakpoint after the asm statements
      */
      __asm__ volatile (
   49b64:	00a00034 	movhi	r2,32768
   49b68:	10bfffc4 	addi	r2,r2,-1
   49b6c:	10bfffc4 	addi	r2,r2,-1
   49b70:	103ffe1e 	bne	r2,zero,49b6c <__alt_data_end+0xfffe2a6c>
        "\n\t.pushsection .debug_alt_sim_info"
        "\n\t.int 4, 0, 0b, 1b"
        "\n\t.popsection"
        :: "r" (INT_MAX));
      us -= (INT_MAX/(ALT_CPU_FREQ/
      (cycles_per_loop * 1000000)));
   49b74:	e0fffd17 	ldw	r3,-12(fp)
   49b78:	008003f4 	movhi	r2,15
   49b7c:	10909004 	addi	r2,r2,16960
   49b80:	1885383a 	mul	r2,r3,r2
        "\n1:"
        "\n\t.pushsection .debug_alt_sim_info"
        "\n\t.int 4, 0, 0b, 1b"
        "\n\t.popsection"
        :: "r" (INT_MAX));
      us -= (INT_MAX/(ALT_CPU_FREQ/
   49b84:	100b883a 	mov	r5,r2
   49b88:	01017db4 	movhi	r4,1526
   49b8c:	21384004 	addi	r4,r4,-7936
   49b90:	00425800 	call	42580 <__udivsi3>
   49b94:	100b883a 	mov	r5,r2
   49b98:	01200034 	movhi	r4,32768
   49b9c:	213fffc4 	addi	r4,r4,-1
   49ba0:	00425800 	call	42580 <__udivsi3>
   49ba4:	1007883a 	mov	r3,r2
   49ba8:	e0bfff17 	ldw	r2,-4(fp)
   49bac:	10c5c83a 	sub	r2,r2,r3
   49bb0:	e0bfff15 	stw	r2,-4(fp)
  big_loops = us / (INT_MAX/
  (ALT_CPU_FREQ/(cycles_per_loop * 1000000)));

  if (big_loops)
  {
    for(i=0;i<big_loops;i++)
   49bb4:	e0bffc17 	ldw	r2,-16(fp)
   49bb8:	10800044 	addi	r2,r2,1
   49bbc:	e0bffc15 	stw	r2,-16(fp)
   49bc0:	e0fffc17 	ldw	r3,-16(fp)
   49bc4:	e0bffe17 	ldw	r2,-8(fp)
   49bc8:	18bfe616 	blt	r3,r2,49b64 <__alt_data_end+0xfffe2a64>
      "\n\tbne %0,zero,0b"
      "\n1:"
      "\n\t.pushsection .debug_alt_sim_info"
      "\n\t.int 4, 0, 0b, 1b"
      "\n\t.popsection"
      :: "r" (us*(ALT_CPU_FREQ/(cycles_per_loop * 1000000))));
   49bcc:	e0fffd17 	ldw	r3,-12(fp)
   49bd0:	008003f4 	movhi	r2,15
   49bd4:	10909004 	addi	r2,r2,16960
   49bd8:	1885383a 	mul	r2,r3,r2
   49bdc:	100b883a 	mov	r5,r2
   49be0:	01017db4 	movhi	r4,1526
   49be4:	21384004 	addi	r4,r4,-7936
   49be8:	00425800 	call	42580 <__udivsi3>
   49bec:	1007883a 	mov	r3,r2
   49bf0:	e0bfff17 	ldw	r2,-4(fp)
   49bf4:	1885383a 	mul	r2,r3,r2
    /*
    * Do NOT Try to single step the asm statement below 
    * (single step will never return)
    * Step out of this function or set a breakpoint after the asm statements
    */
    __asm__ volatile (
   49bf8:	10bfffc4 	addi	r2,r2,-1
   49bfc:	103ffe1e 	bne	r2,zero,49bf8 <__alt_data_end+0xfffe2af8>
   49c00:	00000d06 	br	49c38 <alt_busy_sleep+0x140>
      "\n\tbgt %0,zero,0b"
      "\n1:"
      "\n\t.pushsection .debug_alt_sim_info"
      "\n\t.int 4, 0, 0b, 1b"
      "\n\t.popsection"
      :: "r" (us*(ALT_CPU_FREQ/(cycles_per_loop * 1000000))));
   49c04:	e0fffd17 	ldw	r3,-12(fp)
   49c08:	008003f4 	movhi	r2,15
   49c0c:	10909004 	addi	r2,r2,16960
   49c10:	1885383a 	mul	r2,r3,r2
   49c14:	100b883a 	mov	r5,r2
   49c18:	01017db4 	movhi	r4,1526
   49c1c:	21384004 	addi	r4,r4,-7936
   49c20:	00425800 	call	42580 <__udivsi3>
   49c24:	1007883a 	mov	r3,r2
   49c28:	e0bfff17 	ldw	r2,-4(fp)
   49c2c:	1885383a 	mul	r2,r3,r2
    /*
    * Do NOT Try to single step the asm statement below 
    * (single step will never return)
    * Step out of this function or set a breakpoint after the asm statements
    */
    __asm__ volatile (
   49c30:	10bfffc4 	addi	r2,r2,-1
   49c34:	00bffe16 	blt	zero,r2,49c30 <__alt_data_end+0xfffe2b30>
      "\n\t.int 4, 0, 0b, 1b"
      "\n\t.popsection"
      :: "r" (us*(ALT_CPU_FREQ/(cycles_per_loop * 1000000))));
  }
#endif /* #ifndef ALT_SIM_OPTIMIZE */
  return 0;
   49c38:	0005883a 	mov	r2,zero
}
   49c3c:	e037883a 	mov	sp,fp
   49c40:	dfc00117 	ldw	ra,4(sp)
   49c44:	df000017 	ldw	fp,0(sp)
   49c48:	dec00204 	addi	sp,sp,8
   49c4c:	f800283a 	ret

00049c50 <alt_dcache_flush_all>:
/*
 * alt_dcache_flush_all() is called to flush the entire data cache.
 */

void alt_dcache_flush_all (void)
{
   49c50:	defffe04 	addi	sp,sp,-8
   49c54:	df000115 	stw	fp,4(sp)
   49c58:	df000104 	addi	fp,sp,4
#if NIOS2_DCACHE_SIZE > 0
  char* i;
  
  for (i = (char*) 0; i < (char*) NIOS2_DCACHE_SIZE; i+= NIOS2_DCACHE_LINE_SIZE)
   49c5c:	e03fff15 	stw	zero,-4(fp)
   49c60:	00000506 	br	49c78 <alt_dcache_flush_all+0x28>
  { 
    __asm__ volatile ("flushd (%0)" :: "r" (i));
   49c64:	e0bfff17 	ldw	r2,-4(fp)
   49c68:	1000003b 	flushd	0(r2)
void alt_dcache_flush_all (void)
{
#if NIOS2_DCACHE_SIZE > 0
  char* i;
  
  for (i = (char*) 0; i < (char*) NIOS2_DCACHE_SIZE; i+= NIOS2_DCACHE_LINE_SIZE)
   49c6c:	e0bfff17 	ldw	r2,-4(fp)
   49c70:	10800804 	addi	r2,r2,32
   49c74:	e0bfff15 	stw	r2,-4(fp)
   49c78:	e0bfff17 	ldw	r2,-4(fp)
   49c7c:	10820030 	cmpltui	r2,r2,2048
   49c80:	103ff81e 	bne	r2,zero,49c64 <__alt_data_end+0xfffe2b64>
  { 
    __asm__ volatile ("flushd (%0)" :: "r" (i));
  }
#endif /* NIOS2_DCACHE_SIZE > 0 */
}
   49c84:	0001883a 	nop
   49c88:	e037883a 	mov	sp,fp
   49c8c:	df000017 	ldw	fp,0(sp)
   49c90:	dec00104 	addi	sp,sp,4
   49c94:	f800283a 	ret

00049c98 <alt_get_errno>:
#undef errno

extern int errno;

static ALT_INLINE int* alt_get_errno(void)
{
   49c98:	defffe04 	addi	sp,sp,-8
   49c9c:	dfc00115 	stw	ra,4(sp)
   49ca0:	df000015 	stw	fp,0(sp)
   49ca4:	d839883a 	mov	fp,sp
  return ((alt_errno) ? alt_errno() : &errno);
   49ca8:	d0a00917 	ldw	r2,-32732(gp)
   49cac:	10000326 	beq	r2,zero,49cbc <alt_get_errno+0x24>
   49cb0:	d0a00917 	ldw	r2,-32732(gp)
   49cb4:	103ee83a 	callr	r2
   49cb8:	00000106 	br	49cc0 <alt_get_errno+0x28>
   49cbc:	d0a6ac04 	addi	r2,gp,-25936
}
   49cc0:	e037883a 	mov	sp,fp
   49cc4:	dfc00117 	ldw	ra,4(sp)
   49cc8:	df000017 	ldw	fp,0(sp)
   49ccc:	dec00204 	addi	sp,sp,8
   49cd0:	f800283a 	ret

00049cd4 <alt_dev_llist_insert>:
/*
 *
 */

int alt_dev_llist_insert (alt_dev_llist* dev, alt_llist* list)
{
   49cd4:	defffa04 	addi	sp,sp,-24
   49cd8:	dfc00515 	stw	ra,20(sp)
   49cdc:	df000415 	stw	fp,16(sp)
   49ce0:	df000404 	addi	fp,sp,16
   49ce4:	e13ffe15 	stw	r4,-8(fp)
   49ce8:	e17fff15 	stw	r5,-4(fp)
  /*
   * check that the device exists, and that it has a valid name.
   */

  if (!dev || !dev->name)
   49cec:	e0bffe17 	ldw	r2,-8(fp)
   49cf0:	10000326 	beq	r2,zero,49d00 <alt_dev_llist_insert+0x2c>
   49cf4:	e0bffe17 	ldw	r2,-8(fp)
   49cf8:	10800217 	ldw	r2,8(r2)
   49cfc:	1000061e 	bne	r2,zero,49d18 <alt_dev_llist_insert+0x44>
  {
    ALT_ERRNO = EINVAL;
   49d00:	0049c980 	call	49c98 <alt_get_errno>
   49d04:	1007883a 	mov	r3,r2
   49d08:	00800584 	movi	r2,22
   49d0c:	18800015 	stw	r2,0(r3)
    return -EINVAL;
   49d10:	00bffa84 	movi	r2,-22
   49d14:	00001306 	br	49d64 <alt_dev_llist_insert+0x90>
  
  /*
   * register the device.
   */
  
  alt_llist_insert(list, &dev->llist);
   49d18:	e0bffe17 	ldw	r2,-8(fp)
   49d1c:	e0ffff17 	ldw	r3,-4(fp)
   49d20:	e0fffc15 	stw	r3,-16(fp)
   49d24:	e0bffd15 	stw	r2,-12(fp)
 */

static ALT_INLINE void ALT_ALWAYS_INLINE alt_llist_insert(alt_llist* list, 
                alt_llist* entry)
{
  entry->previous = list;
   49d28:	e0bffd17 	ldw	r2,-12(fp)
   49d2c:	e0fffc17 	ldw	r3,-16(fp)
   49d30:	10c00115 	stw	r3,4(r2)
  entry->next     = list->next;
   49d34:	e0bffc17 	ldw	r2,-16(fp)
   49d38:	10c00017 	ldw	r3,0(r2)
   49d3c:	e0bffd17 	ldw	r2,-12(fp)
   49d40:	10c00015 	stw	r3,0(r2)

  list->next->previous = entry;
   49d44:	e0bffc17 	ldw	r2,-16(fp)
   49d48:	10800017 	ldw	r2,0(r2)
   49d4c:	e0fffd17 	ldw	r3,-12(fp)
   49d50:	10c00115 	stw	r3,4(r2)
  list->next           = entry;
   49d54:	e0bffc17 	ldw	r2,-16(fp)
   49d58:	e0fffd17 	ldw	r3,-12(fp)
   49d5c:	10c00015 	stw	r3,0(r2)

  return 0;  
   49d60:	0005883a 	mov	r2,zero
}
   49d64:	e037883a 	mov	sp,fp
   49d68:	dfc00117 	ldw	ra,4(sp)
   49d6c:	df000017 	ldw	fp,0(sp)
   49d70:	dec00204 	addi	sp,sp,8
   49d74:	f800283a 	ret

00049d78 <_do_ctors>:
/*
 * Run the C++ static constructors.
 */

void _do_ctors(void)
{
   49d78:	defffd04 	addi	sp,sp,-12
   49d7c:	dfc00215 	stw	ra,8(sp)
   49d80:	df000115 	stw	fp,4(sp)
   49d84:	df000104 	addi	fp,sp,4
  constructor* ctor;

  for (ctor = &__CTOR_END__[-1]; ctor >= __CTOR_LIST__; ctor--)
   49d88:	00800174 	movhi	r2,5
   49d8c:	10ab3104 	addi	r2,r2,-21308
   49d90:	e0bfff15 	stw	r2,-4(fp)
   49d94:	00000606 	br	49db0 <_do_ctors+0x38>
        (*ctor) (); 
   49d98:	e0bfff17 	ldw	r2,-4(fp)
   49d9c:	10800017 	ldw	r2,0(r2)
   49da0:	103ee83a 	callr	r2

void _do_ctors(void)
{
  constructor* ctor;

  for (ctor = &__CTOR_END__[-1]; ctor >= __CTOR_LIST__; ctor--)
   49da4:	e0bfff17 	ldw	r2,-4(fp)
   49da8:	10bfff04 	addi	r2,r2,-4
   49dac:	e0bfff15 	stw	r2,-4(fp)
   49db0:	e0ffff17 	ldw	r3,-4(fp)
   49db4:	00800174 	movhi	r2,5
   49db8:	10ab3204 	addi	r2,r2,-21304
   49dbc:	18bff62e 	bgeu	r3,r2,49d98 <__alt_data_end+0xfffe2c98>
        (*ctor) (); 
}
   49dc0:	0001883a 	nop
   49dc4:	e037883a 	mov	sp,fp
   49dc8:	dfc00117 	ldw	ra,4(sp)
   49dcc:	df000017 	ldw	fp,0(sp)
   49dd0:	dec00204 	addi	sp,sp,8
   49dd4:	f800283a 	ret

00049dd8 <_do_dtors>:
/*
 * Run the C++ static destructors.
 */

void _do_dtors(void)
{
   49dd8:	defffd04 	addi	sp,sp,-12
   49ddc:	dfc00215 	stw	ra,8(sp)
   49de0:	df000115 	stw	fp,4(sp)
   49de4:	df000104 	addi	fp,sp,4
  destructor* dtor;

  for (dtor = &__DTOR_END__[-1]; dtor >= __DTOR_LIST__; dtor--)
   49de8:	00800174 	movhi	r2,5
   49dec:	10ab3104 	addi	r2,r2,-21308
   49df0:	e0bfff15 	stw	r2,-4(fp)
   49df4:	00000606 	br	49e10 <_do_dtors+0x38>
        (*dtor) (); 
   49df8:	e0bfff17 	ldw	r2,-4(fp)
   49dfc:	10800017 	ldw	r2,0(r2)
   49e00:	103ee83a 	callr	r2

void _do_dtors(void)
{
  destructor* dtor;

  for (dtor = &__DTOR_END__[-1]; dtor >= __DTOR_LIST__; dtor--)
   49e04:	e0bfff17 	ldw	r2,-4(fp)
   49e08:	10bfff04 	addi	r2,r2,-4
   49e0c:	e0bfff15 	stw	r2,-4(fp)
   49e10:	e0ffff17 	ldw	r3,-4(fp)
   49e14:	00800174 	movhi	r2,5
   49e18:	10ab3204 	addi	r2,r2,-21304
   49e1c:	18bff62e 	bgeu	r3,r2,49df8 <__alt_data_end+0xfffe2cf8>
        (*dtor) (); 
}
   49e20:	0001883a 	nop
   49e24:	e037883a 	mov	sp,fp
   49e28:	dfc00117 	ldw	ra,4(sp)
   49e2c:	df000017 	ldw	fp,0(sp)
   49e30:	dec00204 	addi	sp,sp,8
   49e34:	f800283a 	ret

00049e38 <alt_icache_flush_all>:
/*
 * alt_icache_flush_all() is called to flush the entire instruction cache.
 */

void alt_icache_flush_all (void)
{
   49e38:	defffe04 	addi	sp,sp,-8
   49e3c:	dfc00115 	stw	ra,4(sp)
   49e40:	df000015 	stw	fp,0(sp)
   49e44:	d839883a 	mov	fp,sp
#if NIOS2_ICACHE_SIZE > 0
  alt_icache_flush (0, NIOS2_ICACHE_SIZE);
   49e48:	01440004 	movi	r5,4096
   49e4c:	0009883a 	mov	r4,zero
   49e50:	004a8a40 	call	4a8a4 <alt_icache_flush>
#endif
}
   49e54:	0001883a 	nop
   49e58:	e037883a 	mov	sp,fp
   49e5c:	dfc00117 	ldw	ra,4(sp)
   49e60:	df000017 	ldw	fp,0(sp)
   49e64:	dec00204 	addi	sp,sp,8
   49e68:	f800283a 	ret

00049e6c <alt_ic_isr_register>:
  * @param irq              IRQ number
  * @return                 0 if successful, else error (-1)
  */
int alt_ic_isr_register(alt_u32 ic_id, alt_u32 irq, alt_isr_func isr, 
  void *isr_context, void *flags)
{
   49e6c:	defff904 	addi	sp,sp,-28
   49e70:	dfc00615 	stw	ra,24(sp)
   49e74:	df000515 	stw	fp,20(sp)
   49e78:	df000504 	addi	fp,sp,20
   49e7c:	e13ffc15 	stw	r4,-16(fp)
   49e80:	e17ffd15 	stw	r5,-12(fp)
   49e84:	e1bffe15 	stw	r6,-8(fp)
   49e88:	e1ffff15 	stw	r7,-4(fp)
    return alt_iic_isr_register(ic_id, irq, isr, isr_context, flags);
   49e8c:	e0800217 	ldw	r2,8(fp)
   49e90:	d8800015 	stw	r2,0(sp)
   49e94:	e1ffff17 	ldw	r7,-4(fp)
   49e98:	e1bffe17 	ldw	r6,-8(fp)
   49e9c:	e17ffd17 	ldw	r5,-12(fp)
   49ea0:	e13ffc17 	ldw	r4,-16(fp)
   49ea4:	004a01c0 	call	4a01c <alt_iic_isr_register>
}  
   49ea8:	e037883a 	mov	sp,fp
   49eac:	dfc00117 	ldw	ra,4(sp)
   49eb0:	df000017 	ldw	fp,0(sp)
   49eb4:	dec00204 	addi	sp,sp,8
   49eb8:	f800283a 	ret

00049ebc <alt_ic_irq_enable>:
  * @param ic_id            Ignored.
  * @param irq              IRQ number
  * @return                 0 if successful, else error (-1)
  */
int alt_ic_irq_enable (alt_u32 ic_id, alt_u32 irq)
{
   49ebc:	defff904 	addi	sp,sp,-28
   49ec0:	df000615 	stw	fp,24(sp)
   49ec4:	df000604 	addi	fp,sp,24
   49ec8:	e13ffe15 	stw	r4,-8(fp)
   49ecc:	e17fff15 	stw	r5,-4(fp)
   49ed0:	e0bfff17 	ldw	r2,-4(fp)
   49ed4:	e0bffa15 	stw	r2,-24(fp)
static ALT_INLINE alt_irq_context ALT_ALWAYS_INLINE 
       alt_irq_disable_all (void)
{
  alt_irq_context context;

  NIOS2_READ_STATUS (context);
   49ed8:	0005303a 	rdctl	r2,status
   49edc:	e0bffb15 	stw	r2,-20(fp)

  NIOS2_WRITE_STATUS (context & ~NIOS2_STATUS_PIE_MSK);
   49ee0:	e0fffb17 	ldw	r3,-20(fp)
   49ee4:	00bfff84 	movi	r2,-2
   49ee8:	1884703a 	and	r2,r3,r2
   49eec:	1001703a 	wrctl	status,r2
  
  return context;
   49ef0:	e0bffb17 	ldw	r2,-20(fp)
static ALT_INLINE int ALT_ALWAYS_INLINE alt_irq_enable (alt_u32 id)
{
  alt_irq_context  status;
  extern volatile alt_u32 alt_irq_active;

  status = alt_irq_disable_all ();
   49ef4:	e0bffc15 	stw	r2,-16(fp)

  alt_irq_active |= (1 << id);
   49ef8:	00c00044 	movi	r3,1
   49efc:	e0bffa17 	ldw	r2,-24(fp)
   49f00:	1884983a 	sll	r2,r3,r2
   49f04:	1007883a 	mov	r3,r2
   49f08:	d0a6b017 	ldw	r2,-25920(gp)
   49f0c:	1884b03a 	or	r2,r3,r2
   49f10:	d0a6b015 	stw	r2,-25920(gp)
  NIOS2_WRITE_IENABLE (alt_irq_active);
   49f14:	d0a6b017 	ldw	r2,-25920(gp)
   49f18:	100170fa 	wrctl	ienable,r2
   49f1c:	e0bffc17 	ldw	r2,-16(fp)
   49f20:	e0bffd15 	stw	r2,-12(fp)
  status &= ~NIOS2_STATUS_PIE_MSK;
  status |= (context & NIOS2_STATUS_PIE_MSK);
  
  NIOS2_WRITE_STATUS (status);
#else
  NIOS2_WRITE_STATUS (context);
   49f24:	e0bffd17 	ldw	r2,-12(fp)
   49f28:	1001703a 	wrctl	status,r2

  alt_irq_enable_all(status);

  return 0;
   49f2c:	0005883a 	mov	r2,zero
    return alt_irq_enable(irq);
   49f30:	0001883a 	nop
}
   49f34:	e037883a 	mov	sp,fp
   49f38:	df000017 	ldw	fp,0(sp)
   49f3c:	dec00104 	addi	sp,sp,4
   49f40:	f800283a 	ret

00049f44 <alt_ic_irq_disable>:
  * @param ic_id            Ignored.
  * @param irq              IRQ number
  * @return                 0 if successful, else error (-1)
  */
int alt_ic_irq_disable(alt_u32 ic_id, alt_u32 irq)
{
   49f44:	defff904 	addi	sp,sp,-28
   49f48:	df000615 	stw	fp,24(sp)
   49f4c:	df000604 	addi	fp,sp,24
   49f50:	e13ffe15 	stw	r4,-8(fp)
   49f54:	e17fff15 	stw	r5,-4(fp)
   49f58:	e0bfff17 	ldw	r2,-4(fp)
   49f5c:	e0bffa15 	stw	r2,-24(fp)
static ALT_INLINE alt_irq_context ALT_ALWAYS_INLINE 
       alt_irq_disable_all (void)
{
  alt_irq_context context;

  NIOS2_READ_STATUS (context);
   49f60:	0005303a 	rdctl	r2,status
   49f64:	e0bffb15 	stw	r2,-20(fp)

  NIOS2_WRITE_STATUS (context & ~NIOS2_STATUS_PIE_MSK);
   49f68:	e0fffb17 	ldw	r3,-20(fp)
   49f6c:	00bfff84 	movi	r2,-2
   49f70:	1884703a 	and	r2,r3,r2
   49f74:	1001703a 	wrctl	status,r2
  
  return context;
   49f78:	e0bffb17 	ldw	r2,-20(fp)
static ALT_INLINE int ALT_ALWAYS_INLINE alt_irq_disable (alt_u32 id)
{
  alt_irq_context  status;
  extern volatile alt_u32 alt_irq_active;

  status = alt_irq_disable_all ();
   49f7c:	e0bffc15 	stw	r2,-16(fp)

  alt_irq_active &= ~(1 << id);
   49f80:	00c00044 	movi	r3,1
   49f84:	e0bffa17 	ldw	r2,-24(fp)
   49f88:	1884983a 	sll	r2,r3,r2
   49f8c:	0084303a 	nor	r2,zero,r2
   49f90:	1007883a 	mov	r3,r2
   49f94:	d0a6b017 	ldw	r2,-25920(gp)
   49f98:	1884703a 	and	r2,r3,r2
   49f9c:	d0a6b015 	stw	r2,-25920(gp)
  NIOS2_WRITE_IENABLE (alt_irq_active);
   49fa0:	d0a6b017 	ldw	r2,-25920(gp)
   49fa4:	100170fa 	wrctl	ienable,r2
   49fa8:	e0bffc17 	ldw	r2,-16(fp)
   49fac:	e0bffd15 	stw	r2,-12(fp)
  status &= ~NIOS2_STATUS_PIE_MSK;
  status |= (context & NIOS2_STATUS_PIE_MSK);
  
  NIOS2_WRITE_STATUS (status);
#else
  NIOS2_WRITE_STATUS (context);
   49fb0:	e0bffd17 	ldw	r2,-12(fp)
   49fb4:	1001703a 	wrctl	status,r2

  alt_irq_enable_all(status);

  return 0;
   49fb8:	0005883a 	mov	r2,zero
    return alt_irq_disable(irq);
   49fbc:	0001883a 	nop
}
   49fc0:	e037883a 	mov	sp,fp
   49fc4:	df000017 	ldw	fp,0(sp)
   49fc8:	dec00104 	addi	sp,sp,4
   49fcc:	f800283a 	ret

00049fd0 <alt_ic_irq_enabled>:
  * @param irq              IRQ number
  * @return                 Zero if corresponding interrupt is disabled and
  *                         non-zero otherwise.
  */
alt_u32 alt_ic_irq_enabled(alt_u32 ic_id, alt_u32 irq)
{
   49fd0:	defffc04 	addi	sp,sp,-16
   49fd4:	df000315 	stw	fp,12(sp)
   49fd8:	df000304 	addi	fp,sp,12
   49fdc:	e13ffe15 	stw	r4,-8(fp)
   49fe0:	e17fff15 	stw	r5,-4(fp)
    alt_u32 irq_enabled;

    NIOS2_READ_IENABLE(irq_enabled);
   49fe4:	000530fa 	rdctl	r2,ienable
   49fe8:	e0bffd15 	stw	r2,-12(fp)

    return (irq_enabled & (1 << irq)) ? 1: 0;
   49fec:	00c00044 	movi	r3,1
   49ff0:	e0bfff17 	ldw	r2,-4(fp)
   49ff4:	1884983a 	sll	r2,r3,r2
   49ff8:	1007883a 	mov	r3,r2
   49ffc:	e0bffd17 	ldw	r2,-12(fp)
   4a000:	1884703a 	and	r2,r3,r2
   4a004:	1004c03a 	cmpne	r2,r2,zero
   4a008:	10803fcc 	andi	r2,r2,255
}
   4a00c:	e037883a 	mov	sp,fp
   4a010:	df000017 	ldw	fp,0(sp)
   4a014:	dec00104 	addi	sp,sp,4
   4a018:	f800283a 	ret

0004a01c <alt_iic_isr_register>:
  * @param flags            
  * @return                 0 if successful, else error (-1)
  */
int alt_iic_isr_register(alt_u32 ic_id, alt_u32 irq, alt_isr_func isr, 
  void *isr_context, void *flags)
{
   4a01c:	defff504 	addi	sp,sp,-44
   4a020:	dfc00a15 	stw	ra,40(sp)
   4a024:	df000915 	stw	fp,36(sp)
   4a028:	df000904 	addi	fp,sp,36
   4a02c:	e13ffc15 	stw	r4,-16(fp)
   4a030:	e17ffd15 	stw	r5,-12(fp)
   4a034:	e1bffe15 	stw	r6,-8(fp)
   4a038:	e1ffff15 	stw	r7,-4(fp)
  int rc = -EINVAL;  
   4a03c:	00bffa84 	movi	r2,-22
   4a040:	e0bff715 	stw	r2,-36(fp)
  int id = irq;             /* IRQ interpreted as the interrupt ID. */
   4a044:	e0bffd17 	ldw	r2,-12(fp)
   4a048:	e0bff815 	stw	r2,-32(fp)
  alt_irq_context status;

  if (id < ALT_NIRQ)
   4a04c:	e0bff817 	ldw	r2,-32(fp)
   4a050:	10800808 	cmpgei	r2,r2,32
   4a054:	1000271e 	bne	r2,zero,4a0f4 <alt_iic_isr_register+0xd8>
static ALT_INLINE alt_irq_context ALT_ALWAYS_INLINE 
       alt_irq_disable_all (void)
{
  alt_irq_context context;

  NIOS2_READ_STATUS (context);
   4a058:	0005303a 	rdctl	r2,status
   4a05c:	e0bffb15 	stw	r2,-20(fp)

  NIOS2_WRITE_STATUS (context & ~NIOS2_STATUS_PIE_MSK);
   4a060:	e0fffb17 	ldw	r3,-20(fp)
   4a064:	00bfff84 	movi	r2,-2
   4a068:	1884703a 	and	r2,r3,r2
   4a06c:	1001703a 	wrctl	status,r2
  
  return context;
   4a070:	e0bffb17 	ldw	r2,-20(fp)
     * interrupts are disabled while the handler tables are updated to ensure
     * that an interrupt doesn't occur while the tables are in an inconsistant
     * state.
     */

    status = alt_irq_disable_all();
   4a074:	e0bffa15 	stw	r2,-24(fp)

    alt_irq[id].handler = isr;
   4a078:	00800174 	movhi	r2,5
   4a07c:	10b94704 	addi	r2,r2,-6884
   4a080:	e0fff817 	ldw	r3,-32(fp)
   4a084:	180690fa 	slli	r3,r3,3
   4a088:	10c5883a 	add	r2,r2,r3
   4a08c:	e0fffe17 	ldw	r3,-8(fp)
   4a090:	10c00015 	stw	r3,0(r2)
    alt_irq[id].context = isr_context;
   4a094:	00800174 	movhi	r2,5
   4a098:	10b94704 	addi	r2,r2,-6884
   4a09c:	e0fff817 	ldw	r3,-32(fp)
   4a0a0:	180690fa 	slli	r3,r3,3
   4a0a4:	10c5883a 	add	r2,r2,r3
   4a0a8:	10800104 	addi	r2,r2,4
   4a0ac:	e0ffff17 	ldw	r3,-4(fp)
   4a0b0:	10c00015 	stw	r3,0(r2)

    rc = (isr) ? alt_ic_irq_enable(ic_id, id) : alt_ic_irq_disable(ic_id, id);
   4a0b4:	e0bffe17 	ldw	r2,-8(fp)
   4a0b8:	10000526 	beq	r2,zero,4a0d0 <alt_iic_isr_register+0xb4>
   4a0bc:	e0bff817 	ldw	r2,-32(fp)
   4a0c0:	100b883a 	mov	r5,r2
   4a0c4:	e13ffc17 	ldw	r4,-16(fp)
   4a0c8:	0049ebc0 	call	49ebc <alt_ic_irq_enable>
   4a0cc:	00000406 	br	4a0e0 <alt_iic_isr_register+0xc4>
   4a0d0:	e0bff817 	ldw	r2,-32(fp)
   4a0d4:	100b883a 	mov	r5,r2
   4a0d8:	e13ffc17 	ldw	r4,-16(fp)
   4a0dc:	0049f440 	call	49f44 <alt_ic_irq_disable>
   4a0e0:	e0bff715 	stw	r2,-36(fp)
   4a0e4:	e0bffa17 	ldw	r2,-24(fp)
   4a0e8:	e0bff915 	stw	r2,-28(fp)
  status &= ~NIOS2_STATUS_PIE_MSK;
  status |= (context & NIOS2_STATUS_PIE_MSK);
  
  NIOS2_WRITE_STATUS (status);
#else
  NIOS2_WRITE_STATUS (context);
   4a0ec:	e0bff917 	ldw	r2,-28(fp)
   4a0f0:	1001703a 	wrctl	status,r2

    alt_irq_enable_all(status);
  }

  return rc; 
   4a0f4:	e0bff717 	ldw	r2,-36(fp)
}
   4a0f8:	e037883a 	mov	sp,fp
   4a0fc:	dfc00117 	ldw	ra,4(sp)
   4a100:	df000017 	ldw	fp,0(sp)
   4a104:	dec00204 	addi	sp,sp,8
   4a108:	f800283a 	ret

0004a10c <alt_open_fd>:
 * If the device can not be succesfully opened, then the input file descriptor
 * remains unchanged.
 */

static void alt_open_fd(alt_fd* fd, const char* name, int flags, int mode)
{
   4a10c:	defff904 	addi	sp,sp,-28
   4a110:	dfc00615 	stw	ra,24(sp)
   4a114:	df000515 	stw	fp,20(sp)
   4a118:	df000504 	addi	fp,sp,20
   4a11c:	e13ffc15 	stw	r4,-16(fp)
   4a120:	e17ffd15 	stw	r5,-12(fp)
   4a124:	e1bffe15 	stw	r6,-8(fp)
   4a128:	e1ffff15 	stw	r7,-4(fp)
  int old;

  old = open (name, flags, mode);
   4a12c:	e1bfff17 	ldw	r6,-4(fp)
   4a130:	e17ffe17 	ldw	r5,-8(fp)
   4a134:	e13ffd17 	ldw	r4,-12(fp)
   4a138:	004a34c0 	call	4a34c <open>
   4a13c:	e0bffb15 	stw	r2,-20(fp)

  if (old >= 0)
   4a140:	e0bffb17 	ldw	r2,-20(fp)
   4a144:	10001c16 	blt	r2,zero,4a1b8 <alt_open_fd+0xac>
  {
    fd->dev      = alt_fd_list[old].dev;
   4a148:	00800174 	movhi	r2,5
   4a14c:	10ae1204 	addi	r2,r2,-18360
   4a150:	e0fffb17 	ldw	r3,-20(fp)
   4a154:	18c00324 	muli	r3,r3,12
   4a158:	10c5883a 	add	r2,r2,r3
   4a15c:	10c00017 	ldw	r3,0(r2)
   4a160:	e0bffc17 	ldw	r2,-16(fp)
   4a164:	10c00015 	stw	r3,0(r2)
    fd->priv     = alt_fd_list[old].priv;
   4a168:	00800174 	movhi	r2,5
   4a16c:	10ae1204 	addi	r2,r2,-18360
   4a170:	e0fffb17 	ldw	r3,-20(fp)
   4a174:	18c00324 	muli	r3,r3,12
   4a178:	10c5883a 	add	r2,r2,r3
   4a17c:	10800104 	addi	r2,r2,4
   4a180:	10c00017 	ldw	r3,0(r2)
   4a184:	e0bffc17 	ldw	r2,-16(fp)
   4a188:	10c00115 	stw	r3,4(r2)
    fd->fd_flags = alt_fd_list[old].fd_flags;
   4a18c:	00800174 	movhi	r2,5
   4a190:	10ae1204 	addi	r2,r2,-18360
   4a194:	e0fffb17 	ldw	r3,-20(fp)
   4a198:	18c00324 	muli	r3,r3,12
   4a19c:	10c5883a 	add	r2,r2,r3
   4a1a0:	10800204 	addi	r2,r2,8
   4a1a4:	10c00017 	ldw	r3,0(r2)
   4a1a8:	e0bffc17 	ldw	r2,-16(fp)
   4a1ac:	10c00215 	stw	r3,8(r2)

    alt_release_fd (old);
   4a1b0:	e13ffb17 	ldw	r4,-20(fp)
   4a1b4:	0048b280 	call	48b28 <alt_release_fd>
  }
} 
   4a1b8:	0001883a 	nop
   4a1bc:	e037883a 	mov	sp,fp
   4a1c0:	dfc00117 	ldw	ra,4(sp)
   4a1c4:	df000017 	ldw	fp,0(sp)
   4a1c8:	dec00204 	addi	sp,sp,8
   4a1cc:	f800283a 	ret

0004a1d0 <alt_io_redirect>:
 */
 
void alt_io_redirect(const char* stdout_dev, 
                     const char* stdin_dev, 
                     const char* stderr_dev)
{
   4a1d0:	defffb04 	addi	sp,sp,-20
   4a1d4:	dfc00415 	stw	ra,16(sp)
   4a1d8:	df000315 	stw	fp,12(sp)
   4a1dc:	df000304 	addi	fp,sp,12
   4a1e0:	e13ffd15 	stw	r4,-12(fp)
   4a1e4:	e17ffe15 	stw	r5,-8(fp)
   4a1e8:	e1bfff15 	stw	r6,-4(fp)
  /* Redirect the channels */

  alt_open_fd (&alt_fd_list[STDOUT_FILENO], stdout_dev, O_WRONLY, 0777);
   4a1ec:	01c07fc4 	movi	r7,511
   4a1f0:	01800044 	movi	r6,1
   4a1f4:	e17ffd17 	ldw	r5,-12(fp)
   4a1f8:	01000174 	movhi	r4,5
   4a1fc:	212e1504 	addi	r4,r4,-18348
   4a200:	004a10c0 	call	4a10c <alt_open_fd>
  alt_open_fd (&alt_fd_list[STDIN_FILENO], stdin_dev, O_RDONLY, 0777);
   4a204:	01c07fc4 	movi	r7,511
   4a208:	000d883a 	mov	r6,zero
   4a20c:	e17ffe17 	ldw	r5,-8(fp)
   4a210:	01000174 	movhi	r4,5
   4a214:	212e1204 	addi	r4,r4,-18360
   4a218:	004a10c0 	call	4a10c <alt_open_fd>
  alt_open_fd (&alt_fd_list[STDERR_FILENO], stderr_dev, O_WRONLY, 0777);
   4a21c:	01c07fc4 	movi	r7,511
   4a220:	01800044 	movi	r6,1
   4a224:	e17fff17 	ldw	r5,-4(fp)
   4a228:	01000174 	movhi	r4,5
   4a22c:	212e1804 	addi	r4,r4,-18336
   4a230:	004a10c0 	call	4a10c <alt_open_fd>
}  
   4a234:	0001883a 	nop
   4a238:	e037883a 	mov	sp,fp
   4a23c:	dfc00117 	ldw	ra,4(sp)
   4a240:	df000017 	ldw	fp,0(sp)
   4a244:	dec00204 	addi	sp,sp,8
   4a248:	f800283a 	ret

0004a24c <alt_get_errno>:
#undef errno

extern int errno;

static ALT_INLINE int* alt_get_errno(void)
{
   4a24c:	defffe04 	addi	sp,sp,-8
   4a250:	dfc00115 	stw	ra,4(sp)
   4a254:	df000015 	stw	fp,0(sp)
   4a258:	d839883a 	mov	fp,sp
  return ((alt_errno) ? alt_errno() : &errno);
   4a25c:	d0a00917 	ldw	r2,-32732(gp)
   4a260:	10000326 	beq	r2,zero,4a270 <alt_get_errno+0x24>
   4a264:	d0a00917 	ldw	r2,-32732(gp)
   4a268:	103ee83a 	callr	r2
   4a26c:	00000106 	br	4a274 <alt_get_errno+0x28>
   4a270:	d0a6ac04 	addi	r2,gp,-25936
}
   4a274:	e037883a 	mov	sp,fp
   4a278:	dfc00117 	ldw	ra,4(sp)
   4a27c:	df000017 	ldw	fp,0(sp)
   4a280:	dec00204 	addi	sp,sp,8
   4a284:	f800283a 	ret

0004a288 <alt_file_locked>:
 * performed for devices. Filesystems are required to handle the ioctl() call
 * themselves, and report the error from the filesystems open() function. 
 */ 

static int alt_file_locked (alt_fd* fd)
{
   4a288:	defffd04 	addi	sp,sp,-12
   4a28c:	df000215 	stw	fp,8(sp)
   4a290:	df000204 	addi	fp,sp,8
   4a294:	e13fff15 	stw	r4,-4(fp)

  /*
   * Mark the file descriptor as belonging to a device.
   */

  fd->fd_flags |= ALT_FD_DEV;
   4a298:	e0bfff17 	ldw	r2,-4(fp)
   4a29c:	10800217 	ldw	r2,8(r2)
   4a2a0:	10d00034 	orhi	r3,r2,16384
   4a2a4:	e0bfff17 	ldw	r2,-4(fp)
   4a2a8:	10c00215 	stw	r3,8(r2)
  /*
   * Loop through all current file descriptors searching for one that's locked
   * for exclusive access. If a match is found, generate an error.
   */

  for (i = 0; i <= alt_max_fd; i++)
   4a2ac:	e03ffe15 	stw	zero,-8(fp)
   4a2b0:	00001d06 	br	4a328 <alt_file_locked+0xa0>
  {
    if ((alt_fd_list[i].dev == fd->dev) &&
   4a2b4:	00800174 	movhi	r2,5
   4a2b8:	10ae1204 	addi	r2,r2,-18360
   4a2bc:	e0fffe17 	ldw	r3,-8(fp)
   4a2c0:	18c00324 	muli	r3,r3,12
   4a2c4:	10c5883a 	add	r2,r2,r3
   4a2c8:	10c00017 	ldw	r3,0(r2)
   4a2cc:	e0bfff17 	ldw	r2,-4(fp)
   4a2d0:	10800017 	ldw	r2,0(r2)
   4a2d4:	1880111e 	bne	r3,r2,4a31c <alt_file_locked+0x94>
        (alt_fd_list[i].fd_flags & ALT_FD_EXCL) &&
   4a2d8:	00800174 	movhi	r2,5
   4a2dc:	10ae1204 	addi	r2,r2,-18360
   4a2e0:	e0fffe17 	ldw	r3,-8(fp)
   4a2e4:	18c00324 	muli	r3,r3,12
   4a2e8:	10c5883a 	add	r2,r2,r3
   4a2ec:	10800204 	addi	r2,r2,8
   4a2f0:	10800017 	ldw	r2,0(r2)
   * for exclusive access. If a match is found, generate an error.
   */

  for (i = 0; i <= alt_max_fd; i++)
  {
    if ((alt_fd_list[i].dev == fd->dev) &&
   4a2f4:	1000090e 	bge	r2,zero,4a31c <alt_file_locked+0x94>
        (alt_fd_list[i].fd_flags & ALT_FD_EXCL) &&
        (&alt_fd_list[i] != fd))
   4a2f8:	e0bffe17 	ldw	r2,-8(fp)
   4a2fc:	10c00324 	muli	r3,r2,12
   4a300:	00800174 	movhi	r2,5
   4a304:	10ae1204 	addi	r2,r2,-18360
   4a308:	1887883a 	add	r3,r3,r2
   */

  for (i = 0; i <= alt_max_fd; i++)
  {
    if ((alt_fd_list[i].dev == fd->dev) &&
        (alt_fd_list[i].fd_flags & ALT_FD_EXCL) &&
   4a30c:	e0bfff17 	ldw	r2,-4(fp)
   4a310:	18800226 	beq	r3,r2,4a31c <alt_file_locked+0x94>
        (&alt_fd_list[i] != fd))
    {
      return -EACCES;
   4a314:	00bffcc4 	movi	r2,-13
   4a318:	00000806 	br	4a33c <alt_file_locked+0xb4>
  /*
   * Loop through all current file descriptors searching for one that's locked
   * for exclusive access. If a match is found, generate an error.
   */

  for (i = 0; i <= alt_max_fd; i++)
   4a31c:	e0bffe17 	ldw	r2,-8(fp)
   4a320:	10800044 	addi	r2,r2,1
   4a324:	e0bffe15 	stw	r2,-8(fp)
   4a328:	d0a00817 	ldw	r2,-32736(gp)
   4a32c:	1007883a 	mov	r3,r2
   4a330:	e0bffe17 	ldw	r2,-8(fp)
   4a334:	18bfdf2e 	bgeu	r3,r2,4a2b4 <__alt_data_end+0xfffe31b4>
    }
  }
  
  /* The device is not locked */
 
  return 0;
   4a338:	0005883a 	mov	r2,zero
}
   4a33c:	e037883a 	mov	sp,fp
   4a340:	df000017 	ldw	fp,0(sp)
   4a344:	dec00104 	addi	sp,sp,4
   4a348:	f800283a 	ret

0004a34c <open>:
 *
 * ALT_OPEN is mapped onto the open() system call in alt_syscall.h
 */
 
int ALT_OPEN (const char* file, int flags, int mode)
{ 
   4a34c:	defff604 	addi	sp,sp,-40
   4a350:	dfc00915 	stw	ra,36(sp)
   4a354:	df000815 	stw	fp,32(sp)
   4a358:	df000804 	addi	fp,sp,32
   4a35c:	e13ffd15 	stw	r4,-12(fp)
   4a360:	e17ffe15 	stw	r5,-8(fp)
   4a364:	e1bfff15 	stw	r6,-4(fp)
  alt_dev* dev;
  alt_fd*  fd;
  int index  = -1;
   4a368:	00bfffc4 	movi	r2,-1
   4a36c:	e0bff915 	stw	r2,-28(fp)
  int status = -ENODEV;
   4a370:	00bffb44 	movi	r2,-19
   4a374:	e0bffa15 	stw	r2,-24(fp)
  int isafs = 0;
   4a378:	e03ffb15 	stw	zero,-20(fp)
  /* 
   * Check the device list, to see if a device with a matching name is 
   * registered.
   */
  
  if (!(dev = alt_find_dev (file, &alt_dev_list)))
   4a37c:	d1600604 	addi	r5,gp,-32744
   4a380:	e13ffd17 	ldw	r4,-12(fp)
   4a384:	004a6680 	call	4a668 <alt_find_dev>
   4a388:	e0bff815 	stw	r2,-32(fp)
   4a38c:	e0bff817 	ldw	r2,-32(fp)
   4a390:	1000051e 	bne	r2,zero,4a3a8 <open+0x5c>
  {
    /* No matching device, so try the filesystem list */

    dev   = alt_find_file (file);
   4a394:	e13ffd17 	ldw	r4,-12(fp)
   4a398:	004a6f80 	call	4a6f8 <alt_find_file>
   4a39c:	e0bff815 	stw	r2,-32(fp)
    isafs = 1;
   4a3a0:	00800044 	movi	r2,1
   4a3a4:	e0bffb15 	stw	r2,-20(fp)

  /* 
   * If a matching device or filesystem is found, allocate a file descriptor. 
   */

  if (dev)
   4a3a8:	e0bff817 	ldw	r2,-32(fp)
   4a3ac:	10002926 	beq	r2,zero,4a454 <open+0x108>
  {
    if ((index = alt_get_fd (dev)) < 0)
   4a3b0:	e13ff817 	ldw	r4,-32(fp)
   4a3b4:	004a8000 	call	4a800 <alt_get_fd>
   4a3b8:	e0bff915 	stw	r2,-28(fp)
   4a3bc:	e0bff917 	ldw	r2,-28(fp)
   4a3c0:	1000030e 	bge	r2,zero,4a3d0 <open+0x84>
    {
      status = index;
   4a3c4:	e0bff917 	ldw	r2,-28(fp)
   4a3c8:	e0bffa15 	stw	r2,-24(fp)
   4a3cc:	00002306 	br	4a45c <open+0x110>
    }
    else
    {
      fd = &alt_fd_list[index];
   4a3d0:	e0bff917 	ldw	r2,-28(fp)
   4a3d4:	10c00324 	muli	r3,r2,12
   4a3d8:	00800174 	movhi	r2,5
   4a3dc:	10ae1204 	addi	r2,r2,-18360
   4a3e0:	1885883a 	add	r2,r3,r2
   4a3e4:	e0bffc15 	stw	r2,-16(fp)
      fd->fd_flags = (flags & ~ALT_FD_FLAGS_MASK);
   4a3e8:	e0fffe17 	ldw	r3,-8(fp)
   4a3ec:	00900034 	movhi	r2,16384
   4a3f0:	10bfffc4 	addi	r2,r2,-1
   4a3f4:	1886703a 	and	r3,r3,r2
   4a3f8:	e0bffc17 	ldw	r2,-16(fp)
   4a3fc:	10c00215 	stw	r3,8(r2)
      
      /* If this is a device, ensure it isn't already locked */

      if (isafs || ((status = alt_file_locked (fd)) >= 0))
   4a400:	e0bffb17 	ldw	r2,-20(fp)
   4a404:	1000051e 	bne	r2,zero,4a41c <open+0xd0>
   4a408:	e13ffc17 	ldw	r4,-16(fp)
   4a40c:	004a2880 	call	4a288 <alt_file_locked>
   4a410:	e0bffa15 	stw	r2,-24(fp)
   4a414:	e0bffa17 	ldw	r2,-24(fp)
   4a418:	10001016 	blt	r2,zero,4a45c <open+0x110>
        /* 
         * If the device or filesystem provides an open() callback function,
         * call it now to perform any device/filesystem specific operations.
         */
    
        status = (dev->open) ? dev->open(fd, file, flags, mode): 0;
   4a41c:	e0bff817 	ldw	r2,-32(fp)
   4a420:	10800317 	ldw	r2,12(r2)
   4a424:	10000826 	beq	r2,zero,4a448 <open+0xfc>
   4a428:	e0bff817 	ldw	r2,-32(fp)
   4a42c:	10800317 	ldw	r2,12(r2)
   4a430:	e1ffff17 	ldw	r7,-4(fp)
   4a434:	e1bffe17 	ldw	r6,-8(fp)
   4a438:	e17ffd17 	ldw	r5,-12(fp)
   4a43c:	e13ffc17 	ldw	r4,-16(fp)
   4a440:	103ee83a 	callr	r2
   4a444:	00000106 	br	4a44c <open+0x100>
   4a448:	0005883a 	mov	r2,zero
   4a44c:	e0bffa15 	stw	r2,-24(fp)
   4a450:	00000206 	br	4a45c <open+0x110>
      }
    }
  }
  else
  {
    status = -ENODEV;
   4a454:	00bffb44 	movi	r2,-19
   4a458:	e0bffa15 	stw	r2,-24(fp)
  }

  /* Allocation failed, so clean up and return an error */ 

  if (status < 0)
   4a45c:	e0bffa17 	ldw	r2,-24(fp)
   4a460:	1000090e 	bge	r2,zero,4a488 <open+0x13c>
  {
    alt_release_fd (index);  
   4a464:	e13ff917 	ldw	r4,-28(fp)
   4a468:	0048b280 	call	48b28 <alt_release_fd>
    ALT_ERRNO = -status;
   4a46c:	004a24c0 	call	4a24c <alt_get_errno>
   4a470:	1007883a 	mov	r3,r2
   4a474:	e0bffa17 	ldw	r2,-24(fp)
   4a478:	0085c83a 	sub	r2,zero,r2
   4a47c:	18800015 	stw	r2,0(r3)
    return -1;
   4a480:	00bfffc4 	movi	r2,-1
   4a484:	00000106 	br	4a48c <open+0x140>
  }
  
  /* return the reference upon success */

  return index;
   4a488:	e0bff917 	ldw	r2,-28(fp)
}
   4a48c:	e037883a 	mov	sp,fp
   4a490:	dfc00117 	ldw	ra,4(sp)
   4a494:	df000017 	ldw	fp,0(sp)
   4a498:	dec00204 	addi	sp,sp,8
   4a49c:	f800283a 	ret

0004a4a0 <alt_alarm_stop>:
 * alarms. Alternatively an alarm can unregister itself by returning zero when 
 * the alarm executes.
 */

void alt_alarm_stop (alt_alarm* alarm)
{
   4a4a0:	defffa04 	addi	sp,sp,-24
   4a4a4:	df000515 	stw	fp,20(sp)
   4a4a8:	df000504 	addi	fp,sp,20
   4a4ac:	e13fff15 	stw	r4,-4(fp)
static ALT_INLINE alt_irq_context ALT_ALWAYS_INLINE 
       alt_irq_disable_all (void)
{
  alt_irq_context context;

  NIOS2_READ_STATUS (context);
   4a4b0:	0005303a 	rdctl	r2,status
   4a4b4:	e0bffc15 	stw	r2,-16(fp)

  NIOS2_WRITE_STATUS (context & ~NIOS2_STATUS_PIE_MSK);
   4a4b8:	e0fffc17 	ldw	r3,-16(fp)
   4a4bc:	00bfff84 	movi	r2,-2
   4a4c0:	1884703a 	and	r2,r3,r2
   4a4c4:	1001703a 	wrctl	status,r2
  
  return context;
   4a4c8:	e0bffc17 	ldw	r2,-16(fp)
  alt_irq_context irq_context;

  irq_context = alt_irq_disable_all();
   4a4cc:	e0bffb15 	stw	r2,-20(fp)
  alt_llist_remove (&alarm->llist);
   4a4d0:	e0bfff17 	ldw	r2,-4(fp)
   4a4d4:	e0bffd15 	stw	r2,-12(fp)
 * input argument is the element to remove.
 */
     
static ALT_INLINE void ALT_ALWAYS_INLINE alt_llist_remove(alt_llist* entry)
{
  entry->next->previous = entry->previous;
   4a4d8:	e0bffd17 	ldw	r2,-12(fp)
   4a4dc:	10800017 	ldw	r2,0(r2)
   4a4e0:	e0fffd17 	ldw	r3,-12(fp)
   4a4e4:	18c00117 	ldw	r3,4(r3)
   4a4e8:	10c00115 	stw	r3,4(r2)
  entry->previous->next = entry->next;
   4a4ec:	e0bffd17 	ldw	r2,-12(fp)
   4a4f0:	10800117 	ldw	r2,4(r2)
   4a4f4:	e0fffd17 	ldw	r3,-12(fp)
   4a4f8:	18c00017 	ldw	r3,0(r3)
   4a4fc:	10c00015 	stw	r3,0(r2)
  /* 
   * Set the entry to point to itself, so that any further calls to
   * alt_llist_remove() are harmless.
   */

  entry->previous = entry;
   4a500:	e0bffd17 	ldw	r2,-12(fp)
   4a504:	e0fffd17 	ldw	r3,-12(fp)
   4a508:	10c00115 	stw	r3,4(r2)
  entry->next     = entry;
   4a50c:	e0bffd17 	ldw	r2,-12(fp)
   4a510:	e0fffd17 	ldw	r3,-12(fp)
   4a514:	10c00015 	stw	r3,0(r2)
   4a518:	e0bffb17 	ldw	r2,-20(fp)
   4a51c:	e0bffe15 	stw	r2,-8(fp)
  status &= ~NIOS2_STATUS_PIE_MSK;
  status |= (context & NIOS2_STATUS_PIE_MSK);
  
  NIOS2_WRITE_STATUS (status);
#else
  NIOS2_WRITE_STATUS (context);
   4a520:	e0bffe17 	ldw	r2,-8(fp)
   4a524:	1001703a 	wrctl	status,r2
  alt_irq_enable_all (irq_context);
}
   4a528:	0001883a 	nop
   4a52c:	e037883a 	mov	sp,fp
   4a530:	df000017 	ldw	fp,0(sp)
   4a534:	dec00104 	addi	sp,sp,4
   4a538:	f800283a 	ret

0004a53c <alt_tick>:
 * 
 * alt_tick() is expected to run at interrupt level.
 */

void alt_tick (void)
{
   4a53c:	defffb04 	addi	sp,sp,-20
   4a540:	dfc00415 	stw	ra,16(sp)
   4a544:	df000315 	stw	fp,12(sp)
   4a548:	df000304 	addi	fp,sp,12
  alt_alarm* next;
  alt_alarm* alarm = (alt_alarm*) alt_alarm_list.next;
   4a54c:	d0a00c17 	ldw	r2,-32720(gp)
   4a550:	e0bffd15 	stw	r2,-12(fp)

  alt_u32    next_callback;

  /* update the tick counter */

  _alt_nticks++;
   4a554:	d0a6b217 	ldw	r2,-25912(gp)
   4a558:	10800044 	addi	r2,r2,1
   4a55c:	d0a6b215 	stw	r2,-25912(gp)

  /* process the registered callbacks */

  while (alarm != (alt_alarm*) &alt_alarm_list)
   4a560:	00002e06 	br	4a61c <alt_tick+0xe0>
  {
    next = (alt_alarm*) alarm->llist.next;
   4a564:	e0bffd17 	ldw	r2,-12(fp)
   4a568:	10800017 	ldw	r2,0(r2)
   4a56c:	e0bffe15 	stw	r2,-8(fp)
    /* 
     * Upon the tick-counter rolling over it is safe to clear the 
     * roll-over flag; once the flag is cleared this (or subsequnt)
     * tick events are enabled to generate an alarm event. 
     */
    if ((alarm->rollover) && (_alt_nticks == 0))
   4a570:	e0bffd17 	ldw	r2,-12(fp)
   4a574:	10800403 	ldbu	r2,16(r2)
   4a578:	10803fcc 	andi	r2,r2,255
   4a57c:	10000426 	beq	r2,zero,4a590 <alt_tick+0x54>
   4a580:	d0a6b217 	ldw	r2,-25912(gp)
   4a584:	1000021e 	bne	r2,zero,4a590 <alt_tick+0x54>
    {
      alarm->rollover = 0;
   4a588:	e0bffd17 	ldw	r2,-12(fp)
   4a58c:	10000405 	stb	zero,16(r2)
    }
    
    /* if the alarm period has expired, make the callback */    
    if ((alarm->time <= _alt_nticks) && (alarm->rollover == 0))
   4a590:	e0bffd17 	ldw	r2,-12(fp)
   4a594:	10800217 	ldw	r2,8(r2)
   4a598:	d0e6b217 	ldw	r3,-25912(gp)
   4a59c:	18801d36 	bltu	r3,r2,4a614 <alt_tick+0xd8>
   4a5a0:	e0bffd17 	ldw	r2,-12(fp)
   4a5a4:	10800403 	ldbu	r2,16(r2)
   4a5a8:	10803fcc 	andi	r2,r2,255
   4a5ac:	1000191e 	bne	r2,zero,4a614 <alt_tick+0xd8>
    {
      next_callback = alarm->callback (alarm->context);
   4a5b0:	e0bffd17 	ldw	r2,-12(fp)
   4a5b4:	10800317 	ldw	r2,12(r2)
   4a5b8:	e0fffd17 	ldw	r3,-12(fp)
   4a5bc:	18c00517 	ldw	r3,20(r3)
   4a5c0:	1809883a 	mov	r4,r3
   4a5c4:	103ee83a 	callr	r2
   4a5c8:	e0bfff15 	stw	r2,-4(fp)

      /* deactivate the alarm if the return value is zero */

      if (next_callback == 0)
   4a5cc:	e0bfff17 	ldw	r2,-4(fp)
   4a5d0:	1000031e 	bne	r2,zero,4a5e0 <alt_tick+0xa4>
      {
        alt_alarm_stop (alarm);
   4a5d4:	e13ffd17 	ldw	r4,-12(fp)
   4a5d8:	004a4a00 	call	4a4a0 <alt_alarm_stop>
   4a5dc:	00000d06 	br	4a614 <alt_tick+0xd8>
      }
      else
      {
        alarm->time += next_callback;
   4a5e0:	e0bffd17 	ldw	r2,-12(fp)
   4a5e4:	10c00217 	ldw	r3,8(r2)
   4a5e8:	e0bfff17 	ldw	r2,-4(fp)
   4a5ec:	1887883a 	add	r3,r3,r2
   4a5f0:	e0bffd17 	ldw	r2,-12(fp)
   4a5f4:	10c00215 	stw	r3,8(r2)
        /* 
         * If the desired alarm time causes a roll-over, set the rollover
         * flag. This will prevent the subsequent tick event from causing
         * an alarm too early.
         */
        if(alarm->time < _alt_nticks)
   4a5f8:	e0bffd17 	ldw	r2,-12(fp)
   4a5fc:	10c00217 	ldw	r3,8(r2)
   4a600:	d0a6b217 	ldw	r2,-25912(gp)
   4a604:	1880032e 	bgeu	r3,r2,4a614 <alt_tick+0xd8>
        {
          alarm->rollover = 1;
   4a608:	e0bffd17 	ldw	r2,-12(fp)
   4a60c:	00c00044 	movi	r3,1
   4a610:	10c00405 	stb	r3,16(r2)
        }
      }
    }
    alarm = next;
   4a614:	e0bffe17 	ldw	r2,-8(fp)
   4a618:	e0bffd15 	stw	r2,-12(fp)

  _alt_nticks++;

  /* process the registered callbacks */

  while (alarm != (alt_alarm*) &alt_alarm_list)
   4a61c:	e0fffd17 	ldw	r3,-12(fp)
   4a620:	d0a00c04 	addi	r2,gp,-32720
   4a624:	18bfcf1e 	bne	r3,r2,4a564 <__alt_data_end+0xfffe3464>

  /* 
   * Update the operating system specific timer facilities.
   */

  ALT_OS_TIME_TICK();
   4a628:	0001883a 	nop
}
   4a62c:	0001883a 	nop
   4a630:	e037883a 	mov	sp,fp
   4a634:	dfc00117 	ldw	ra,4(sp)
   4a638:	df000017 	ldw	fp,0(sp)
   4a63c:	dec00204 	addi	sp,sp,8
   4a640:	f800283a 	ret

0004a644 <altera_nios2_qsys_irq_init>:
/*
 * To initialize the internal interrupt controller, just clear the IENABLE
 * register so that all possible IRQs are disabled.
 */
void altera_nios2_qsys_irq_init(void) 
{
   4a644:	deffff04 	addi	sp,sp,-4
   4a648:	df000015 	stw	fp,0(sp)
   4a64c:	d839883a 	mov	fp,sp
    NIOS2_WRITE_IENABLE(0);
   4a650:	000170fa 	wrctl	ienable,zero
}
   4a654:	0001883a 	nop
   4a658:	e037883a 	mov	sp,fp
   4a65c:	df000017 	ldw	fp,0(sp)
   4a660:	dec00104 	addi	sp,sp,4
   4a664:	f800283a 	ret

0004a668 <alt_find_dev>:
 * "name" must be an exact match for the devices registered name for a match to
 * be found.
 */
 
alt_dev* alt_find_dev(const char* name, alt_llist* llist)
{
   4a668:	defffa04 	addi	sp,sp,-24
   4a66c:	dfc00515 	stw	ra,20(sp)
   4a670:	df000415 	stw	fp,16(sp)
   4a674:	df000404 	addi	fp,sp,16
   4a678:	e13ffe15 	stw	r4,-8(fp)
   4a67c:	e17fff15 	stw	r5,-4(fp)
  alt_dev* next = (alt_dev*) llist->next;
   4a680:	e0bfff17 	ldw	r2,-4(fp)
   4a684:	10800017 	ldw	r2,0(r2)
   4a688:	e0bffc15 	stw	r2,-16(fp)
  alt_32 len;

  len  = strlen(name) + 1;
   4a68c:	e13ffe17 	ldw	r4,-8(fp)
   4a690:	00458ec0 	call	458ec <strlen>
   4a694:	10800044 	addi	r2,r2,1
   4a698:	e0bffd15 	stw	r2,-12(fp)
  /*
   * Check each list entry in turn, until a match is found, or we reach the
   * end of the list (i.e. next winds up pointing back to the list head).
   */ 

  while (next != (alt_dev*) llist)
   4a69c:	00000d06 	br	4a6d4 <alt_find_dev+0x6c>
    /* 
     * memcmp() is used here rather than strcmp() in order to reduce the size
     * of the executable.
     */

    if (!memcmp (next->name, name, len))
   4a6a0:	e0bffc17 	ldw	r2,-16(fp)
   4a6a4:	10800217 	ldw	r2,8(r2)
   4a6a8:	e0fffd17 	ldw	r3,-12(fp)
   4a6ac:	180d883a 	mov	r6,r3
   4a6b0:	e17ffe17 	ldw	r5,-8(fp)
   4a6b4:	1009883a 	mov	r4,r2
   4a6b8:	004a9800 	call	4a980 <memcmp>
   4a6bc:	1000021e 	bne	r2,zero,4a6c8 <alt_find_dev+0x60>
    {
      /* match found */

      return next;
   4a6c0:	e0bffc17 	ldw	r2,-16(fp)
   4a6c4:	00000706 	br	4a6e4 <alt_find_dev+0x7c>
    }
    next = (alt_dev*) next->llist.next;
   4a6c8:	e0bffc17 	ldw	r2,-16(fp)
   4a6cc:	10800017 	ldw	r2,0(r2)
   4a6d0:	e0bffc15 	stw	r2,-16(fp)
  /*
   * Check each list entry in turn, until a match is found, or we reach the
   * end of the list (i.e. next winds up pointing back to the list head).
   */ 

  while (next != (alt_dev*) llist)
   4a6d4:	e0fffc17 	ldw	r3,-16(fp)
   4a6d8:	e0bfff17 	ldw	r2,-4(fp)
   4a6dc:	18bff01e 	bne	r3,r2,4a6a0 <__alt_data_end+0xfffe35a0>
    next = (alt_dev*) next->llist.next;
  }
  
  /* No match found */
  
  return NULL;
   4a6e0:	0005883a 	mov	r2,zero
}
   4a6e4:	e037883a 	mov	sp,fp
   4a6e8:	dfc00117 	ldw	ra,4(sp)
   4a6ec:	df000017 	ldw	fp,0(sp)
   4a6f0:	dec00204 	addi	sp,sp,8
   4a6f4:	f800283a 	ret

0004a6f8 <alt_find_file>:
 * either '/' or '\0' is the prefix of the filename. For example the filename:
 * "/myfilesystem/junk.txt" would match: "/myfilesystem", but not: "/myfile". 
 */
 
alt_dev* alt_find_file (const char* name)
{
   4a6f8:	defffb04 	addi	sp,sp,-20
   4a6fc:	dfc00415 	stw	ra,16(sp)
   4a700:	df000315 	stw	fp,12(sp)
   4a704:	df000304 	addi	fp,sp,12
   4a708:	e13fff15 	stw	r4,-4(fp)
  alt_dev* next = (alt_dev*) alt_fs_list.next;   
   4a70c:	d0a00417 	ldw	r2,-32752(gp)
   4a710:	e0bffd15 	stw	r2,-12(fp)
  /*
   * Check each list entry in turn, until a match is found, or we reach the
   * end of the list (i.e. next winds up pointing back to the list head).
   */ 
 
  while (next != (alt_dev*) &alt_fs_list)
   4a714:	00003106 	br	4a7dc <alt_find_file+0xe4>
  {
    len = strlen(next->name);
   4a718:	e0bffd17 	ldw	r2,-12(fp)
   4a71c:	10800217 	ldw	r2,8(r2)
   4a720:	1009883a 	mov	r4,r2
   4a724:	00458ec0 	call	458ec <strlen>
   4a728:	e0bffe15 	stw	r2,-8(fp)
    
    if (next->name[len-1] == '/')
   4a72c:	e0bffd17 	ldw	r2,-12(fp)
   4a730:	10c00217 	ldw	r3,8(r2)
   4a734:	e0bffe17 	ldw	r2,-8(fp)
   4a738:	10bfffc4 	addi	r2,r2,-1
   4a73c:	1885883a 	add	r2,r3,r2
   4a740:	10800003 	ldbu	r2,0(r2)
   4a744:	10803fcc 	andi	r2,r2,255
   4a748:	1080201c 	xori	r2,r2,128
   4a74c:	10bfe004 	addi	r2,r2,-128
   4a750:	10800bd8 	cmpnei	r2,r2,47
   4a754:	1000031e 	bne	r2,zero,4a764 <alt_find_file+0x6c>
    {
      len -= 1;
   4a758:	e0bffe17 	ldw	r2,-8(fp)
   4a75c:	10bfffc4 	addi	r2,r2,-1
   4a760:	e0bffe15 	stw	r2,-8(fp)
    }

    if (((name[len] == '/') || (name[len] == '\0')) && 
   4a764:	e0bffe17 	ldw	r2,-8(fp)
   4a768:	e0ffff17 	ldw	r3,-4(fp)
   4a76c:	1885883a 	add	r2,r3,r2
   4a770:	10800003 	ldbu	r2,0(r2)
   4a774:	10803fcc 	andi	r2,r2,255
   4a778:	1080201c 	xori	r2,r2,128
   4a77c:	10bfe004 	addi	r2,r2,-128
   4a780:	10800be0 	cmpeqi	r2,r2,47
   4a784:	1000081e 	bne	r2,zero,4a7a8 <alt_find_file+0xb0>
   4a788:	e0bffe17 	ldw	r2,-8(fp)
   4a78c:	e0ffff17 	ldw	r3,-4(fp)
   4a790:	1885883a 	add	r2,r3,r2
   4a794:	10800003 	ldbu	r2,0(r2)
   4a798:	10803fcc 	andi	r2,r2,255
   4a79c:	1080201c 	xori	r2,r2,128
   4a7a0:	10bfe004 	addi	r2,r2,-128
   4a7a4:	10000a1e 	bne	r2,zero,4a7d0 <alt_find_file+0xd8>
        !memcmp (next->name, name, len))
   4a7a8:	e0bffd17 	ldw	r2,-12(fp)
   4a7ac:	10800217 	ldw	r2,8(r2)
   4a7b0:	e0fffe17 	ldw	r3,-8(fp)
   4a7b4:	180d883a 	mov	r6,r3
   4a7b8:	e17fff17 	ldw	r5,-4(fp)
   4a7bc:	1009883a 	mov	r4,r2
   4a7c0:	004a9800 	call	4a980 <memcmp>
    if (next->name[len-1] == '/')
    {
      len -= 1;
    }

    if (((name[len] == '/') || (name[len] == '\0')) && 
   4a7c4:	1000021e 	bne	r2,zero,4a7d0 <alt_find_file+0xd8>
        !memcmp (next->name, name, len))
    {
      /* match found */

      return next;
   4a7c8:	e0bffd17 	ldw	r2,-12(fp)
   4a7cc:	00000706 	br	4a7ec <alt_find_file+0xf4>
    }
    next = (alt_dev*) next->llist.next;
   4a7d0:	e0bffd17 	ldw	r2,-12(fp)
   4a7d4:	10800017 	ldw	r2,0(r2)
   4a7d8:	e0bffd15 	stw	r2,-12(fp)
  /*
   * Check each list entry in turn, until a match is found, or we reach the
   * end of the list (i.e. next winds up pointing back to the list head).
   */ 
 
  while (next != (alt_dev*) &alt_fs_list)
   4a7dc:	e0fffd17 	ldw	r3,-12(fp)
   4a7e0:	d0a00404 	addi	r2,gp,-32752
   4a7e4:	18bfcc1e 	bne	r3,r2,4a718 <__alt_data_end+0xfffe3618>
    next = (alt_dev*) next->llist.next;
  }
  
  /* No match found */
  
  return NULL;     
   4a7e8:	0005883a 	mov	r2,zero
}
   4a7ec:	e037883a 	mov	sp,fp
   4a7f0:	dfc00117 	ldw	ra,4(sp)
   4a7f4:	df000017 	ldw	fp,0(sp)
   4a7f8:	dec00204 	addi	sp,sp,8
   4a7fc:	f800283a 	ret

0004a800 <alt_get_fd>:
 * the offset of the file descriptor within the file descriptor array). A
 * negative value indicates failure.
 */

int alt_get_fd (alt_dev* dev)
{
   4a800:	defffc04 	addi	sp,sp,-16
   4a804:	df000315 	stw	fp,12(sp)
   4a808:	df000304 	addi	fp,sp,12
   4a80c:	e13fff15 	stw	r4,-4(fp)
  alt_32 i;
  int rc = -EMFILE;
   4a810:	00bffa04 	movi	r2,-24
   4a814:	e0bffe15 	stw	r2,-8(fp)
   * indicates the highest file descriptor ever allocated. This is used to
   * improve efficency when searching the file descriptor list, and 
   * therefore reduce contention on the alt_fd_list_lock semaphore. 
   */

  for (i = 0; i < ALT_MAX_FD; i++)
   4a818:	e03ffd15 	stw	zero,-12(fp)
   4a81c:	00001906 	br	4a884 <alt_get_fd+0x84>
  {
    if (!alt_fd_list[i].dev)
   4a820:	00800174 	movhi	r2,5
   4a824:	10ae1204 	addi	r2,r2,-18360
   4a828:	e0fffd17 	ldw	r3,-12(fp)
   4a82c:	18c00324 	muli	r3,r3,12
   4a830:	10c5883a 	add	r2,r2,r3
   4a834:	10800017 	ldw	r2,0(r2)
   4a838:	10000f1e 	bne	r2,zero,4a878 <alt_get_fd+0x78>
    {
      alt_fd_list[i].dev = dev;
   4a83c:	00800174 	movhi	r2,5
   4a840:	10ae1204 	addi	r2,r2,-18360
   4a844:	e0fffd17 	ldw	r3,-12(fp)
   4a848:	18c00324 	muli	r3,r3,12
   4a84c:	10c5883a 	add	r2,r2,r3
   4a850:	e0ffff17 	ldw	r3,-4(fp)
   4a854:	10c00015 	stw	r3,0(r2)
      if (i > alt_max_fd)
   4a858:	d0e00817 	ldw	r3,-32736(gp)
   4a85c:	e0bffd17 	ldw	r2,-12(fp)
   4a860:	1880020e 	bge	r3,r2,4a86c <alt_get_fd+0x6c>
      {
        alt_max_fd = i;
   4a864:	e0bffd17 	ldw	r2,-12(fp)
   4a868:	d0a00815 	stw	r2,-32736(gp)
      }
      rc = i;
   4a86c:	e0bffd17 	ldw	r2,-12(fp)
   4a870:	e0bffe15 	stw	r2,-8(fp)
      goto alt_get_fd_exit;
   4a874:	00000606 	br	4a890 <alt_get_fd+0x90>
   * indicates the highest file descriptor ever allocated. This is used to
   * improve efficency when searching the file descriptor list, and 
   * therefore reduce contention on the alt_fd_list_lock semaphore. 
   */

  for (i = 0; i < ALT_MAX_FD; i++)
   4a878:	e0bffd17 	ldw	r2,-12(fp)
   4a87c:	10800044 	addi	r2,r2,1
   4a880:	e0bffd15 	stw	r2,-12(fp)
   4a884:	e0bffd17 	ldw	r2,-12(fp)
   4a888:	10800810 	cmplti	r2,r2,32
   4a88c:	103fe41e 	bne	r2,zero,4a820 <__alt_data_end+0xfffe3720>
   * file descriptor pool.
   */

  ALT_SEM_POST(alt_fd_list_lock);

  return rc;
   4a890:	e0bffe17 	ldw	r2,-8(fp)
}
   4a894:	e037883a 	mov	sp,fp
   4a898:	df000017 	ldw	fp,0(sp)
   4a89c:	dec00104 	addi	sp,sp,4
   4a8a0:	f800283a 	ret

0004a8a4 <alt_icache_flush>:
 * alt_icache_flush() is called to flush the instruction cache for a memory
 * region of length "len" bytes, starting at address "start".
 */

void alt_icache_flush (void* start, alt_u32 len)
{
   4a8a4:	defffb04 	addi	sp,sp,-20
   4a8a8:	df000415 	stw	fp,16(sp)
   4a8ac:	df000404 	addi	fp,sp,16
   4a8b0:	e13ffe15 	stw	r4,-8(fp)
   4a8b4:	e17fff15 	stw	r5,-4(fp)

  /*
   * This is the most we would ever need to flush.
   */
 
  if (len > NIOS2_ICACHE_SIZE)
   4a8b8:	e0bfff17 	ldw	r2,-4(fp)
   4a8bc:	10840070 	cmpltui	r2,r2,4097
   4a8c0:	1000021e 	bne	r2,zero,4a8cc <alt_icache_flush+0x28>
  {
    len = NIOS2_ICACHE_SIZE;
   4a8c4:	00840004 	movi	r2,4096
   4a8c8:	e0bfff15 	stw	r2,-4(fp)
  }

  end = ((char*) start) + len;
   4a8cc:	e0fffe17 	ldw	r3,-8(fp)
   4a8d0:	e0bfff17 	ldw	r2,-4(fp)
   4a8d4:	1885883a 	add	r2,r3,r2
   4a8d8:	e0bffd15 	stw	r2,-12(fp)

  for (i = start; i < end; i+= NIOS2_ICACHE_LINE_SIZE)
   4a8dc:	e0bffe17 	ldw	r2,-8(fp)
   4a8e0:	e0bffc15 	stw	r2,-16(fp)
   4a8e4:	00000506 	br	4a8fc <alt_icache_flush+0x58>
  { 
    __asm__ volatile ("flushi %0" :: "r" (i)); 
   4a8e8:	e0bffc17 	ldw	r2,-16(fp)
   4a8ec:	1000603a 	flushi	r2
    len = NIOS2_ICACHE_SIZE;
  }

  end = ((char*) start) + len;

  for (i = start; i < end; i+= NIOS2_ICACHE_LINE_SIZE)
   4a8f0:	e0bffc17 	ldw	r2,-16(fp)
   4a8f4:	10800804 	addi	r2,r2,32
   4a8f8:	e0bffc15 	stw	r2,-16(fp)
   4a8fc:	e0fffc17 	ldw	r3,-16(fp)
   4a900:	e0bffd17 	ldw	r2,-12(fp)
   4a904:	18bff836 	bltu	r3,r2,4a8e8 <__alt_data_end+0xfffe37e8>
   * For an unaligned flush request, we've got one more line left.
   * Note that this is dependent on NIOS2_ICACHE_LINE_SIZE to be a 
   * multiple of 2 (which it always is).
   */

  if (((alt_u32) start) & (NIOS2_ICACHE_LINE_SIZE - 1))
   4a908:	e0bffe17 	ldw	r2,-8(fp)
   4a90c:	108007cc 	andi	r2,r2,31
   4a910:	10000226 	beq	r2,zero,4a91c <alt_icache_flush+0x78>
  {
    __asm__ volatile ("flushi %0" :: "r" (i));
   4a914:	e0bffc17 	ldw	r2,-16(fp)
   4a918:	1000603a 	flushi	r2
  /* 
   * Having flushed the cache, flush any stale instructions in the 
   * pipeline 
   */

  __asm__ volatile ("flushp");
   4a91c:	0000203a 	flushp

#endif /* NIOS2_ICACHE_SIZE > 0 */
}
   4a920:	0001883a 	nop
   4a924:	e037883a 	mov	sp,fp
   4a928:	df000017 	ldw	fp,0(sp)
   4a92c:	dec00104 	addi	sp,sp,4
   4a930:	f800283a 	ret

0004a934 <atexit>:
   4a934:	200b883a 	mov	r5,r4
   4a938:	000f883a 	mov	r7,zero
   4a93c:	000d883a 	mov	r6,zero
   4a940:	0009883a 	mov	r4,zero
   4a944:	004a9fc1 	jmpi	4a9fc <__register_exitproc>

0004a948 <exit>:
   4a948:	defffe04 	addi	sp,sp,-8
   4a94c:	000b883a 	mov	r5,zero
   4a950:	dc000015 	stw	r16,0(sp)
   4a954:	dfc00115 	stw	ra,4(sp)
   4a958:	2021883a 	mov	r16,r4
   4a95c:	004ab140 	call	4ab14 <__call_exitprocs>
   4a960:	00800174 	movhi	r2,5
   4a964:	10b28a04 	addi	r2,r2,-13784
   4a968:	11000017 	ldw	r4,0(r2)
   4a96c:	20800f17 	ldw	r2,60(r4)
   4a970:	10000126 	beq	r2,zero,4a978 <exit+0x30>
   4a974:	103ee83a 	callr	r2
   4a978:	8009883a 	mov	r4,r16
   4a97c:	004ac940 	call	4ac94 <_exit>

0004a980 <memcmp>:
   4a980:	01c000c4 	movi	r7,3
   4a984:	3980192e 	bgeu	r7,r6,4a9ec <memcmp+0x6c>
   4a988:	2144b03a 	or	r2,r4,r5
   4a98c:	11c4703a 	and	r2,r2,r7
   4a990:	10000f26 	beq	r2,zero,4a9d0 <memcmp+0x50>
   4a994:	20800003 	ldbu	r2,0(r4)
   4a998:	28c00003 	ldbu	r3,0(r5)
   4a99c:	10c0151e 	bne	r2,r3,4a9f4 <memcmp+0x74>
   4a9a0:	31bfff84 	addi	r6,r6,-2
   4a9a4:	01ffffc4 	movi	r7,-1
   4a9a8:	00000406 	br	4a9bc <memcmp+0x3c>
   4a9ac:	20800003 	ldbu	r2,0(r4)
   4a9b0:	28c00003 	ldbu	r3,0(r5)
   4a9b4:	31bfffc4 	addi	r6,r6,-1
   4a9b8:	10c00e1e 	bne	r2,r3,4a9f4 <memcmp+0x74>
   4a9bc:	21000044 	addi	r4,r4,1
   4a9c0:	29400044 	addi	r5,r5,1
   4a9c4:	31fff91e 	bne	r6,r7,4a9ac <__alt_data_end+0xfffe38ac>
   4a9c8:	0005883a 	mov	r2,zero
   4a9cc:	f800283a 	ret
   4a9d0:	20c00017 	ldw	r3,0(r4)
   4a9d4:	28800017 	ldw	r2,0(r5)
   4a9d8:	18bfee1e 	bne	r3,r2,4a994 <__alt_data_end+0xfffe3894>
   4a9dc:	31bfff04 	addi	r6,r6,-4
   4a9e0:	21000104 	addi	r4,r4,4
   4a9e4:	29400104 	addi	r5,r5,4
   4a9e8:	39bff936 	bltu	r7,r6,4a9d0 <__alt_data_end+0xfffe38d0>
   4a9ec:	303fe91e 	bne	r6,zero,4a994 <__alt_data_end+0xfffe3894>
   4a9f0:	003ff506 	br	4a9c8 <__alt_data_end+0xfffe38c8>
   4a9f4:	10c5c83a 	sub	r2,r2,r3
   4a9f8:	f800283a 	ret

0004a9fc <__register_exitproc>:
   4a9fc:	defffa04 	addi	sp,sp,-24
   4aa00:	dc000315 	stw	r16,12(sp)
   4aa04:	04000174 	movhi	r16,5
   4aa08:	84328a04 	addi	r16,r16,-13784
   4aa0c:	80c00017 	ldw	r3,0(r16)
   4aa10:	dc400415 	stw	r17,16(sp)
   4aa14:	dfc00515 	stw	ra,20(sp)
   4aa18:	18805217 	ldw	r2,328(r3)
   4aa1c:	2023883a 	mov	r17,r4
   4aa20:	10003726 	beq	r2,zero,4ab00 <__register_exitproc+0x104>
   4aa24:	10c00117 	ldw	r3,4(r2)
   4aa28:	010007c4 	movi	r4,31
   4aa2c:	20c00e16 	blt	r4,r3,4aa68 <__register_exitproc+0x6c>
   4aa30:	1a000044 	addi	r8,r3,1
   4aa34:	8800221e 	bne	r17,zero,4aac0 <__register_exitproc+0xc4>
   4aa38:	18c00084 	addi	r3,r3,2
   4aa3c:	18c7883a 	add	r3,r3,r3
   4aa40:	18c7883a 	add	r3,r3,r3
   4aa44:	12000115 	stw	r8,4(r2)
   4aa48:	10c7883a 	add	r3,r2,r3
   4aa4c:	19400015 	stw	r5,0(r3)
   4aa50:	0005883a 	mov	r2,zero
   4aa54:	dfc00517 	ldw	ra,20(sp)
   4aa58:	dc400417 	ldw	r17,16(sp)
   4aa5c:	dc000317 	ldw	r16,12(sp)
   4aa60:	dec00604 	addi	sp,sp,24
   4aa64:	f800283a 	ret
   4aa68:	00800034 	movhi	r2,0
   4aa6c:	10800004 	addi	r2,r2,0
   4aa70:	10002626 	beq	r2,zero,4ab0c <__register_exitproc+0x110>
   4aa74:	01006404 	movi	r4,400
   4aa78:	d9400015 	stw	r5,0(sp)
   4aa7c:	d9800115 	stw	r6,4(sp)
   4aa80:	d9c00215 	stw	r7,8(sp)
   4aa84:	00000000 	call	0 <__alt_mem_onchip_memory2-0x40000>
   4aa88:	d9400017 	ldw	r5,0(sp)
   4aa8c:	d9800117 	ldw	r6,4(sp)
   4aa90:	d9c00217 	ldw	r7,8(sp)
   4aa94:	10001d26 	beq	r2,zero,4ab0c <__register_exitproc+0x110>
   4aa98:	81000017 	ldw	r4,0(r16)
   4aa9c:	10000115 	stw	zero,4(r2)
   4aaa0:	02000044 	movi	r8,1
   4aaa4:	22405217 	ldw	r9,328(r4)
   4aaa8:	0007883a 	mov	r3,zero
   4aaac:	12400015 	stw	r9,0(r2)
   4aab0:	20805215 	stw	r2,328(r4)
   4aab4:	10006215 	stw	zero,392(r2)
   4aab8:	10006315 	stw	zero,396(r2)
   4aabc:	883fde26 	beq	r17,zero,4aa38 <__alt_data_end+0xfffe3938>
   4aac0:	18c9883a 	add	r4,r3,r3
   4aac4:	2109883a 	add	r4,r4,r4
   4aac8:	1109883a 	add	r4,r2,r4
   4aacc:	21802215 	stw	r6,136(r4)
   4aad0:	01800044 	movi	r6,1
   4aad4:	12406217 	ldw	r9,392(r2)
   4aad8:	30cc983a 	sll	r6,r6,r3
   4aadc:	4992b03a 	or	r9,r9,r6
   4aae0:	12406215 	stw	r9,392(r2)
   4aae4:	21c04215 	stw	r7,264(r4)
   4aae8:	01000084 	movi	r4,2
   4aaec:	893fd21e 	bne	r17,r4,4aa38 <__alt_data_end+0xfffe3938>
   4aaf0:	11006317 	ldw	r4,396(r2)
   4aaf4:	218cb03a 	or	r6,r4,r6
   4aaf8:	11806315 	stw	r6,396(r2)
   4aafc:	003fce06 	br	4aa38 <__alt_data_end+0xfffe3938>
   4ab00:	18805304 	addi	r2,r3,332
   4ab04:	18805215 	stw	r2,328(r3)
   4ab08:	003fc606 	br	4aa24 <__alt_data_end+0xfffe3924>
   4ab0c:	00bfffc4 	movi	r2,-1
   4ab10:	003fd006 	br	4aa54 <__alt_data_end+0xfffe3954>

0004ab14 <__call_exitprocs>:
   4ab14:	defff504 	addi	sp,sp,-44
   4ab18:	df000915 	stw	fp,36(sp)
   4ab1c:	dd400615 	stw	r21,24(sp)
   4ab20:	dc800315 	stw	r18,12(sp)
   4ab24:	dfc00a15 	stw	ra,40(sp)
   4ab28:	ddc00815 	stw	r23,32(sp)
   4ab2c:	dd800715 	stw	r22,28(sp)
   4ab30:	dd000515 	stw	r20,20(sp)
   4ab34:	dcc00415 	stw	r19,16(sp)
   4ab38:	dc400215 	stw	r17,8(sp)
   4ab3c:	dc000115 	stw	r16,4(sp)
   4ab40:	d9000015 	stw	r4,0(sp)
   4ab44:	2839883a 	mov	fp,r5
   4ab48:	04800044 	movi	r18,1
   4ab4c:	057fffc4 	movi	r21,-1
   4ab50:	00800174 	movhi	r2,5
   4ab54:	10b28a04 	addi	r2,r2,-13784
   4ab58:	12000017 	ldw	r8,0(r2)
   4ab5c:	45005217 	ldw	r20,328(r8)
   4ab60:	44c05204 	addi	r19,r8,328
   4ab64:	a0001c26 	beq	r20,zero,4abd8 <__call_exitprocs+0xc4>
   4ab68:	a0800117 	ldw	r2,4(r20)
   4ab6c:	15ffffc4 	addi	r23,r2,-1
   4ab70:	b8000d16 	blt	r23,zero,4aba8 <__call_exitprocs+0x94>
   4ab74:	14000044 	addi	r16,r2,1
   4ab78:	8421883a 	add	r16,r16,r16
   4ab7c:	8421883a 	add	r16,r16,r16
   4ab80:	84402004 	addi	r17,r16,128
   4ab84:	a463883a 	add	r17,r20,r17
   4ab88:	a421883a 	add	r16,r20,r16
   4ab8c:	e0001e26 	beq	fp,zero,4ac08 <__call_exitprocs+0xf4>
   4ab90:	80804017 	ldw	r2,256(r16)
   4ab94:	e0801c26 	beq	fp,r2,4ac08 <__call_exitprocs+0xf4>
   4ab98:	bdffffc4 	addi	r23,r23,-1
   4ab9c:	843fff04 	addi	r16,r16,-4
   4aba0:	8c7fff04 	addi	r17,r17,-4
   4aba4:	bd7ff91e 	bne	r23,r21,4ab8c <__alt_data_end+0xfffe3a8c>
   4aba8:	00800034 	movhi	r2,0
   4abac:	10800004 	addi	r2,r2,0
   4abb0:	10000926 	beq	r2,zero,4abd8 <__call_exitprocs+0xc4>
   4abb4:	a0800117 	ldw	r2,4(r20)
   4abb8:	1000301e 	bne	r2,zero,4ac7c <__call_exitprocs+0x168>
   4abbc:	a0800017 	ldw	r2,0(r20)
   4abc0:	10003226 	beq	r2,zero,4ac8c <__call_exitprocs+0x178>
   4abc4:	a009883a 	mov	r4,r20
   4abc8:	98800015 	stw	r2,0(r19)
   4abcc:	00000000 	call	0 <__alt_mem_onchip_memory2-0x40000>
   4abd0:	9d000017 	ldw	r20,0(r19)
   4abd4:	a03fe41e 	bne	r20,zero,4ab68 <__alt_data_end+0xfffe3a68>
   4abd8:	dfc00a17 	ldw	ra,40(sp)
   4abdc:	df000917 	ldw	fp,36(sp)
   4abe0:	ddc00817 	ldw	r23,32(sp)
   4abe4:	dd800717 	ldw	r22,28(sp)
   4abe8:	dd400617 	ldw	r21,24(sp)
   4abec:	dd000517 	ldw	r20,20(sp)
   4abf0:	dcc00417 	ldw	r19,16(sp)
   4abf4:	dc800317 	ldw	r18,12(sp)
   4abf8:	dc400217 	ldw	r17,8(sp)
   4abfc:	dc000117 	ldw	r16,4(sp)
   4ac00:	dec00b04 	addi	sp,sp,44
   4ac04:	f800283a 	ret
   4ac08:	a0800117 	ldw	r2,4(r20)
   4ac0c:	80c00017 	ldw	r3,0(r16)
   4ac10:	10bfffc4 	addi	r2,r2,-1
   4ac14:	15c01426 	beq	r2,r23,4ac68 <__call_exitprocs+0x154>
   4ac18:	80000015 	stw	zero,0(r16)
   4ac1c:	183fde26 	beq	r3,zero,4ab98 <__alt_data_end+0xfffe3a98>
   4ac20:	95c8983a 	sll	r4,r18,r23
   4ac24:	a0806217 	ldw	r2,392(r20)
   4ac28:	a5800117 	ldw	r22,4(r20)
   4ac2c:	2084703a 	and	r2,r4,r2
   4ac30:	10000b26 	beq	r2,zero,4ac60 <__call_exitprocs+0x14c>
   4ac34:	a0806317 	ldw	r2,396(r20)
   4ac38:	2088703a 	and	r4,r4,r2
   4ac3c:	20000c1e 	bne	r4,zero,4ac70 <__call_exitprocs+0x15c>
   4ac40:	89400017 	ldw	r5,0(r17)
   4ac44:	d9000017 	ldw	r4,0(sp)
   4ac48:	183ee83a 	callr	r3
   4ac4c:	a0800117 	ldw	r2,4(r20)
   4ac50:	15bfbf1e 	bne	r2,r22,4ab50 <__alt_data_end+0xfffe3a50>
   4ac54:	98800017 	ldw	r2,0(r19)
   4ac58:	153fcf26 	beq	r2,r20,4ab98 <__alt_data_end+0xfffe3a98>
   4ac5c:	003fbc06 	br	4ab50 <__alt_data_end+0xfffe3a50>
   4ac60:	183ee83a 	callr	r3
   4ac64:	003ff906 	br	4ac4c <__alt_data_end+0xfffe3b4c>
   4ac68:	a5c00115 	stw	r23,4(r20)
   4ac6c:	003feb06 	br	4ac1c <__alt_data_end+0xfffe3b1c>
   4ac70:	89000017 	ldw	r4,0(r17)
   4ac74:	183ee83a 	callr	r3
   4ac78:	003ff406 	br	4ac4c <__alt_data_end+0xfffe3b4c>
   4ac7c:	a0800017 	ldw	r2,0(r20)
   4ac80:	a027883a 	mov	r19,r20
   4ac84:	1029883a 	mov	r20,r2
   4ac88:	003fb606 	br	4ab64 <__alt_data_end+0xfffe3a64>
   4ac8c:	0005883a 	mov	r2,zero
   4ac90:	003ffb06 	br	4ac80 <__alt_data_end+0xfffe3b80>

0004ac94 <_exit>:
 *
 * ALT_EXIT is mapped onto the _exit() system call in alt_syscall.h
 */

void ALT_EXIT (int exit_code)
{
   4ac94:	defffd04 	addi	sp,sp,-12
   4ac98:	df000215 	stw	fp,8(sp)
   4ac9c:	df000204 	addi	fp,sp,8
   4aca0:	e13fff15 	stw	r4,-4(fp)
  ALT_LOG_PRINT_BOOT("[alt_exit.c] Entering _exit() function.\r\n");
  ALT_LOG_PRINT_BOOT("[alt_exit.c] Exit code from main was %d.\r\n",exit_code);
  /* Stop all other threads */

  ALT_LOG_PRINT_BOOT("[alt_exit.c] Calling ALT_OS_STOP().\r\n");
  ALT_OS_STOP();
   4aca4:	0001883a 	nop
   4aca8:	e0bfff17 	ldw	r2,-4(fp)
   4acac:	e0bffe15 	stw	r2,-8(fp)
/*
 * Routine called on exit.
 */
static ALT_INLINE ALT_ALWAYS_INLINE void alt_sim_halt(int exit_code)
{
  register int r2 asm ("r2") = exit_code;
   4acb0:	e0bffe17 	ldw	r2,-8(fp)
  __asm__ volatile ("\n0:\n\taddi %0,%0, -1\n\tbgt %0,zero,0b" : : "r" (ALT_CPU_FREQ/100) ); /* Delay for >30ms */

  __asm__ volatile ("break 2" : : "r"(r2), "r"(r3) ALT_GMON_DATA );

#else /* !DEBUG_STUB */
  if (r2) {
   4acb4:	10000226 	beq	r2,zero,4acc0 <_exit+0x2c>
    ALT_SIM_FAIL();
   4acb8:	002af070 	cmpltui	zero,zero,43969
   4acbc:	00000106 	br	4acc4 <_exit+0x30>
  } else {
    ALT_SIM_PASS();
   4acc0:	002af0b0 	cmpltui	zero,zero,43970
  ALT_SIM_HALT(exit_code);

  /* spin forever, since there's no where to go back to */

  ALT_LOG_PRINT_BOOT("[alt_exit.c] Spinning forever.\r\n");
  while (1);
   4acc4:	003fff06 	br	4acc4 <__alt_data_end+0xfffe3bc4>
