
2d.elf:     file format elf32-littlenios2
2d.elf
architecture: nios2:r1, flags 0x00000112:
EXEC_P, HAS_SYMS, D_PAGED
start address 0x00000230

Program Header:
    LOAD off    0x00001000 vaddr 0x00000000 paddr 0x00000000 align 2**12
         filesz 0x00000020 memsz 0x00000020 flags r-x
    LOAD off    0x00001020 vaddr 0x00000020 paddr 0x00000020 align 2**12
         filesz 0x00013458 memsz 0x00013458 flags r-x
    LOAD off    0x00014478 vaddr 0x00013478 paddr 0x00015060 align 2**12
         filesz 0x00001be8 memsz 0x00001be8 flags rw-
    LOAD off    0x00016c48 vaddr 0x00016c48 paddr 0x00016c48 align 2**12
         filesz 0x00000000 memsz 0x00000434 flags rw-

Sections:
Idx Name          Size      VMA       LMA       File off  Algn
  0 .entry        00000020  00000000  00000000  00001000  2**5
                  CONTENTS, ALLOC, LOAD, READONLY, CODE
  1 .exceptions   00000210  00000020  00000020  00001020  2**2
                  CONTENTS, ALLOC, LOAD, READONLY, CODE
  2 .text         00012c00  00000230  00000230  00001230  2**2
                  CONTENTS, ALLOC, LOAD, READONLY, CODE
  3 .rodata       00000648  00012e30  00012e30  00013e30  2**2
                  CONTENTS, ALLOC, LOAD, READONLY, DATA
  4 .rwdata       00001be8  00013478  00015060  00014478  2**2
                  CONTENTS, ALLOC, LOAD, DATA, SMALL_DATA
  5 .bss          00000434  00016c48  00016c48  00016c48  2**2
                  ALLOC, SMALL_DATA
  6 .SDRAM        00000000  0001707c  0001707c  00016060  2**0
                  CONTENTS
  7 .Onchip_SRAM  00000000  08000000  08000000  00016060  2**0
                  CONTENTS
  8 .VGA_Subsystem_Char_Buf_Subsystem_Onchip_SRAM 00000000  09000000  09000000  00016060  2**0
                  CONTENTS
  9 .comment      00000023  00000000  00000000  00016060  2**0
                  CONTENTS, READONLY
 10 .debug_aranges 00001078  00000000  00000000  00016088  2**3
                  CONTENTS, READONLY, DEBUGGING
 11 .debug_info   000252af  00000000  00000000  00017100  2**0
                  CONTENTS, READONLY, DEBUGGING
 12 .debug_abbrev 00009cbc  00000000  00000000  0003c3af  2**0
                  CONTENTS, READONLY, DEBUGGING
 13 .debug_line   0000ccc8  00000000  00000000  0004606b  2**0
                  CONTENTS, READONLY, DEBUGGING
 14 .debug_frame  00002514  00000000  00000000  00052d34  2**2
                  CONTENTS, READONLY, DEBUGGING
 15 .debug_str    00004170  00000000  00000000  00055248  2**0
                  CONTENTS, READONLY, DEBUGGING
 16 .debug_loc    00019bf6  00000000  00000000  000593b8  2**0
                  CONTENTS, READONLY, DEBUGGING
 17 .debug_alt_sim_info 00000040  00000000  00000000  00072fb0  2**2
                  CONTENTS, READONLY, DEBUGGING
 18 .debug_ranges 00001a28  00000000  00000000  00072ff0  2**3
                  CONTENTS, READONLY, DEBUGGING
 19 .thread_model 00000003  00000000  00000000  000780a2  2**0
                  CONTENTS, READONLY
 20 .cpu          00000005  00000000  00000000  000780a5  2**0
                  CONTENTS, READONLY
 21 .qsys         00000001  00000000  00000000  000780aa  2**0
                  CONTENTS, READONLY
 22 .simulation_enabled 00000001  00000000  00000000  000780ab  2**0
                  CONTENTS, READONLY
 23 .sysid_hash   00000004  00000000  00000000  000780ac  2**0
                  CONTENTS, READONLY
 24 .sysid_base   00000004  00000000  00000000  000780b0  2**0
                  CONTENTS, READONLY
 25 .sysid_time   00000004  00000000  00000000  000780b4  2**0
                  CONTENTS, READONLY
 26 .stderr_dev   00000009  00000000  00000000  000780b8  2**0
                  CONTENTS, READONLY
 27 .stdin_dev    00000009  00000000  00000000  000780c1  2**0
                  CONTENTS, READONLY
 28 .stdout_dev   00000009  00000000  00000000  000780ca  2**0
                  CONTENTS, READONLY
 29 .sopc_system_name 0000000f  00000000  00000000  000780d3  2**0
                  CONTENTS, READONLY
 30 .quartus_project_dir 00000061  00000000  00000000  000780e2  2**0
                  CONTENTS, READONLY
 31 .jdi          000080a5  00000000  00000000  00078143  2**0
                  CONTENTS, READONLY
 32 .sopcinfo     000ede03  00000000  00000000  000801e8  2**0
                  CONTENTS, READONLY
SYMBOL TABLE:
00000000 l    d  .entry	00000000 .entry
00000020 l    d  .exceptions	00000000 .exceptions
00000230 l    d  .text	00000000 .text
00012e30 l    d  .rodata	00000000 .rodata
00013478 l    d  .rwdata	00000000 .rwdata
00016c48 l    d  .bss	00000000 .bss
0001707c l    d  .SDRAM	00000000 .SDRAM
08000000 l    d  .Onchip_SRAM	00000000 .Onchip_SRAM
09000000 l    d  .VGA_Subsystem_Char_Buf_Subsystem_Onchip_SRAM	00000000 .VGA_Subsystem_Char_Buf_Subsystem_Onchip_SRAM
00000000 l    d  .comment	00000000 .comment
00000000 l    d  .debug_aranges	00000000 .debug_aranges
00000000 l    d  .debug_info	00000000 .debug_info
00000000 l    d  .debug_abbrev	00000000 .debug_abbrev
00000000 l    d  .debug_line	00000000 .debug_line
00000000 l    d  .debug_frame	00000000 .debug_frame
00000000 l    d  .debug_str	00000000 .debug_str
00000000 l    d  .debug_loc	00000000 .debug_loc
00000000 l    d  .debug_alt_sim_info	00000000 .debug_alt_sim_info
00000000 l    d  .debug_ranges	00000000 .debug_ranges
00000000 l    df *ABS*	00000000 ../2d_bsp//obj/HAL/src/crt0.o
00000268 l       .text	00000000 alt_after_alt_main
00000000 l    df *ABS*	00000000 alt_irq_handler.c
00000000 l    df *ABS*	00000000 alt_instruction_exception_entry.c
00000000 l    df *ABS*	00000000 Distence_7.c
00000000 l    df *ABS*	00000000 s_cos.c
00000000 l    df *ABS*	00000000 s_sin.c
00000000 l    df *ABS*	00000000 e_rem_pio2.c
00012fa4 l     O .rodata	00000108 two_over_pi
00012f24 l     O .rodata	00000080 npio2_hw
00000000 l    df *ABS*	00000000 k_cos.c
00000000 l    df *ABS*	00000000 k_rem_pio2.c
000130ec l     O .rodata	00000010 init_jk
000130ac l     O .rodata	00000040 PIo2
00000000 l    df *ABS*	00000000 k_sin.c
00000000 l    df *ABS*	00000000 s_fabs.c
00000000 l    df *ABS*	00000000 s_floor.c
00000000 l    df *ABS*	00000000 s_scalbn.c
00000000 l    df *ABS*	00000000 s_copysign.c
00000000 l    df *ABS*	00000000 lib2-divmod.c
00000000 l    df *ABS*	00000000 lib2-mul.c
00000000 l    df *ABS*	00000000 floatsisf.c
00000000 l    df *ABS*	00000000 adddf3.c
00000000 l    df *ABS*	00000000 eqdf2.c
00000000 l    df *ABS*	00000000 gedf2.c
00000000 l    df *ABS*	00000000 muldf3.c
00000000 l    df *ABS*	00000000 subdf3.c
00000000 l    df *ABS*	00000000 fixdfsi.c
00000000 l    df *ABS*	00000000 floatsidf.c
00000000 l    df *ABS*	00000000 extendsfdf2.c
00000000 l    df *ABS*	00000000 libgcc2.c
00000000 l    df *ABS*	00000000 libgcc2.c
00000000 l    df *ABS*	00000000 printf.c
00000000 l    df *ABS*	00000000 puts.c
00000000 l    df *ABS*	00000000 strlen.c
00000000 l    df *ABS*	00000000 vfprintf.c
00013242 l     O .rodata	00000010 zeroes.4404
000073a8 l     F .text	000000bc __sbprintf
00013252 l     O .rodata	00000010 blanks.4403
00000000 l    df *ABS*	00000000 wsetup.c
00000000 l    df *ABS*	00000000 dtoa.c
000075b8 l     F .text	00000228 quorem
00000000 l    df *ABS*	00000000 fflush.c
00000000 l    df *ABS*	00000000 findfp.c
00009110 l     F .text	00000008 __fp_unlock
00009124 l     F .text	0000019c __sinit.part.1
000092c0 l     F .text	00000008 __fp_lock
00000000 l    df *ABS*	00000000 mallocr.c
00000000 l    df *ABS*	00000000 fvwrite.c
00000000 l    df *ABS*	00000000 fwalk.c
00000000 l    df *ABS*	00000000 impure.c
00013478 l     O .rwdata	00000424 impure_data
00000000 l    df *ABS*	00000000 locale.c
000138bc l     O .rwdata	00000020 lc_ctype_charset
0001389c l     O .rwdata	00000020 lc_message_charset
000138dc l     O .rwdata	00000038 lconv
00000000 l    df *ABS*	00000000 makebuf.c
00000000 l    df *ABS*	00000000 mallocr.c
00000000 l    df *ABS*	00000000 memchr.c
00000000 l    df *ABS*	00000000 memcpy.c
00000000 l    df *ABS*	00000000 memmove.c
00000000 l    df *ABS*	00000000 memset.c
00000000 l    df *ABS*	00000000 mprec.c
00013284 l     O .rodata	0000000c p05.2768
00000000 l    df *ABS*	00000000 mallocr.c
00000000 l    df *ABS*	00000000 s_fpclassify.c
00000000 l    df *ABS*	00000000 sbrkr.c
00000000 l    df *ABS*	00000000 stdio.c
00000000 l    df *ABS*	00000000 strcmp.c
00000000 l    df *ABS*	00000000 vfprintf.c
0000c794 l     F .text	000000fc __sprint_r.part.0
000133a8 l     O .rodata	00000010 zeroes.4349
0000ddd0 l     F .text	000000bc __sbprintf
000133b8 l     O .rodata	00000010 blanks.4348
00000000 l    df *ABS*	00000000 writer.c
00000000 l    df *ABS*	00000000 closer.c
00000000 l    df *ABS*	00000000 mallocr.c
00000000 l    df *ABS*	00000000 fclose.c
00000000 l    df *ABS*	00000000 fputwc.c
00000000 l    df *ABS*	00000000 fstatr.c
00000000 l    df *ABS*	00000000 int_errno.c
00000000 l    df *ABS*	00000000 isattyr.c
00000000 l    df *ABS*	00000000 lseekr.c
00000000 l    df *ABS*	00000000 readr.c
00000000 l    df *ABS*	00000000 wbuf.c
00000000 l    df *ABS*	00000000 wcrtomb.c
00000000 l    df *ABS*	00000000 wctomb_r.c
00000000 l    df *ABS*	00000000 libgcc2.c
00000000 l    df *ABS*	00000000 libgcc2.c
00000000 l    df *ABS*	00000000 divdf3.c
00000000 l    df *ABS*	00000000 ledf2.c
00000000 l    df *ABS*	00000000 floatunsidf.c
00000000 l    df *ABS*	00000000 alt_close.c
0000ff04 l     F .text	0000003c alt_get_errno
00000000 l    df *ABS*	00000000 alt_dev.c
00010018 l     F .text	0000002c alt_dev_null_write
00000000 l    df *ABS*	00000000 alt_errno.c
00000000 l    df *ABS*	00000000 alt_fstat.c
00010044 l     F .text	0000003c alt_get_errno
00000000 l    df *ABS*	00000000 alt_isatty.c
00010138 l     F .text	0000003c alt_get_errno
00000000 l    df *ABS*	00000000 alt_load.c
00010220 l     F .text	00000068 alt_load_section
00000000 l    df *ABS*	00000000 alt_lseek.c
0001030c l     F .text	0000003c alt_get_errno
00000000 l    df *ABS*	00000000 alt_main.c
00000000 l    df *ABS*	00000000 alt_malloc_lock.c
00000000 l    df *ABS*	00000000 alt_read.c
000104e8 l     F .text	0000003c alt_get_errno
00000000 l    df *ABS*	00000000 alt_release_fd.c
00000000 l    df *ABS*	00000000 alt_sbrk.c
00015050 l     O .rwdata	00000004 heap_end
00000000 l    df *ABS*	00000000 alt_usleep.c
00000000 l    df *ABS*	00000000 alt_write.c
0001078c l     F .text	0000003c alt_get_errno
00000000 l    df *ABS*	00000000 alt_sys_init.c
000108c8 l     F .text	00000034 alt_dev_reg
00013ec4 l     O .rwdata	00001060 JTAG_UART
00014f24 l     O .rwdata	0000005c VGA_Subsystem_Char_Buf_Subsystem_Char_Buf_DMA
00014f80 l     O .rwdata	0000005c VGA_Subsystem_VGA_Pixel_DMA
00014fdc l     O .rwdata	00000044 VGA_Subsystem_VGA_Pixel_RGB_Resampler
00000000 l    df *ABS*	00000000 altera_avalon_jtag_uart_fd.c
00000000 l    df *ABS*	00000000 altera_avalon_jtag_uart_init.c
000111bc l     F .text	0000020c altera_avalon_jtag_uart_irq
000113c8 l     F .text	000000a0 altera_avalon_jtag_uart_timeout
00000000 l    df *ABS*	00000000 altera_avalon_jtag_uart_ioctl.c
00000000 l    df *ABS*	00000000 altera_avalon_jtag_uart_read.c
00000000 l    df *ABS*	00000000 altera_avalon_jtag_uart_write.c
00000000 l    df *ABS*	00000000 altera_avalon_timer_sc.c
00011a00 l     F .text	00000078 alt_avalon_timer_sc_irq
00000000 l    df *ABS*	00000000 alt_alarm_start.c
00000000 l    df *ABS*	00000000 alt_busy_sleep.c
00000000 l    df *ABS*	00000000 alt_dcache_flush_all.c
00000000 l    df *ABS*	00000000 alt_dev_llist_insert.c
00011d98 l     F .text	0000003c alt_get_errno
00000000 l    df *ABS*	00000000 alt_do_ctors.c
00000000 l    df *ABS*	00000000 alt_do_dtors.c
00000000 l    df *ABS*	00000000 alt_icache_flush_all.c
00000000 l    df *ABS*	00000000 alt_iic.c
00000000 l    df *ABS*	00000000 alt_iic_isr_register.c
00000000 l    df *ABS*	00000000 alt_io_redirect.c
000121f8 l     F .text	000000e4 alt_open_fd
00000000 l    df *ABS*	00000000 alt_irq_vars.c
00000000 l    df *ABS*	00000000 alt_open.c
00012358 l     F .text	0000003c alt_get_errno
00012394 l     F .text	000000ec alt_file_locked
00000000 l    df *ABS*	00000000 alt_tick.c
00000000 l    df *ABS*	00000000 altera_nios2_gen2_irq.c
00000000 l    df *ABS*	00000000 alt_find_dev.c
00000000 l    df *ABS*	00000000 alt_find_file.c
00000000 l    df *ABS*	00000000 alt_get_fd.c
00000000 l    df *ABS*	00000000 atexit.c
00000000 l    df *ABS*	00000000 exit.c
00000000 l    df *ABS*	00000000 memcmp.c
00000000 l    df *ABS*	00000000 __atexit.c
00000000 l    df *ABS*	00000000 __call_atexit.c
00000000 l    df *ABS*	00000000 alt_exit.c
00016c7c g     O .bss	00000004 alt_instruction_exception_handler
0000bdd8 g     F .text	00000074 _mprec_log10
0000bec4 g     F .text	0000008c __any_on
0000e384 g     F .text	00000054 _isatty_r
00013290 g     O .rodata	00000028 __mprec_tinytens
00010424 g     F .text	0000007c alt_main
000005c4 g     F .text	0000023c draw_scan_line
00004f44 g     F .text	000000c0 _puts_r
00016f7c g     O .bss	00000100 alt_irq
000029d8 g     F .text	00000014 fabs
0000e3d8 g     F .text	00000060 _lseek_r
00015060 g       *ABS*	00000000 __flash_rwdata_start
0000393c g     F .text	00000088 .hidden __eqdf2
0001707c g       *ABS*	00000000 __alt_heap_start
00004f08 g     F .text	0000003c printf
0000e5f0 g     F .text	0000009c _wcrtomb_r
0000c654 g     F .text	0000005c __sseek
00009470 g     F .text	00000010 __sinit
0000e498 g     F .text	00000140 __swbuf_r
00009f44 g     F .text	0000007c _setlocale_r
000092c8 g     F .text	00000078 __sfmoreglue
000104c4 g     F .text	00000024 __malloc_unlock
0000ac14 g     F .text	0000015c memmove
00009458 g     F .text	00000018 _cleanup
0000ae98 g     F .text	000000a8 _Balloc
000039c4 g     F .text	000000dc .hidden __gtdf2
00012780 g     F .text	00000024 altera_nios2_gen2_irq_init
00000000 g     F .entry	0000000c __reset
00000020 g       *ABS*	00000000 __flash_exceptions_start
0000e328 g     F .text	0000005c _fstat_r
00016c60 g     O .bss	00000004 errno
000029ec g     F .text	000001ec floor
0000c5d0 g     F .text	00000008 __seofread
00016c68 g     O .bss	00000004 alt_argv
0001d020 g       *ABS*	00000000 _gp
0001075c g     F .text	00000030 usleep
00013d44 g     O .rwdata	00000180 alt_fd_list
00000d64 g     F .text	0000076c __ieee754_rem_pio2
000127a4 g     F .text	00000090 alt_find_dev
0000aacc g     F .text	00000148 memcpy
00009118 g     F .text	0000000c _cleanup_r
00004c88 g     F .text	000000dc .hidden __floatsidf
000122dc g     F .text	0000007c alt_io_redirect
0000fd68 g     F .text	000000f4 .hidden __ltdf2
00012e30 g       *ABS*	00000000 __DTOR_END__
00005004 g     F .text	00000014 puts
00012a00 g     F .text	0000009c alt_exception_cause_generated_bad_addr
0000c4b4 g     F .text	00000074 __fpclassifyd
0000bd34 g     F .text	000000a4 __ratio
0000ddb4 g     F .text	0000001c __vfiprintf_internal
000115c0 g     F .text	0000021c altera_avalon_jtag_uart_read
00004ed8 g     F .text	00000030 _printf_r
00002e88 g     F .text	00000064 .hidden __udivsi3
00010174 g     F .text	000000ac isatty
000132e0 g     O .rodata	000000c8 __mprec_tens
00009fc0 g     F .text	0000000c __locale_charset
000014d0 g     F .text	000004a4 __kernel_cos
00016c5c g     O .bss	00000004 __malloc_top_pad
00015028 g     O .rwdata	00000004 __mb_cur_max
00009ff0 g     F .text	0000000c _localeconv_r
0000b2cc g     F .text	0000003c __i2b
000098f4 g     F .text	000004c8 __sfvwrite_r
0000c528 g     F .text	00000054 _sbrk_r
0000e438 g     F .text	00000060 _read_r
00015048 g     O .rwdata	00000004 alt_max_fd
0000e01c g     F .text	000000f0 _fclose_r
000090e0 g     F .text	00000030 fflush
00016c58 g     O .bss	00000004 __malloc_max_sbrked_mem
0000270c g     F .text	000002cc __kernel_sin
00004d64 g     F .text	00000110 .hidden __extendsfdf2
00003090 g     F .text	000008ac .hidden __adddf3
0000badc g     F .text	0000010c __b2d
0000edd4 g     F .text	000005c4 .hidden __umoddi3
00010348 g     F .text	000000dc lseek
00015020 g     O .rwdata	00000004 _global_impure_ptr
0000bf50 g     F .text	00000564 _realloc_r
0001707c g       *ABS*	00000000 __bss_end
00012108 g     F .text	000000f0 alt_iic_isr_register
00000470 g     F .text	00000154 vga_draw_line
00012678 g     F .text	00000108 alt_tick
0000e7d8 g     F .text	000005fc .hidden __udivdi3
0000e284 g     F .text	00000024 _fputwc_r
000132b8 g     O .rodata	00000028 __mprec_bigtens
0000b0b0 g     F .text	00000104 __s2b
0000fe5c g     F .text	000000a8 .hidden __floatunsidf
0000b81c g     F .text	00000060 __mcmp
00009490 g     F .text	00000018 __fp_lock_all
000120bc g     F .text	0000004c alt_ic_irq_enabled
000125dc g     F .text	0000009c alt_alarm_stop
00016c70 g     O .bss	00000004 alt_irq_active
000000fc g     F .exceptions	000000d4 alt_irq_handler
00013d1c g     O .rwdata	00000028 alt_dev_null
00001974 g     F .text	00000d98 __kernel_rem_pio2
00011d78 g     F .text	00000020 alt_dcache_flush_all
0000b1b4 g     F .text	00000068 __hi0bits
00004c08 g     F .text	00000080 .hidden __fixdfsi
00015060 g       *ABS*	00000000 __ram_rwdata_end
00015040 g     O .rwdata	00000008 alt_dev_list
000107c8 g     F .text	00000100 write
00013478 g       *ABS*	00000000 __ram_rodata_end
00010080 g     F .text	000000b8 fstat
00000000 g       *ABS*	00000000 __alt_mem_SDRAM
0000fd68 g     F .text	000000f4 .hidden __ledf2
0000b594 g     F .text	00000140 __pow5mult
0000c8a8 g     F .text	0000150c ___vfiprintf_internal_r
00016c50 g     O .bss	00000004 __nlocale_changed
00002eec g     F .text	00000058 .hidden __umodsi3
0001707c g       *ABS*	00000000 end
000110fc g     F .text	000000c0 altera_avalon_jtag_uart_init
000001d0 g     F .exceptions	00000060 alt_instruction_exception_entry
00012e30 g       *ABS*	00000000 __CTOR_LIST__
04000000 g       *ABS*	00000000 __alt_stack_pointer
00011a78 g     F .text	0000007c alt_avalon_timer_sc_init
00004e74 g     F .text	00000064 .hidden __clzsi2
000117dc g     F .text	00000224 altera_avalon_jtag_uart_write
00000b88 g     F .text	000000ec cos
00009480 g     F .text	00000004 __sfp_lock_acquire
0000a9e8 g     F .text	000000e4 memchr
000050b0 g     F .text	000022dc ___vfprintf_internal_r
000095e4 g     F .text	00000310 _free_r
00009fcc g     F .text	00000010 __locale_mb_cur_max
00012c7c g     F .text	00000180 __call_exitprocs
00016c4c g     O .bss	00000004 __mlocale_changed
0001502c g     O .rwdata	00000004 __malloc_sbrk_base
00000230 g     F .text	0000003c _start
00016c74 g     O .bss	00000004 _alt_tick_rate
00000c74 g     F .text	000000f0 sin
0000b6d4 g     F .text	00000148 __lshift
00016c78 g     O .bss	00000004 _alt_nticks
00010524 g     F .text	00000104 read
00010934 g     F .text	00000664 alt_sys_init
00002f6c g     F .text	00000124 .hidden __floatsisf
00012b64 g     F .text	00000118 __register_exitproc
0000b308 g     F .text	0000028c __multiply
00011468 g     F .text	00000068 altera_avalon_jtag_uart_close
00002f44 g     F .text	00000028 .hidden __mulsi3
00013478 g       *ABS*	00000000 __ram_rwdata_start
00012e30 g       *ABS*	00000000 __ram_rodata_start
00016f54 g     O .bss	00000028 __malloc_current_mallinfo
0000bbe8 g     F .text	0000014c __d2b
00010f98 g     F .text	00000060 altera_avalon_jtag_uart_read_fd
0001293c g     F .text	000000c4 alt_get_fd
00011c20 g     F .text	00000158 alt_busy_sleep
0000deec g     F .text	00000054 _close_r
00012ae8 g     F .text	0000007c memcmp
00011058 g     F .text	00000050 altera_avalon_jtag_uart_close_fd
0001707c g       *ABS*	00000000 __alt_stack_base
000110a8 g     F .text	00000054 altera_avalon_jtag_uart_ioctl_fd
00007464 g     F .text	00000154 __swsetup_r
0000f398 g     F .text	000009d0 .hidden __divdf3
00009340 g     F .text	00000118 __sfp
0000be4c g     F .text	00000078 __copybits
00013914 g     O .rwdata	00000408 __malloc_av_
0000948c g     F .text	00000004 __sinit_lock_release
00003aa0 g     F .text	0000086c .hidden __muldf3
0000c57c g     F .text	00000054 __sread
00012834 g     F .text	00000108 alt_find_file
00011dd4 g     F .text	000000a4 alt_dev_llist_insert
000104a0 g     F .text	00000024 __malloc_lock
000106ac g     F .text	000000b0 sbrk
00009084 g     F .text	0000005c _fflush_r
0000df40 g     F .text	000000dc _calloc_r
00016c48 g       *ABS*	00000000 __bss_start
0000ad70 g     F .text	00000128 memset
0000089c g     F .text	000002ec main
00016c6c g     O .bss	00000004 alt_envp
00016c54 g     O .bss	00000004 __malloc_max_total_mem
00010ff8 g     F .text	00000060 altera_avalon_jtag_uart_write_fd
0000e5d8 g     F .text	00000018 __swbuf
0000c6b0 g     F .text	00000008 __sclose
04000000 g       *ABS*	00000000 __alt_heap_limit
0000e10c g     F .text	00000014 fclose
000077e0 g     F .text	00001688 _dtoa_r
0000a1dc g     F .text	0000080c _malloc_r
0000e74c g     F .text	00000030 __ascii_wctomb
0001504c g     O .rwdata	00000004 alt_errno
00009dbc g     F .text	000000c4 _fwalk
00000360 g     F .text	00000098 vga_plot_pixel
00002d90 g     F .text	00000084 .hidden __divsi3
000094c0 g     F .text	00000124 _malloc_trim_r
00012e30 g       *ABS*	00000000 __CTOR_END__
0000c6b8 g     F .text	000000dc strcmp
00012e30 g       *ABS*	00000000 __flash_rodata_start
00012e30 g       *ABS*	00000000 __DTOR_LIST__
00002d74 g     F .text	0000001c copysign
0000393c g     F .text	00000088 .hidden __nedf2
000108fc g     F .text	00000038 alt_irq_init
00010628 g     F .text	00000084 alt_release_fd
000130fc g     O .rodata	00000100 .hidden __clz_tab
00016c48 g     O .bss	00000004 _PathLocale
00012a9c g     F .text	00000014 atexit
0000de8c g     F .text	00000060 _write_r
00009ffc g     F .text	00000018 setlocale
00015024 g     O .rwdata	00000004 _impure_ptr
00016c64 g     O .bss	00000004 alt_argc
00008e68 g     F .text	0000021c __sflush_r
00002bd8 g     F .text	0000019c scalbn
00011ed8 g     F .text	00000060 _do_dtors
00009fe8 g     F .text	00000008 __locale_cjk_lang
09000000 g       *ABS*	00000000 __alt_mem_VGA_Subsystem_Char_Buf_Subsystem_Onchip_SRAM
00000020 g       .exceptions	00000000 alt_irq_entry
0000ba78 g     F .text	00000064 __ulp
000094a8 g     F .text	00000018 __fp_unlock_all
00015038 g     O .rwdata	00000008 alt_fs_list
00000020 g       *ABS*	00000000 __ram_exceptions_start
0000a014 g     F .text	0000000c localeconv
00011f58 g     F .text	00000050 alt_ic_isr_register
00015060 g       *ABS*	00000000 _edata
0001707c g       *ABS*	00000000 _end
00016c80 g     O .bss	000002d4 distance_history
0000e120 g     F .text	00000164 __fputwc
00000230 g       *ABS*	00000000 __ram_exceptions_end
000114d0 g     F .text	000000f0 altera_avalon_jtag_uart_ioctl
08000000 g       *ABS*	00000000 __alt_mem_Onchip_SRAM
00012030 g     F .text	0000008c alt_ic_irq_disable
0000c5d8 g     F .text	0000007c __swrite
00015030 g     O .rwdata	00000004 __malloc_trim_threshold
00009fdc g     F .text	0000000c __locale_msgcharset
00012ab0 g     F .text	00000038 exit
00009e80 g     F .text	000000c4 _fwalk_reent
0000b87c g     F .text	000001fc __mdiff
00002e14 g     F .text	00000074 .hidden __modsi3
04000000 g       *ABS*	00000000 __alt_data_end
00000020 g     F .exceptions	00000000 alt_exception
00009484 g     F .text	00000004 __sfp_lock_release
00012dfc g     F .text	00000034 _exit
00011af4 g     F .text	0000012c alt_alarm_start
0000a020 g     F .text	000001bc __smakebuf_r
00005018 g     F .text	00000098 strlen
00012480 g     F .text	0000015c open
000039c4 g     F .text	000000dc .hidden __gedf2
00015034 g     O .rwdata	00000004 __wctomb
0000c890 g     F .text	00000018 __sprint_r
00011f38 g     F .text	00000020 alt_icache_flush_all
00015054 g     O .rwdata	00000004 alt_priority_mask
00011fa8 g     F .text	00000088 alt_ic_irq_enable
0000738c g     F .text	0000001c __vfprintf_internal
00000800 g     F .text	0000009c test_vga_display
0000e77c g     F .text	0000005c _wctomb_r
000003f8 g     F .text	00000078 clear_screen
0000430c g     F .text	000008fc .hidden __subdf3
0000b21c g     F .text	000000b0 __lo0bits
00015058 g     O .rwdata	00000008 alt_alarm_list
00011e78 g     F .text	00000060 _do_ctors
0000e68c g     F .text	000000c0 wcrtomb
0000ff40 g     F .text	000000d8 close
0000026c g     F .text	000000f4 LED_Choisir
00010288 g     F .text	00000084 alt_load
0000e2a8 g     F .text	00000080 fputwc
00009488 g     F .text	00000004 __sinit_lock_acquire
0000af68 g     F .text	00000148 __multadd
0000af40 g     F .text	00000028 _Bfree



Disassembly of section .entry:

00000000 <__reset>:
 * Jump to the _start entry point in the .text section if reset code
 * is allowed or if optimizing for RTL simulation.
 */
#if defined(ALT_ALLOW_CODE_AT_RESET) || defined(ALT_SIM_OPTIMIZE)
    /* Jump to the _start entry point in the .text section. */
    movhi r1, %hi(_start)
   0:	00400034 	movhi	at,0
    ori r1, r1, %lo(_start)
   4:	08408c14 	ori	at,at,560
    jmp r1
   8:	0800683a 	jmp	at
	...

Disassembly of section .exceptions:

00000020 <alt_exception>:

#else /* ALT_EXCEPTION_STACK disabled */
        /* 
         * Reserve space on normal stack for registers about to be pushed.
         */
        addi  sp, sp, -76
  20:	deffed04 	addi	sp,sp,-76
         * documentation for details).
         *
         * Leave a gap in the stack frame at 4(sp) for the muldiv handler to
         * store zero into.
         */
        stw   ra,  0(sp)
  24:	dfc00015 	stw	ra,0(sp)
        stw   r1,   8(sp)
  28:	d8400215 	stw	at,8(sp)
        stw   r2,  12(sp)
  2c:	d8800315 	stw	r2,12(sp)
        stw   r3,  16(sp)
  30:	d8c00415 	stw	r3,16(sp)
        stw   r4,  20(sp)
  34:	d9000515 	stw	r4,20(sp)
        stw   r5,  24(sp)
  38:	d9400615 	stw	r5,24(sp)
        stw   r6,  28(sp)
  3c:	d9800715 	stw	r6,28(sp)
        stw   r7,  32(sp)
  40:	d9c00815 	stw	r7,32(sp)
        rdctl r5, estatus   /* Read early to avoid usage stall */
  44:	000b307a 	rdctl	r5,estatus
        stw   r8,  36(sp)
  48:	da000915 	stw	r8,36(sp)
        stw   r9,  40(sp)
  4c:	da400a15 	stw	r9,40(sp)
        stw   r10, 44(sp)
  50:	da800b15 	stw	r10,44(sp)
        stw   r11, 48(sp)
  54:	dac00c15 	stw	r11,48(sp)
        stw   r12, 52(sp)
  58:	db000d15 	stw	r12,52(sp)
        stw   r13, 56(sp)
  5c:	db400e15 	stw	r13,56(sp)
        stw   r14, 60(sp)
  60:	db800f15 	stw	r14,60(sp)
        stw   r15, 64(sp)
  64:	dbc01015 	stw	r15,64(sp)
        /*
         * ea-4 contains the address of the instruction being executed
         * when the exception occured. For interrupt exceptions, we will
         * will be re-issue the isntruction. Store it in 72(sp)
         */
        stw   r5,  68(sp)  /* estatus */
  68:	d9401115 	stw	r5,68(sp)
        addi  r15, ea, -4  /* instruction that caused exception */
  6c:	ebffff04 	addi	r15,ea,-4
        stw   r15,  72(sp)
  70:	dbc01215 	stw	r15,72(sp)
#else
        /*
         * Test to see if the exception was a software exception or caused 
         * by an external interrupt, and vector accordingly.
         */
        rdctl r4, ipending
  74:	0009313a 	rdctl	r4,ipending
        andi  r2, r5, 1
  78:	2880004c 	andi	r2,r5,1
        beq   r2, zero, .Lnot_irq
  7c:	10000326 	beq	r2,zero,8c <alt_exception+0x6c>
        beq   r4, zero, .Lnot_irq
  80:	20000226 	beq	r4,zero,8c <alt_exception+0x6c>
        /*
         * Now that all necessary registers have been preserved, call 
         * alt_irq_handler() to process the interrupts.
         */

        call alt_irq_handler
  84:	00000fc0 	call	fc <alt_irq_handler>

        .section .exceptions.irqreturn, "xa"

        br    .Lexception_exit
  88:	00000706 	br	a8 <alt_exception+0x88>
         * upon completion, so we write ea (address of instruction *after*
         * the one where the exception occured) into 72(sp). The actual
         * instruction that caused the exception is written in r2, which these
         * handlers will utilize.
         */
        stw ea, 72(sp) /* EA is PC+4 so will skip over instruction causing exception */
  8c:	df401215 	stw	ea,72(sp)
.Lunknown_16bit:
        addi.n r4, r4, 2 /* Need PC+2 to skip over instruction causing exception */
        stw r4, 72(sp)

#else /* CDX is not Enabled and all instructions are 32bits */
        ldw r2, -4(ea) /* Instruction value that caused exception */
  90:	e8bfff17 	ldw	r2,-4(ea)
         * debugger is present) or go into an infinite loop since the
         * handling behavior is undefined; in that case we will not return here.
         */

        /* Load exception-causing address as first argument (r4) */
        addi   r4, ea, -4
  94:	e93fff04 	addi	r4,ea,-4

        /* Call the instruction-exception entry */
        call   alt_instruction_exception_entry
  98:	00001d00 	call	1d0 <alt_instruction_exception_entry>
         * instruction
         *
         * Return code was 0: Skip. The instruction after the exception is
         * already stored in 72(sp).
         */
        bne   r2, r0, .Lexception_exit
  9c:	1000021e 	bne	r2,zero,a8 <alt_exception+0x88>

        /*
         * Otherwise, modify 72(sp) to re-issue the instruction that caused the
         * exception.
         */
        addi  r15, ea, -4  /* instruction that caused exception */
  a0:	ebffff04 	addi	r15,ea,-4
        stw   r15,  72(sp)
  a4:	dbc01215 	stw	r15,72(sp)
        /* 
         * Restore the saved registers, so that all general purpose registers 
         * have been restored to their state at the time the interrupt occured.
         */

        ldw   r5,  68(sp)
  a8:	d9401117 	ldw	r5,68(sp)
        ldw   ea,  72(sp)  /* This becomes the PC once eret is executed */
  ac:	df401217 	ldw	ea,72(sp)
        ldw   ra,   0(sp)
  b0:	dfc00017 	ldw	ra,0(sp)

        wrctl estatus, r5
  b4:	2801707a 	wrctl	estatus,r5

        ldw   r1,   8(sp)
  b8:	d8400217 	ldw	at,8(sp)
        ldw   r2,  12(sp)
  bc:	d8800317 	ldw	r2,12(sp)
        ldw   r3,  16(sp)
  c0:	d8c00417 	ldw	r3,16(sp)
        ldw   r4,  20(sp)
  c4:	d9000517 	ldw	r4,20(sp)
        ldw   r5,  24(sp)
  c8:	d9400617 	ldw	r5,24(sp)
        ldw   r6,  28(sp)
  cc:	d9800717 	ldw	r6,28(sp)
        ldw   r7,  32(sp)
  d0:	d9c00817 	ldw	r7,32(sp)

#if defined(ALT_EXCEPTION_STACK) && defined(ALT_STACK_CHECK)
        ldw   et, %gprel(alt_exception_old_stack_limit)(gp)
#endif

        ldw   r8,  36(sp)
  d4:	da000917 	ldw	r8,36(sp)
        ldw   r9,  40(sp)
  d8:	da400a17 	ldw	r9,40(sp)
        ldw   r10, 44(sp)
  dc:	da800b17 	ldw	r10,44(sp)
        ldw   r11, 48(sp)
  e0:	dac00c17 	ldw	r11,48(sp)
        ldw   r12, 52(sp)
  e4:	db000d17 	ldw	r12,52(sp)
        ldw   r13, 56(sp)
  e8:	db400e17 	ldw	r13,56(sp)
        ldw   r14, 60(sp)
  ec:	db800f17 	ldw	r14,60(sp)
        ldw   r15, 64(sp)
  f0:	dbc01017 	ldw	r15,64(sp)
        stw   et, %gprel(alt_stack_limit_value)(gp)
        stw   zero, %gprel(alt_exception_old_stack_limit)(gp)
#endif /* ALT_STACK_CHECK */
        ldw   sp,  76(sp)
#else /* ALT_EXCEPTION_STACK disabled */
        addi  sp, sp, 76
  f4:	dec01304 	addi	sp,sp,76

        /*
         * Return to the interrupted instruction.
         */

        eret
  f8:	ef80083a 	eret

000000fc <alt_irq_handler>:
 * instruction is present if the macro ALT_CI_INTERRUPT_VECTOR defined.
 */

void alt_irq_handler (void) __attribute__ ((section (".exceptions")));
void alt_irq_handler (void)
{
  fc:	defff904 	addi	sp,sp,-28
 100:	dfc00615 	stw	ra,24(sp)
 104:	df000515 	stw	fp,20(sp)
 108:	df000504 	addi	fp,sp,20
  
  /*
   * Notify the operating system that we are at interrupt level.
   */ 
  
  ALT_OS_INT_ENTER();
 10c:	0001883a 	nop
#ifndef NIOS2_EIC_PRESENT
static ALT_INLINE alt_u32 ALT_ALWAYS_INLINE alt_irq_pending (void)
{
  alt_u32 active;

  NIOS2_READ_IPENDING (active);
 110:	0005313a 	rdctl	r2,ipending
 114:	e0bffe15 	stw	r2,-8(fp)

  return active;
 118:	e0bffe17 	ldw	r2,-8(fp)
   * Consider the case where the high priority interupt is asserted during
   * the interrupt entry sequence for a lower priority interrupt to see why
   * this is the case.
   */

  active = alt_irq_pending ();
 11c:	e0bffb15 	stw	r2,-20(fp)

  do
  {
    i = 0;
 120:	e03ffd15 	stw	zero,-12(fp)
    mask = 1;
 124:	00800044 	movi	r2,1
 128:	e0bffc15 	stw	r2,-16(fp)
     * called to clear the interrupt condition.
     */

    do
    {
      if (active & mask)
 12c:	e0fffb17 	ldw	r3,-20(fp)
 130:	e0bffc17 	ldw	r2,-16(fp)
 134:	1884703a 	and	r2,r3,r2
 138:	10001426 	beq	r2,zero,18c <alt_irq_handler+0x90>
      { 
#ifdef ALT_ENHANCED_INTERRUPT_API_PRESENT
        alt_irq[i].handler(alt_irq[i].context); 
 13c:	00800074 	movhi	r2,1
 140:	109bdf04 	addi	r2,r2,28540
 144:	e0fffd17 	ldw	r3,-12(fp)
 148:	180690fa 	slli	r3,r3,3
 14c:	10c5883a 	add	r2,r2,r3
 150:	10c00017 	ldw	r3,0(r2)
 154:	00800074 	movhi	r2,1
 158:	109bdf04 	addi	r2,r2,28540
 15c:	e13ffd17 	ldw	r4,-12(fp)
 160:	200890fa 	slli	r4,r4,3
 164:	1105883a 	add	r2,r2,r4
 168:	10800104 	addi	r2,r2,4
 16c:	10800017 	ldw	r2,0(r2)
 170:	1009883a 	mov	r4,r2
 174:	183ee83a 	callr	r3
#else
        alt_irq[i].handler(alt_irq[i].context, i); 
#endif
        break;
 178:	0001883a 	nop
#ifndef NIOS2_EIC_PRESENT
static ALT_INLINE alt_u32 ALT_ALWAYS_INLINE alt_irq_pending (void)
{
  alt_u32 active;

  NIOS2_READ_IPENDING (active);
 17c:	0005313a 	rdctl	r2,ipending
 180:	e0bfff15 	stw	r2,-4(fp)

  return active;
 184:	e0bfff17 	ldw	r2,-4(fp)
 188:	00000706 	br	1a8 <alt_irq_handler+0xac>
      }
      mask <<= 1;
 18c:	e0bffc17 	ldw	r2,-16(fp)
 190:	1085883a 	add	r2,r2,r2
 194:	e0bffc15 	stw	r2,-16(fp)
      i++;
 198:	e0bffd17 	ldw	r2,-12(fp)
 19c:	10800044 	addi	r2,r2,1
 1a0:	e0bffd15 	stw	r2,-12(fp)

    } while (1);
 1a4:	003fe106 	br	12c <__alt_mem_VGA_Subsystem_Char_Buf_Subsystem_Onchip_SRAM+0xf700012c>

    active = alt_irq_pending ();
 1a8:	e0bffb15 	stw	r2,-20(fp)
    
  } while (active);
 1ac:	e0bffb17 	ldw	r2,-20(fp)
 1b0:	103fdb1e 	bne	r2,zero,120 <__alt_mem_VGA_Subsystem_Char_Buf_Subsystem_Onchip_SRAM+0xf7000120>

  /*
   * Notify the operating system that interrupt processing is complete.
   */ 

  ALT_OS_INT_EXIT();
 1b4:	0001883a 	nop
}
 1b8:	0001883a 	nop
 1bc:	e037883a 	mov	sp,fp
 1c0:	dfc00117 	ldw	ra,4(sp)
 1c4:	df000017 	ldw	fp,0(sp)
 1c8:	dec00204 	addi	sp,sp,8
 1cc:	f800283a 	ret

000001d0 <alt_instruction_exception_entry>:
 * that handler if it has been registered. Absent a handler, it will
 * break break or hang as discussed below.
 */
int 
alt_instruction_exception_entry (alt_u32 exception_pc)
{
 1d0:	defffb04 	addi	sp,sp,-20
 1d4:	dfc00415 	stw	ra,16(sp)
 1d8:	df000315 	stw	fp,12(sp)
 1dc:	df000304 	addi	fp,sp,12
 1e0:	e13fff15 	stw	r4,-4(fp)
  cause = ( (cause & NIOS2_EXCEPTION_REG_CAUSE_MASK) >>
              NIOS2_EXCEPTION_REG_CAUSE_OFST );

  NIOS2_READ_BADADDR(badaddr);
#else
  cause = NIOS2_EXCEPTION_CAUSE_NOT_PRESENT;
 1e4:	00bfffc4 	movi	r2,-1
 1e8:	e0bffd15 	stw	r2,-12(fp)
  badaddr = 0;
 1ec:	e03ffe15 	stw	zero,-8(fp)
#endif /* NIOS2_HAS_EXTRA_EXCEPTION_INFO */

  if(alt_instruction_exception_handler) {
 1f0:	d0a71717 	ldw	r2,-25508(gp)
 1f4:	10000726 	beq	r2,zero,214 <alt_instruction_exception_entry+0x44>
     * Call handler. Its return value indicates whether the exception-causing
     * instruction should be re-issued. The code that called us,
     * alt_eceptions_entry.S, will look at this value and adjust the ea
     * register as necessary
     */
    return alt_instruction_exception_handler(cause, exception_pc, badaddr);
 1f8:	d0a71717 	ldw	r2,-25508(gp)
 1fc:	e0fffd17 	ldw	r3,-12(fp)
 200:	e1bffe17 	ldw	r6,-8(fp)
 204:	e17fff17 	ldw	r5,-4(fp)
 208:	1809883a 	mov	r4,r3
 20c:	103ee83a 	callr	r2
 210:	00000206 	br	21c <alt_instruction_exception_entry+0x4c>
   *    (a peripheral which negates its interrupt output before its
   *    interrupt handler has been executed will cause spurious interrupts)
   */
  else {
#ifdef NIOS2_HAS_DEBUG_STUB
    NIOS2_BREAK();
 214:	003da03a 	break	0
      ;
#endif /* NIOS2_HAS_DEBUG_STUB */
  }

  /* We should not get here. Remove compiler warning. */
  return NIOS2_EXCEPTION_RETURN_REISSUE_INST;
 218:	0005883a 	mov	r2,zero
}
 21c:	e037883a 	mov	sp,fp
 220:	dfc00117 	ldw	ra,4(sp)
 224:	df000017 	ldw	fp,0(sp)
 228:	dec00204 	addi	sp,sp,8
 22c:	f800283a 	ret

Disassembly of section .text:

00000230 <_start>:

    /*
     * Now that the caches are initialized, set up the stack pointer and global pointer.
     * The values provided by the linker are assumed to be correctly aligned.
     */
    movhi sp, %hi(__alt_stack_pointer)
     230:	06c10034 	movhi	sp,1024
    ori sp, sp, %lo(__alt_stack_pointer)
     234:	dec00014 	ori	sp,sp,0
    movhi gp, %hi(_gp)
     238:	06800074 	movhi	gp,1
    ori gp, gp, %lo(_gp)
     23c:	d6b40814 	ori	gp,gp,53280
 */
#ifndef ALT_SIM_OPTIMIZE
    /* Log that the BSS is about to be cleared. */
    ALT_LOG_PUTS(alt_log_msg_bss)

    movhi r2, %hi(__bss_start)
     240:	00800074 	movhi	r2,1
    ori r2, r2, %lo(__bss_start)
     244:	109b1214 	ori	r2,r2,27720

    movhi r3, %hi(__bss_end)
     248:	00c00074 	movhi	r3,1
    ori r3, r3, %lo(__bss_end)
     24c:	18dc1f14 	ori	r3,r3,28796

    beq r2, r3, 1f
     250:	10c00326 	beq	r2,r3,260 <_start+0x30>

0:
    stw zero, (r2)
     254:	10000015 	stw	zero,0(r2)
    addi r2, r2, 4
     258:	10800104 	addi	r2,r2,4
    bltu r2, r3, 0b
     25c:	10fffd36 	bltu	r2,r3,254 <__alt_mem_VGA_Subsystem_Char_Buf_Subsystem_Onchip_SRAM+0xf7000254>
     * section aren't defined until alt_load() has been called).
     */
    mov   et, zero
#endif

    call alt_load
     260:	00102880 	call	10288 <alt_load>

    /* Log that alt_main is about to be called. */
    ALT_LOG_PUTS(alt_log_msg_alt_main)

    /* Call the C entry point. It should never return. */
    call alt_main
     264:	00104240 	call	10424 <alt_main>

00000268 <alt_after_alt_main>:

    /* Wait in infinite loop in case alt_main does return. */
alt_after_alt_main:
    br alt_after_alt_main
     268:	003fff06 	br	268 <__alt_mem_VGA_Subsystem_Char_Buf_Subsystem_Onchip_SRAM+0xf7000268>

0000026c <LED_Choisir>:
#define COLOR_BLACK 0x0000

#define DEG_TO_RAD(angle) ((angle) * M_PI / 180.0)

// 在LED灯上显示当前距离
int LED_Choisir(int nombre) {
     26c:	defffd04 	addi	sp,sp,-12
     270:	df000215 	stw	fp,8(sp)
     274:	df000204 	addi	fp,sp,8
     278:	e13fff15 	stw	r4,-4(fp)
	int hex = 0;
     27c:	e03ffe15 	stw	zero,-8(fp)

	switch (nombre) {
     280:	e0bfff17 	ldw	r2,-4(fp)
     284:	108002a8 	cmpgeui	r2,r2,10
     288:	10002f1e 	bne	r2,zero,348 <LED_Choisir+0xdc>
     28c:	e0bfff17 	ldw	r2,-4(fp)
     290:	100690ba 	slli	r3,r2,2
     294:	00800034 	movhi	r2,0
     298:	1080aa04 	addi	r2,r2,680
     29c:	1885883a 	add	r2,r3,r2
     2a0:	10800017 	ldw	r2,0(r2)
     2a4:	1000683a 	jmp	r2
     2a8:	000002d0 	cmplti	zero,zero,11
     2ac:	000002dc 	xori	zero,zero,11
     2b0:	000002e8 	cmpgeui	zero,zero,11
     2b4:	000002f4 	movhi	zero,11
     2b8:	00000300 	call	30 <__flash_exceptions_start+0x10>
     2bc:	0000030c 	andi	zero,zero,12
     2c0:	00000318 	cmpnei	zero,zero,12
     2c4:	00000324 	muli	zero,zero,12
     2c8:	00000330 	cmpltui	zero,zero,12
     2cc:	0000033c 	xorhi	zero,zero,12
		case 0: hex = 0x3F; break;
     2d0:	00800fc4 	movi	r2,63
     2d4:	e0bffe15 	stw	r2,-8(fp)
     2d8:	00001c06 	br	34c <LED_Choisir+0xe0>
		case 1: hex = 0x06; break;
     2dc:	00800184 	movi	r2,6
     2e0:	e0bffe15 	stw	r2,-8(fp)
     2e4:	00001906 	br	34c <LED_Choisir+0xe0>
		case 2: hex = 0x5B; break;
     2e8:	008016c4 	movi	r2,91
     2ec:	e0bffe15 	stw	r2,-8(fp)
     2f0:	00001606 	br	34c <LED_Choisir+0xe0>
		case 3: hex = 0x4F; break;
     2f4:	008013c4 	movi	r2,79
     2f8:	e0bffe15 	stw	r2,-8(fp)
     2fc:	00001306 	br	34c <LED_Choisir+0xe0>
		case 4: hex = 0x66; break;
     300:	00801984 	movi	r2,102
     304:	e0bffe15 	stw	r2,-8(fp)
     308:	00001006 	br	34c <LED_Choisir+0xe0>
		case 5: hex = 0x6D; break;
     30c:	00801b44 	movi	r2,109
     310:	e0bffe15 	stw	r2,-8(fp)
     314:	00000d06 	br	34c <LED_Choisir+0xe0>
		case 6: hex = 0x7D; break;
     318:	00801f44 	movi	r2,125
     31c:	e0bffe15 	stw	r2,-8(fp)
     320:	00000a06 	br	34c <LED_Choisir+0xe0>
		case 7: hex = 0x07; break;
     324:	008001c4 	movi	r2,7
     328:	e0bffe15 	stw	r2,-8(fp)
     32c:	00000706 	br	34c <LED_Choisir+0xe0>
		case 8: hex = 0x7F; break;
     330:	00801fc4 	movi	r2,127
     334:	e0bffe15 	stw	r2,-8(fp)
     338:	00000406 	br	34c <LED_Choisir+0xe0>
		case 9: hex = 0x6F; break;
     33c:	00801bc4 	movi	r2,111
     340:	e0bffe15 	stw	r2,-8(fp)
     344:	00000106 	br	34c <LED_Choisir+0xe0>
		default: hex = 0x00; 		// Valeur par défaut
     348:	e03ffe15 	stw	zero,-8(fp)
	}
	return hex;
     34c:	e0bffe17 	ldw	r2,-8(fp)
}
     350:	e037883a 	mov	sp,fp
     354:	df000017 	ldw	fp,0(sp)
     358:	dec00104 	addi	sp,sp,4
     35c:	f800283a 	ret

00000360 <vga_plot_pixel>:

// 画点函数
void vga_plot_pixel(int x, int y, uint8_t color) {
     360:	defffa04 	addi	sp,sp,-24
     364:	dfc00515 	stw	ra,20(sp)
     368:	df000415 	stw	fp,16(sp)
     36c:	df000404 	addi	fp,sp,16
     370:	e13ffd15 	stw	r4,-12(fp)
     374:	e17ffe15 	stw	r5,-8(fp)
     378:	3005883a 	mov	r2,r6
     37c:	e0bfff05 	stb	r2,-4(fp)
    if (x >= 0 && x < SCREEN_WIDTH && y >= 0 && y < SCREEN_HEIGHT) {
     380:	e0bffd17 	ldw	r2,-12(fp)
     384:	10001616 	blt	r2,zero,3e0 <vga_plot_pixel+0x80>
     388:	e0bffd17 	ldw	r2,-12(fp)
     38c:	10802808 	cmpgei	r2,r2,160
     390:	1000131e 	bne	r2,zero,3e0 <vga_plot_pixel+0x80>
     394:	e0bffe17 	ldw	r2,-8(fp)
     398:	10001116 	blt	r2,zero,3e0 <vga_plot_pixel+0x80>
     39c:	e0bffe17 	ldw	r2,-8(fp)
     3a0:	10801e08 	cmpgei	r2,r2,120
     3a4:	10000e1e 	bne	r2,zero,3e0 <vga_plot_pixel+0x80>
        int pixel_address = VGA_PIXEL_BASE + (y * SCREEN_WIDTH + x);
     3a8:	01402804 	movi	r5,160
     3ac:	e13ffe17 	ldw	r4,-8(fp)
     3b0:	0002f440 	call	2f44 <__mulsi3>
     3b4:	1007883a 	mov	r3,r2
     3b8:	e0bffd17 	ldw	r2,-12(fp)
     3bc:	1885883a 	add	r2,r3,r2
     3c0:	1007883a 	mov	r3,r2
     3c4:	00bfc834 	movhi	r2,65312
     3c8:	108c0804 	addi	r2,r2,12320
     3cc:	1885883a 	add	r2,r3,r2
     3d0:	e0bffc15 	stw	r2,-16(fp)
        IOWR_8DIRECT(pixel_address, 0, color);
     3d4:	e0bffc17 	ldw	r2,-16(fp)
     3d8:	e0ffff03 	ldbu	r3,-4(fp)
     3dc:	10c00025 	stbio	r3,0(r2)
    }
}
     3e0:	0001883a 	nop
     3e4:	e037883a 	mov	sp,fp
     3e8:	dfc00117 	ldw	ra,4(sp)
     3ec:	df000017 	ldw	fp,0(sp)
     3f0:	dec00204 	addi	sp,sp,8
     3f4:	f800283a 	ret

000003f8 <clear_screen>:

// 初始化 VGA 屏幕
void clear_screen() {
     3f8:	defffc04 	addi	sp,sp,-16
     3fc:	dfc00315 	stw	ra,12(sp)
     400:	df000215 	stw	fp,8(sp)
     404:	df000204 	addi	fp,sp,8
    for (int y = 0; y < SCREEN_HEIGHT; y++) {
     408:	e03ffe15 	stw	zero,-8(fp)
     40c:	00000f06 	br	44c <clear_screen+0x54>
        for (int x = 0; x < SCREEN_WIDTH; x++) {
     410:	e03fff15 	stw	zero,-4(fp)
     414:	00000706 	br	434 <clear_screen+0x3c>
        	vga_plot_pixel(x, y, COLOR_BLACK);  // 设置为黑色
     418:	000d883a 	mov	r6,zero
     41c:	e17ffe17 	ldw	r5,-8(fp)
     420:	e13fff17 	ldw	r4,-4(fp)
     424:	00003600 	call	360 <vga_plot_pixel>
}

// 初始化 VGA 屏幕
void clear_screen() {
    for (int y = 0; y < SCREEN_HEIGHT; y++) {
        for (int x = 0; x < SCREEN_WIDTH; x++) {
     428:	e0bfff17 	ldw	r2,-4(fp)
     42c:	10800044 	addi	r2,r2,1
     430:	e0bfff15 	stw	r2,-4(fp)
     434:	e0bfff17 	ldw	r2,-4(fp)
     438:	10802810 	cmplti	r2,r2,160
     43c:	103ff61e 	bne	r2,zero,418 <__alt_mem_VGA_Subsystem_Char_Buf_Subsystem_Onchip_SRAM+0xf7000418>
    }
}

// 初始化 VGA 屏幕
void clear_screen() {
    for (int y = 0; y < SCREEN_HEIGHT; y++) {
     440:	e0bffe17 	ldw	r2,-8(fp)
     444:	10800044 	addi	r2,r2,1
     448:	e0bffe15 	stw	r2,-8(fp)
     44c:	e0bffe17 	ldw	r2,-8(fp)
     450:	10801e10 	cmplti	r2,r2,120
     454:	103fee1e 	bne	r2,zero,410 <__alt_mem_VGA_Subsystem_Char_Buf_Subsystem_Onchip_SRAM+0xf7000410>
        for (int x = 0; x < SCREEN_WIDTH; x++) {
        	vga_plot_pixel(x, y, COLOR_BLACK);  // 设置为黑色
        }
    }
}
     458:	0001883a 	nop
     45c:	e037883a 	mov	sp,fp
     460:	dfc00117 	ldw	ra,4(sp)
     464:	df000017 	ldw	fp,0(sp)
     468:	dec00204 	addi	sp,sp,8
     46c:	f800283a 	ret

00000470 <vga_draw_line>:

// 画线函数 (Bresenham's Line Algorithm)
void vga_draw_line(int x0, int y0, int x1, int y1, uint8_t color) {
     470:	defff304 	addi	sp,sp,-52
     474:	dfc00c15 	stw	ra,48(sp)
     478:	df000b15 	stw	fp,44(sp)
     47c:	df000b04 	addi	fp,sp,44
     480:	e13ffb15 	stw	r4,-20(fp)
     484:	e17ffc15 	stw	r5,-16(fp)
     488:	e1bffd15 	stw	r6,-12(fp)
     48c:	e1fffe15 	stw	r7,-8(fp)
     490:	e0800217 	ldw	r2,8(fp)
     494:	e0bfff05 	stb	r2,-4(fp)
    int dx = abs(x1 - x0);
     498:	e0fffd17 	ldw	r3,-12(fp)
     49c:	e0bffb17 	ldw	r2,-20(fp)
     4a0:	1885c83a 	sub	r2,r3,r2
     4a4:	1000010e 	bge	r2,zero,4ac <vga_draw_line+0x3c>
     4a8:	0085c83a 	sub	r2,zero,r2
     4ac:	e0bff615 	stw	r2,-40(fp)
    int dy = abs(y1 - y0);
     4b0:	e0fffe17 	ldw	r3,-8(fp)
     4b4:	e0bffc17 	ldw	r2,-16(fp)
     4b8:	1885c83a 	sub	r2,r3,r2
     4bc:	1000010e 	bge	r2,zero,4c4 <vga_draw_line+0x54>
     4c0:	0085c83a 	sub	r2,zero,r2
     4c4:	e0bff715 	stw	r2,-36(fp)
    int sx = (x0 < x1) ? 1 : -1;
     4c8:	e0fffb17 	ldw	r3,-20(fp)
     4cc:	e0bffd17 	ldw	r2,-12(fp)
     4d0:	1880020e 	bge	r3,r2,4dc <vga_draw_line+0x6c>
     4d4:	00800044 	movi	r2,1
     4d8:	00000106 	br	4e0 <vga_draw_line+0x70>
     4dc:	00bfffc4 	movi	r2,-1
     4e0:	e0bff815 	stw	r2,-32(fp)
    int sy = (y0 < y1) ? 1 : -1;
     4e4:	e0fffc17 	ldw	r3,-16(fp)
     4e8:	e0bffe17 	ldw	r2,-8(fp)
     4ec:	1880020e 	bge	r3,r2,4f8 <vga_draw_line+0x88>
     4f0:	00800044 	movi	r2,1
     4f4:	00000106 	br	4fc <vga_draw_line+0x8c>
     4f8:	00bfffc4 	movi	r2,-1
     4fc:	e0bff915 	stw	r2,-28(fp)
    int err = dx - dy;
     500:	e0fff617 	ldw	r3,-40(fp)
     504:	e0bff717 	ldw	r2,-36(fp)
     508:	1885c83a 	sub	r2,r3,r2
     50c:	e0bff515 	stw	r2,-44(fp)

    while (1) {
        vga_plot_pixel(x0, y0, color);  // 绘制当前像素
     510:	e0bfff03 	ldbu	r2,-4(fp)
     514:	100d883a 	mov	r6,r2
     518:	e17ffc17 	ldw	r5,-16(fp)
     51c:	e13ffb17 	ldw	r4,-20(fp)
     520:	00003600 	call	360 <vga_plot_pixel>
        if (x0 == x1 && y0 == y1) break;  // 到达终点，退出循环
     524:	e0fffb17 	ldw	r3,-20(fp)
     528:	e0bffd17 	ldw	r2,-12(fp)
     52c:	1880031e 	bne	r3,r2,53c <vga_draw_line+0xcc>
     530:	e0fffc17 	ldw	r3,-16(fp)
     534:	e0bffe17 	ldw	r2,-8(fp)
     538:	18801b26 	beq	r3,r2,5a8 <vga_draw_line+0x138>

        int e2 = 2 * err;
     53c:	e0bff517 	ldw	r2,-44(fp)
     540:	1085883a 	add	r2,r2,r2
     544:	e0bffa15 	stw	r2,-24(fp)
        if (e2 > -dy) {
     548:	e0bff717 	ldw	r2,-36(fp)
     54c:	0087c83a 	sub	r3,zero,r2
     550:	e0bffa17 	ldw	r2,-24(fp)
     554:	1880080e 	bge	r3,r2,578 <vga_draw_line+0x108>
            err -= dy;
     558:	e0fff517 	ldw	r3,-44(fp)
     55c:	e0bff717 	ldw	r2,-36(fp)
     560:	1885c83a 	sub	r2,r3,r2
     564:	e0bff515 	stw	r2,-44(fp)
            x0 += sx;
     568:	e0fffb17 	ldw	r3,-20(fp)
     56c:	e0bff817 	ldw	r2,-32(fp)
     570:	1885883a 	add	r2,r3,r2
     574:	e0bffb15 	stw	r2,-20(fp)
        }
        if (e2 < dx) {
     578:	e0fffa17 	ldw	r3,-24(fp)
     57c:	e0bff617 	ldw	r2,-40(fp)
     580:	18bfe30e 	bge	r3,r2,510 <__alt_mem_VGA_Subsystem_Char_Buf_Subsystem_Onchip_SRAM+0xf7000510>
            err += dx;
     584:	e0fff517 	ldw	r3,-44(fp)
     588:	e0bff617 	ldw	r2,-40(fp)
     58c:	1885883a 	add	r2,r3,r2
     590:	e0bff515 	stw	r2,-44(fp)
            y0 += sy;
     594:	e0fffc17 	ldw	r3,-16(fp)
     598:	e0bff917 	ldw	r2,-28(fp)
     59c:	1885883a 	add	r2,r3,r2
     5a0:	e0bffc15 	stw	r2,-16(fp)
        }
    }
     5a4:	003fda06 	br	510 <__alt_mem_VGA_Subsystem_Char_Buf_Subsystem_Onchip_SRAM+0xf7000510>
    int sy = (y0 < y1) ? 1 : -1;
    int err = dx - dy;

    while (1) {
        vga_plot_pixel(x0, y0, color);  // 绘制当前像素
        if (x0 == x1 && y0 == y1) break;  // 到达终点，退出循环
     5a8:	0001883a 	nop
        if (e2 < dx) {
            err += dx;
            y0 += sy;
        }
    }
}
     5ac:	0001883a 	nop
     5b0:	e037883a 	mov	sp,fp
     5b4:	dfc00117 	ldw	ra,4(sp)
     5b8:	df000017 	ldw	fp,0(sp)
     5bc:	dec00204 	addi	sp,sp,8
     5c0:	f800283a 	ret

000005c4 <draw_scan_line>:

// 绘制扫描区域
void draw_scan_line(int angle, int obstacle_distance) {
     5c4:	defff104 	addi	sp,sp,-60
     5c8:	dfc00e15 	stw	ra,56(sp)
     5cc:	df000d15 	stw	fp,52(sp)
     5d0:	dc400c15 	stw	r17,48(sp)
     5d4:	dc000b15 	stw	r16,44(sp)
     5d8:	df000d04 	addi	fp,sp,52
     5dc:	e13ffc15 	stw	r4,-16(fp)
     5e0:	e17ffd15 	stw	r5,-12(fp)
    int x_center = SCREEN_WIDTH / 2;
     5e4:	00801404 	movi	r2,80
     5e8:	e0bff415 	stw	r2,-48(fp)
    int y_center = SCREEN_HEIGHT - 1;
     5ec:	00801dc4 	movi	r2,119
     5f0:	e0bff515 	stw	r2,-44(fp)

    double angle_rad = DEG_TO_RAD(angle);
     5f4:	e13ffc17 	ldw	r4,-16(fp)
     5f8:	0002f6c0 	call	2f6c <__floatsisf>
     5fc:	1007883a 	mov	r3,r2
     600:	00901274 	movhi	r2,16457
     604:	1083f6c4 	addi	r2,r2,4059
     608:	1887ff32 	custom	252,r3,r3,r2
     60c:	0090cd34 	movhi	r2,17204
     610:	1885fff2 	custom	255,r2,r3,r2
     614:	1009883a 	mov	r4,r2
     618:	0004d640 	call	4d64 <__extendsfdf2>
     61c:	1009883a 	mov	r4,r2
     620:	180b883a 	mov	r5,r3
     624:	e13ff615 	stw	r4,-40(fp)
     628:	e17ff715 	stw	r5,-36(fp)
    int x_obstacle = x_center + (int)(obstacle_distance * cos(angle_rad));
     62c:	e13ffd17 	ldw	r4,-12(fp)
     630:	0004c880 	call	4c88 <__floatsidf>
     634:	1021883a 	mov	r16,r2
     638:	1823883a 	mov	r17,r3
     63c:	e13ff617 	ldw	r4,-40(fp)
     640:	e17ff717 	ldw	r5,-36(fp)
     644:	0000b880 	call	b88 <cos>
     648:	1009883a 	mov	r4,r2
     64c:	180b883a 	mov	r5,r3
     650:	200d883a 	mov	r6,r4
     654:	280f883a 	mov	r7,r5
     658:	8009883a 	mov	r4,r16
     65c:	880b883a 	mov	r5,r17
     660:	0003aa00 	call	3aa0 <__muldf3>
     664:	1009883a 	mov	r4,r2
     668:	180b883a 	mov	r5,r3
     66c:	2005883a 	mov	r2,r4
     670:	2807883a 	mov	r3,r5
     674:	1009883a 	mov	r4,r2
     678:	180b883a 	mov	r5,r3
     67c:	0004c080 	call	4c08 <__fixdfsi>
     680:	1007883a 	mov	r3,r2
     684:	e0bff417 	ldw	r2,-48(fp)
     688:	1885883a 	add	r2,r3,r2
     68c:	e0bff815 	stw	r2,-32(fp)
    int y_obstacle = y_center - (int)(obstacle_distance * sin(angle_rad));
     690:	e13ffd17 	ldw	r4,-12(fp)
     694:	0004c880 	call	4c88 <__floatsidf>
     698:	1021883a 	mov	r16,r2
     69c:	1823883a 	mov	r17,r3
     6a0:	e13ff617 	ldw	r4,-40(fp)
     6a4:	e17ff717 	ldw	r5,-36(fp)
     6a8:	0000c740 	call	c74 <sin>
     6ac:	1009883a 	mov	r4,r2
     6b0:	180b883a 	mov	r5,r3
     6b4:	200d883a 	mov	r6,r4
     6b8:	280f883a 	mov	r7,r5
     6bc:	8009883a 	mov	r4,r16
     6c0:	880b883a 	mov	r5,r17
     6c4:	0003aa00 	call	3aa0 <__muldf3>
     6c8:	1009883a 	mov	r4,r2
     6cc:	180b883a 	mov	r5,r3
     6d0:	2005883a 	mov	r2,r4
     6d4:	2807883a 	mov	r3,r5
     6d8:	1009883a 	mov	r4,r2
     6dc:	180b883a 	mov	r5,r3
     6e0:	0004c080 	call	4c08 <__fixdfsi>
     6e4:	1007883a 	mov	r3,r2
     6e8:	e0bff517 	ldw	r2,-44(fp)
     6ec:	10c5c83a 	sub	r2,r2,r3
     6f0:	e0bff915 	stw	r2,-28(fp)

    int x_max = x_center + (int)(MAX_DISTANCE * cos(angle_rad));
     6f4:	e13ff617 	ldw	r4,-40(fp)
     6f8:	e17ff717 	ldw	r5,-36(fp)
     6fc:	0000b880 	call	b88 <cos>
     700:	1011883a 	mov	r8,r2
     704:	1813883a 	mov	r9,r3
     708:	000d883a 	mov	r6,zero
     70c:	01d01e74 	movhi	r7,16505
     710:	4009883a 	mov	r4,r8
     714:	480b883a 	mov	r5,r9
     718:	0003aa00 	call	3aa0 <__muldf3>
     71c:	1009883a 	mov	r4,r2
     720:	180b883a 	mov	r5,r3
     724:	2005883a 	mov	r2,r4
     728:	2807883a 	mov	r3,r5
     72c:	1009883a 	mov	r4,r2
     730:	180b883a 	mov	r5,r3
     734:	0004c080 	call	4c08 <__fixdfsi>
     738:	1007883a 	mov	r3,r2
     73c:	e0bff417 	ldw	r2,-48(fp)
     740:	1885883a 	add	r2,r3,r2
     744:	e0bffa15 	stw	r2,-24(fp)
    int y_max = y_center - (int)(MAX_DISTANCE * sin(angle_rad));
     748:	e13ff617 	ldw	r4,-40(fp)
     74c:	e17ff717 	ldw	r5,-36(fp)
     750:	0000c740 	call	c74 <sin>
     754:	1011883a 	mov	r8,r2
     758:	1813883a 	mov	r9,r3
     75c:	000d883a 	mov	r6,zero
     760:	01d01e74 	movhi	r7,16505
     764:	4009883a 	mov	r4,r8
     768:	480b883a 	mov	r5,r9
     76c:	0003aa00 	call	3aa0 <__muldf3>
     770:	1009883a 	mov	r4,r2
     774:	180b883a 	mov	r5,r3
     778:	2005883a 	mov	r2,r4
     77c:	2807883a 	mov	r3,r5
     780:	1009883a 	mov	r4,r2
     784:	180b883a 	mov	r5,r3
     788:	0004c080 	call	4c08 <__fixdfsi>
     78c:	1007883a 	mov	r3,r2
     790:	e0bff517 	ldw	r2,-44(fp)
     794:	10c5c83a 	sub	r2,r2,r3
     798:	e0bffb15 	stw	r2,-20(fp)

    // 绘制从中心到障碍点的绿色线
    vga_draw_line(x_center, y_center, x_obstacle, y_obstacle, COLOR_GREEN);
     79c:	00803804 	movi	r2,224
     7a0:	d8800015 	stw	r2,0(sp)
     7a4:	e1fff917 	ldw	r7,-28(fp)
     7a8:	e1bff817 	ldw	r6,-32(fp)
     7ac:	e17ff517 	ldw	r5,-44(fp)
     7b0:	e13ff417 	ldw	r4,-48(fp)
     7b4:	00004700 	call	470 <vga_draw_line>

    // 在障碍物点之后继续画红色线
    vga_draw_line(x_obstacle, y_obstacle, x_max, y_max, COLOR_RED);
     7b8:	d8000015 	stw	zero,0(sp)
     7bc:	e1fffb17 	ldw	r7,-20(fp)
     7c0:	e1bffa17 	ldw	r6,-24(fp)
     7c4:	e17ff917 	ldw	r5,-28(fp)
     7c8:	e13ff817 	ldw	r4,-32(fp)
     7cc:	00004700 	call	470 <vga_draw_line>

    // 绘制障碍物为红色点
    vga_plot_pixel(x_obstacle, y_obstacle, COLOR_RED);
     7d0:	000d883a 	mov	r6,zero
     7d4:	e17ff917 	ldw	r5,-28(fp)
     7d8:	e13ff817 	ldw	r4,-32(fp)
     7dc:	00003600 	call	360 <vga_plot_pixel>
}
     7e0:	0001883a 	nop
     7e4:	e6fffe04 	addi	sp,fp,-8
     7e8:	dfc00317 	ldw	ra,12(sp)
     7ec:	df000217 	ldw	fp,8(sp)
     7f0:	dc400117 	ldw	r17,4(sp)
     7f4:	dc000017 	ldw	r16,0(sp)
     7f8:	dec00404 	addi	sp,sp,16
     7fc:	f800283a 	ret

00000800 <test_vga_display>:

// 测试 VGA 显示
void test_vga_display() {
     800:	defffc04 	addi	sp,sp,-16
     804:	dfc00315 	stw	ra,12(sp)
     808:	df000215 	stw	fp,8(sp)
     80c:	df000204 	addi	fp,sp,8
    for (int y = 0; y < SCREEN_HEIGHT; y++) {
     810:	e03ffe15 	stw	zero,-8(fp)
     814:	00001506 	br	86c <test_vga_display+0x6c>
        for (int x = 0; x < SCREEN_WIDTH; x++) {
     818:	e03fff15 	stw	zero,-4(fp)
     81c:	00000d06 	br	854 <test_vga_display+0x54>
            vga_plot_pixel(x, y, (x % 2 == 0) ? COLOR_BLUE : COLOR_GREEN);
     820:	e0bfff17 	ldw	r2,-4(fp)
     824:	1080004c 	andi	r2,r2,1
     828:	1000021e 	bne	r2,zero,834 <test_vga_display+0x34>
     82c:	008007c4 	movi	r2,31
     830:	00000106 	br	838 <test_vga_display+0x38>
     834:	00803804 	movi	r2,224
     838:	100d883a 	mov	r6,r2
     83c:	e17ffe17 	ldw	r5,-8(fp)
     840:	e13fff17 	ldw	r4,-4(fp)
     844:	00003600 	call	360 <vga_plot_pixel>
}

// 测试 VGA 显示
void test_vga_display() {
    for (int y = 0; y < SCREEN_HEIGHT; y++) {
        for (int x = 0; x < SCREEN_WIDTH; x++) {
     848:	e0bfff17 	ldw	r2,-4(fp)
     84c:	10800044 	addi	r2,r2,1
     850:	e0bfff15 	stw	r2,-4(fp)
     854:	e0bfff17 	ldw	r2,-4(fp)
     858:	10802810 	cmplti	r2,r2,160
     85c:	103ff01e 	bne	r2,zero,820 <__alt_mem_VGA_Subsystem_Char_Buf_Subsystem_Onchip_SRAM+0xf7000820>
    vga_plot_pixel(x_obstacle, y_obstacle, COLOR_RED);
}

// 测试 VGA 显示
void test_vga_display() {
    for (int y = 0; y < SCREEN_HEIGHT; y++) {
     860:	e0bffe17 	ldw	r2,-8(fp)
     864:	10800044 	addi	r2,r2,1
     868:	e0bffe15 	stw	r2,-8(fp)
     86c:	e0bffe17 	ldw	r2,-8(fp)
     870:	10801e10 	cmplti	r2,r2,120
     874:	103fe81e 	bne	r2,zero,818 <__alt_mem_VGA_Subsystem_Char_Buf_Subsystem_Onchip_SRAM+0xf7000818>
        for (int x = 0; x < SCREEN_WIDTH; x++) {
            vga_plot_pixel(x, y, (x % 2 == 0) ? COLOR_BLUE : COLOR_GREEN);
        }
    }
    printf("VGA test complished\n");
     878:	01000074 	movhi	r4,1
     87c:	210b8c04 	addi	r4,r4,11824
     880:	00050040 	call	5004 <puts>
}
     884:	0001883a 	nop
     888:	e037883a 	mov	sp,fp
     88c:	dfc00117 	ldw	ra,4(sp)
     890:	df000017 	ldw	fp,0(sp)
     894:	dec00204 	addi	sp,sp,8
     898:	f800283a 	ret

0000089c <main>:

// 主函数
int main() {
     89c:	defff004 	addi	sp,sp,-64
     8a0:	dfc00f15 	stw	ra,60(sp)
     8a4:	df000e15 	stw	fp,56(sp)
     8a8:	dc000d15 	stw	r16,52(sp)
     8ac:	df000e04 	addi	fp,sp,56
    printf("init VGA\n");
     8b0:	01000074 	movhi	r4,1
     8b4:	210b9104 	addi	r4,r4,11844
     8b8:	00050040 	call	5004 <puts>
    clear_screen();
     8bc:	00003f80 	call	3f8 <clear_screen>
    printf("screen clear\n");
     8c0:	01000074 	movhi	r4,1
     8c4:	210b9404 	addi	r4,r4,11856
     8c8:	00050040 	call	5004 <puts>

    test_vga_display();
     8cc:	00008000 	call	800 <test_vga_display>
    usleep(DELAY_US*2);
     8d0:	010000b4 	movhi	r4,2
     8d4:	2121a804 	addi	r4,r4,-31072
     8d8:	001075c0 	call	1075c <usleep>
    clear_screen();
     8dc:	00003f80 	call	3f8 <clear_screen>

    // 尝试绘制单个像素，如果成功，表示地址无误
    vga_plot_pixel(10, 10, COLOR_RED);
     8e0:	000d883a 	mov	r6,zero
     8e4:	01400284 	movi	r5,10
     8e8:	01000284 	movi	r4,10
     8ec:	00003600 	call	360 <vga_plot_pixel>
    vga_plot_pixel(11, 11, COLOR_RED);
     8f0:	000d883a 	mov	r6,zero
     8f4:	014002c4 	movi	r5,11
     8f8:	010002c4 	movi	r4,11
     8fc:	00003600 	call	360 <vga_plot_pixel>
    vga_plot_pixel(12, 12, COLOR_RED);
     900:	000d883a 	mov	r6,zero
     904:	01400304 	movi	r5,12
     908:	01000304 	movi	r4,12
     90c:	00003600 	call	360 <vga_plot_pixel>
    vga_plot_pixel(200, 200, COLOR_RED);
     910:	000d883a 	mov	r6,zero
     914:	01403204 	movi	r5,200
     918:	01003204 	movi	r4,200
     91c:	00003600 	call	360 <vga_plot_pixel>
    vga_plot_pixel(100, 100, COLOR_RED);
     920:	000d883a 	mov	r6,zero
     924:	01401904 	movi	r5,100
     928:	01001904 	movi	r4,100
     92c:	00003600 	call	360 <vga_plot_pixel>
    printf("Red pixel drawn at (100, 100)\n");
     930:	01000074 	movhi	r4,1
     934:	210b9804 	addi	r4,r4,11872
     938:	00050040 	call	5004 <puts>

    // 调试输出
    printf("VGA_PIXEL_BASE: 0x%08X\n", VGA_PIXEL_BASE);
     93c:	017fc834 	movhi	r5,65312
     940:	294c0804 	addi	r5,r5,12320
     944:	01000074 	movhi	r4,1
     948:	210ba004 	addi	r4,r4,11904
     94c:	0004f080 	call	4f08 <printf>
    printf("Pixel address: 0x%08X\n", VGA_PIXEL_BASE + (100 * SCREEN_WIDTH + 100) * 2);
     950:	017fc874 	movhi	r5,65313
     954:	296b7a04 	addi	r5,r5,-21016
     958:	01000074 	movhi	r4,1
     95c:	210ba604 	addi	r4,r4,11928
     960:	0004f080 	call	4f08 <printf>

    // 检查 VGA 控制器的寄存器
    volatile int *vga_ctrl = (int *)VGA_PIXEL_BASE;
     964:	00bfc834 	movhi	r2,65312
     968:	108c0804 	addi	r2,r2,12320
     96c:	e0bff515 	stw	r2,-44(fp)
    printf("VGA control register: 0x%08X\n", *vga_ctrl);
     970:	e0bff517 	ldw	r2,-44(fp)
     974:	10800017 	ldw	r2,0(r2)
     978:	100b883a 	mov	r5,r2
     97c:	01000074 	movhi	r4,1
     980:	210bac04 	addi	r4,r4,11952
     984:	0004f080 	call	4f08 <printf>

    // 检查 VGA 控制器的状态寄存器
    volatile int *vga_status = (int *)(VGA_PIXEL_BASE + 0x4);
     988:	00bfc834 	movhi	r2,65312
     98c:	108c0904 	addi	r2,r2,12324
     990:	e0bff615 	stw	r2,-40(fp)
    printf("VGA status register: 0x%08X\n", *vga_status);
     994:	e0bff617 	ldw	r2,-40(fp)
     998:	10800017 	ldw	r2,0(r2)
     99c:	100b883a 	mov	r5,r2
     9a0:	01000074 	movhi	r4,1
     9a4:	210bb404 	addi	r4,r4,11984
     9a8:	0004f080 	call	4f08 <printf>

    // 检查 VGA 控制器的分辨率
    volatile int *vga_resolution = (int *)(VGA_PIXEL_BASE + 0x8);
     9ac:	00bfc834 	movhi	r2,65312
     9b0:	108c0a04 	addi	r2,r2,12328
     9b4:	e0bff715 	stw	r2,-36(fp)
    int screen_x = *vga_resolution & 0xFFFF;
     9b8:	e0bff717 	ldw	r2,-36(fp)
     9bc:	10800017 	ldw	r2,0(r2)
     9c0:	10bfffcc 	andi	r2,r2,65535
     9c4:	e0bff815 	stw	r2,-32(fp)
    int screen_y = (*vga_resolution >> 16) & 0xFFFF;
     9c8:	e0bff717 	ldw	r2,-36(fp)
     9cc:	10800017 	ldw	r2,0(r2)
     9d0:	1004d43a 	srli	r2,r2,16
     9d4:	e0bff915 	stw	r2,-28(fp)
    printf("VGA resolution: %d x %d\n", screen_x, screen_y);
     9d8:	e1bff917 	ldw	r6,-28(fp)
     9dc:	e17ff817 	ldw	r5,-32(fp)
     9e0:	01000074 	movhi	r4,1
     9e4:	210bbc04 	addi	r4,r4,12016
     9e8:	0004f080 	call	4f08 <printf>

    int centaine, dizaine, unite, reste;
    int hex3_hex0;  		// Variable pour stocker les 4 affichages en 7 segments
    int angle = 0;          // 伺服电机的当前角度
     9ec:	e03ff215 	stw	zero,-56(fp)
    int step = 1;           // 旋转步长
     9f0:	00800044 	movi	r2,1
     9f4:	e0bff315 	stw	r2,-52(fp)

    while (1) {
        // 写入新的角度到伺服电机IP
        IOWR(SERVO_0_BASE, 0, angle);
     9f8:	00810034 	movhi	r2,1024
     9fc:	10800104 	addi	r2,r2,4
     a00:	e0fff217 	ldw	r3,-56(fp)
     a04:	10c00035 	stwio	r3,0(r2)

        // 读取超声波传感器的测量数据（以 cm 为单位）
        int distance = IORD(TELEMETRE_US_AVALON_0_BASE, 0) / 2;
     a08:	00810034 	movhi	r2,1024
     a0c:	10800204 	addi	r2,r2,8
     a10:	10800037 	ldwio	r2,0(r2)
     a14:	1006d7fa 	srli	r3,r2,31
     a18:	1885883a 	add	r2,r3,r2
     a1c:	1005d07a 	srai	r2,r2,1
     a20:	e0bff415 	stw	r2,-48(fp)

        // 验证距离是否有效
        if (distance < 0 || distance > 400) {
     a24:	e0bff417 	ldw	r2,-48(fp)
     a28:	10000316 	blt	r2,zero,a38 <main+0x19c>
     a2c:	e0bff417 	ldw	r2,-48(fp)
     a30:	10806450 	cmplti	r2,r2,401
     a34:	1000091e 	bne	r2,zero,a5c <main+0x1c0>
            distance = distance_history[angle];  // 保持之前的数值
     a38:	00800074 	movhi	r2,1
     a3c:	109b2004 	addi	r2,r2,27776
     a40:	e0fff217 	ldw	r3,-56(fp)
     a44:	18c7883a 	add	r3,r3,r3
     a48:	18c7883a 	add	r3,r3,r3
     a4c:	10c5883a 	add	r2,r2,r3
     a50:	10800017 	ldw	r2,0(r2)
     a54:	e0bff415 	stw	r2,-48(fp)
     a58:	00000806 	br	a7c <main+0x1e0>
        } else {
            distance_history[angle] = distance;  // 存储最新数值
     a5c:	00800074 	movhi	r2,1
     a60:	109b2004 	addi	r2,r2,27776
     a64:	e0fff217 	ldw	r3,-56(fp)
     a68:	18c7883a 	add	r3,r3,r3
     a6c:	18c7883a 	add	r3,r3,r3
     a70:	10c5883a 	add	r2,r2,r3
     a74:	e0fff417 	ldw	r3,-48(fp)
     a78:	10c00015 	stw	r3,0(r2)
        }

        // 在7段数码管上显示距离
        centaine = distance / 100;
     a7c:	e0bff417 	ldw	r2,-48(fp)
     a80:	01401904 	movi	r5,100
     a84:	1009883a 	mov	r4,r2
     a88:	0002d900 	call	2d90 <__divsi3>
     a8c:	e0bffa15 	stw	r2,-24(fp)
        reste = distance % 100;
     a90:	e0bff417 	ldw	r2,-48(fp)
     a94:	01401904 	movi	r5,100
     a98:	1009883a 	mov	r4,r2
     a9c:	0002e140 	call	2e14 <__modsi3>
     aa0:	e0bffb15 	stw	r2,-20(fp)
        dizaine = reste / 10;
     aa4:	e0bffb17 	ldw	r2,-20(fp)
     aa8:	01400284 	movi	r5,10
     aac:	1009883a 	mov	r4,r2
     ab0:	0002d900 	call	2d90 <__divsi3>
     ab4:	e0bffc15 	stw	r2,-16(fp)
        unite = reste % 10;
     ab8:	e0bffb17 	ldw	r2,-20(fp)
     abc:	01400284 	movi	r5,10
     ac0:	1009883a 	mov	r4,r2
     ac4:	0002e140 	call	2e14 <__modsi3>
     ac8:	e0bffd15 	stw	r2,-12(fp)

        // 将每个数字转换为7段显示码并组合
        hex3_hex0 = (LED_Choisir(centaine) << 16) |
     acc:	e13ffa17 	ldw	r4,-24(fp)
     ad0:	000026c0 	call	26c <LED_Choisir>
     ad4:	1020943a 	slli	r16,r2,16
                    (LED_Choisir(dizaine) << 8) |
     ad8:	e13ffc17 	ldw	r4,-16(fp)
     adc:	000026c0 	call	26c <LED_Choisir>
     ae0:	1004923a 	slli	r2,r2,8
        reste = distance % 100;
        dizaine = reste / 10;
        unite = reste % 10;

        // 将每个数字转换为7段显示码并组合
        hex3_hex0 = (LED_Choisir(centaine) << 16) |
     ae4:	80a0b03a 	or	r16,r16,r2
                    (LED_Choisir(dizaine) << 8) |
                    (LED_Choisir(unite) << 0);
     ae8:	e13ffd17 	ldw	r4,-12(fp)
     aec:	000026c0 	call	26c <LED_Choisir>
        reste = distance % 100;
        dizaine = reste / 10;
        unite = reste % 10;

        // 将每个数字转换为7段显示码并组合
        hex3_hex0 = (LED_Choisir(centaine) << 16) |
     af0:	8084b03a 	or	r2,r16,r2
     af4:	e0bffe15 	stw	r2,-8(fp)
                    (LED_Choisir(dizaine) << 8) |
                    (LED_Choisir(unite) << 0);

        // 将结果显示在HEX3_HEX0端口
        IOWR_ALTERA_AVALON_PIO_DATA(HEX3_HEX0_BASE, hex3_hex0);
     af8:	00bfc834 	movhi	r2,65312
     afc:	10800804 	addi	r2,r2,32
     b00:	e0fffe17 	ldw	r3,-8(fp)
     b04:	10c00035 	stwio	r3,0(r2)

        // 在控制台输出当前角度和距离
        printf("%d degree -> %d cm \n", angle, distance);
     b08:	e1bff417 	ldw	r6,-48(fp)
     b0c:	e17ff217 	ldw	r5,-56(fp)
     b10:	01000074 	movhi	r4,1
     b14:	210bc304 	addi	r4,r4,12044
     b18:	0004f080 	call	4f08 <printf>

        // 绘制障碍物信息
        draw_scan_line(angle, distance_history[angle]);
     b1c:	00800074 	movhi	r2,1
     b20:	109b2004 	addi	r2,r2,27776
     b24:	e0fff217 	ldw	r3,-56(fp)
     b28:	18c7883a 	add	r3,r3,r3
     b2c:	18c7883a 	add	r3,r3,r3
     b30:	10c5883a 	add	r2,r2,r3
     b34:	10800017 	ldw	r2,0(r2)
     b38:	100b883a 	mov	r5,r2
     b3c:	e13ff217 	ldw	r4,-56(fp)
     b40:	00005c40 	call	5c4 <draw_scan_line>

        // 延迟 0.05秒
        usleep(DELAY_US);
     b44:	0130d414 	movui	r4,50000
     b48:	001075c0 	call	1075c <usleep>

        // 更新角度：顺时针旋转到180度，再逆时针旋转回0度
        if (angle == MAX_ANGLE) {
     b4c:	e0bff217 	ldw	r2,-56(fp)
     b50:	10802d18 	cmpnei	r2,r2,180
     b54:	1000031e 	bne	r2,zero,b64 <main+0x2c8>
            step = -1;
     b58:	00bfffc4 	movi	r2,-1
     b5c:	e0bff315 	stw	r2,-52(fp)
     b60:	00000406 	br	b74 <main+0x2d8>
        } else if (angle == MIN_ANGLE) {
     b64:	e0bff217 	ldw	r2,-56(fp)
     b68:	1000021e 	bne	r2,zero,b74 <main+0x2d8>
            step = 1;
     b6c:	00800044 	movi	r2,1
     b70:	e0bff315 	stw	r2,-52(fp)
        }
        angle += step;
     b74:	e0fff217 	ldw	r3,-56(fp)
     b78:	e0bff317 	ldw	r2,-52(fp)
     b7c:	1885883a 	add	r2,r3,r2
     b80:	e0bff215 	stw	r2,-56(fp)
    }
     b84:	003f9c06 	br	9f8 <__alt_mem_VGA_Subsystem_Char_Buf_Subsystem_Onchip_SRAM+0xf70009f8>

00000b88 <cos>:
     b88:	00a00034 	movhi	r2,32768
     b8c:	defffa04 	addi	sp,sp,-24
     b90:	10bfffc4 	addi	r2,r2,-1
     b94:	00cffa74 	movhi	r3,16361
     b98:	dfc00515 	stw	ra,20(sp)
     b9c:	2884703a 	and	r2,r5,r2
     ba0:	18c87ec4 	addi	r3,r3,8699
     ba4:	1880180e 	bge	r3,r2,c08 <cos+0x80>
     ba8:	00dffc34 	movhi	r3,32752
     bac:	18ffffc4 	addi	r3,r3,-1
     bb0:	1880060e 	bge	r3,r2,bcc <cos+0x44>
     bb4:	280f883a 	mov	r7,r5
     bb8:	200d883a 	mov	r6,r4
     bbc:	000430c0 	call	430c <__subdf3>
     bc0:	dfc00517 	ldw	ra,20(sp)
     bc4:	dec00604 	addi	sp,sp,24
     bc8:	f800283a 	ret
     bcc:	d9800104 	addi	r6,sp,4
     bd0:	0000d640 	call	d64 <__ieee754_rem_pio2>
     bd4:	108000cc 	andi	r2,r2,3
     bd8:	00c00044 	movi	r3,1
     bdc:	10c01726 	beq	r2,r3,c3c <cos+0xb4>
     be0:	01000084 	movi	r4,2
     be4:	11000e26 	beq	r2,r4,c20 <cos+0x98>
     be8:	10001c26 	beq	r2,zero,c5c <cos+0xd4>
     bec:	d9800317 	ldw	r6,12(sp)
     bf0:	d9c00417 	ldw	r7,16(sp)
     bf4:	d9000117 	ldw	r4,4(sp)
     bf8:	d9400217 	ldw	r5,8(sp)
     bfc:	d8c00015 	stw	r3,0(sp)
     c00:	000270c0 	call	270c <__kernel_sin>
     c04:	003fee06 	br	bc0 <__alt_mem_VGA_Subsystem_Char_Buf_Subsystem_Onchip_SRAM+0xf7000bc0>
     c08:	000d883a 	mov	r6,zero
     c0c:	000f883a 	mov	r7,zero
     c10:	00014d00 	call	14d0 <__kernel_cos>
     c14:	dfc00517 	ldw	ra,20(sp)
     c18:	dec00604 	addi	sp,sp,24
     c1c:	f800283a 	ret
     c20:	d9800317 	ldw	r6,12(sp)
     c24:	d9c00417 	ldw	r7,16(sp)
     c28:	d9000117 	ldw	r4,4(sp)
     c2c:	d9400217 	ldw	r5,8(sp)
     c30:	00014d00 	call	14d0 <__kernel_cos>
     c34:	18e0003c 	xorhi	r3,r3,32768
     c38:	003fe106 	br	bc0 <__alt_mem_VGA_Subsystem_Char_Buf_Subsystem_Onchip_SRAM+0xf7000bc0>
     c3c:	d9800317 	ldw	r6,12(sp)
     c40:	d9c00417 	ldw	r7,16(sp)
     c44:	d9000117 	ldw	r4,4(sp)
     c48:	d9400217 	ldw	r5,8(sp)
     c4c:	d8800015 	stw	r2,0(sp)
     c50:	000270c0 	call	270c <__kernel_sin>
     c54:	18e0003c 	xorhi	r3,r3,32768
     c58:	003fd906 	br	bc0 <__alt_mem_VGA_Subsystem_Char_Buf_Subsystem_Onchip_SRAM+0xf7000bc0>
     c5c:	d9800317 	ldw	r6,12(sp)
     c60:	d9c00417 	ldw	r7,16(sp)
     c64:	d9000117 	ldw	r4,4(sp)
     c68:	d9400217 	ldw	r5,8(sp)
     c6c:	00014d00 	call	14d0 <__kernel_cos>
     c70:	003fd306 	br	bc0 <__alt_mem_VGA_Subsystem_Char_Buf_Subsystem_Onchip_SRAM+0xf7000bc0>

00000c74 <sin>:
     c74:	00a00034 	movhi	r2,32768
     c78:	defffa04 	addi	sp,sp,-24
     c7c:	10bfffc4 	addi	r2,r2,-1
     c80:	00cffa74 	movhi	r3,16361
     c84:	dfc00515 	stw	ra,20(sp)
     c88:	2884703a 	and	r2,r5,r2
     c8c:	18c87ec4 	addi	r3,r3,8699
     c90:	1880180e 	bge	r3,r2,cf4 <sin+0x80>
     c94:	00dffc34 	movhi	r3,32752
     c98:	18ffffc4 	addi	r3,r3,-1
     c9c:	1880060e 	bge	r3,r2,cb8 <sin+0x44>
     ca0:	280f883a 	mov	r7,r5
     ca4:	200d883a 	mov	r6,r4
     ca8:	000430c0 	call	430c <__subdf3>
     cac:	dfc00517 	ldw	ra,20(sp)
     cb0:	dec00604 	addi	sp,sp,24
     cb4:	f800283a 	ret
     cb8:	d9800104 	addi	r6,sp,4
     cbc:	0000d640 	call	d64 <__ieee754_rem_pio2>
     cc0:	108000cc 	andi	r2,r2,3
     cc4:	00c00044 	movi	r3,1
     cc8:	10c01926 	beq	r2,r3,d30 <sin+0xbc>
     ccc:	01000084 	movi	r4,2
     cd0:	11000f26 	beq	r2,r4,d10 <sin+0x9c>
     cd4:	10001c26 	beq	r2,zero,d48 <sin+0xd4>
     cd8:	d9800317 	ldw	r6,12(sp)
     cdc:	d9c00417 	ldw	r7,16(sp)
     ce0:	d9000117 	ldw	r4,4(sp)
     ce4:	d9400217 	ldw	r5,8(sp)
     ce8:	00014d00 	call	14d0 <__kernel_cos>
     cec:	18e0003c 	xorhi	r3,r3,32768
     cf0:	003fee06 	br	cac <__alt_mem_VGA_Subsystem_Char_Buf_Subsystem_Onchip_SRAM+0xf7000cac>
     cf4:	d8000015 	stw	zero,0(sp)
     cf8:	000d883a 	mov	r6,zero
     cfc:	000f883a 	mov	r7,zero
     d00:	000270c0 	call	270c <__kernel_sin>
     d04:	dfc00517 	ldw	ra,20(sp)
     d08:	dec00604 	addi	sp,sp,24
     d0c:	f800283a 	ret
     d10:	d9800317 	ldw	r6,12(sp)
     d14:	d9c00417 	ldw	r7,16(sp)
     d18:	d9000117 	ldw	r4,4(sp)
     d1c:	d9400217 	ldw	r5,8(sp)
     d20:	d8c00015 	stw	r3,0(sp)
     d24:	000270c0 	call	270c <__kernel_sin>
     d28:	18e0003c 	xorhi	r3,r3,32768
     d2c:	003fdf06 	br	cac <__alt_mem_VGA_Subsystem_Char_Buf_Subsystem_Onchip_SRAM+0xf7000cac>
     d30:	d9800317 	ldw	r6,12(sp)
     d34:	d9c00417 	ldw	r7,16(sp)
     d38:	d9000117 	ldw	r4,4(sp)
     d3c:	d9400217 	ldw	r5,8(sp)
     d40:	00014d00 	call	14d0 <__kernel_cos>
     d44:	003fd906 	br	cac <__alt_mem_VGA_Subsystem_Char_Buf_Subsystem_Onchip_SRAM+0xf7000cac>
     d48:	d9800317 	ldw	r6,12(sp)
     d4c:	d9c00417 	ldw	r7,16(sp)
     d50:	d9000117 	ldw	r4,4(sp)
     d54:	d9400217 	ldw	r5,8(sp)
     d58:	d8c00015 	stw	r3,0(sp)
     d5c:	000270c0 	call	270c <__kernel_sin>
     d60:	003fd206 	br	cac <__alt_mem_VGA_Subsystem_Char_Buf_Subsystem_Onchip_SRAM+0xf7000cac>

00000d64 <__ieee754_rem_pio2>:
     d64:	02200034 	movhi	r8,32768
     d68:	deffea04 	addi	sp,sp,-88
     d6c:	423fffc4 	addi	r8,r8,-1
     d70:	00cffa74 	movhi	r3,16361
     d74:	ddc01315 	stw	r23,76(sp)
     d78:	dc400d15 	stw	r17,52(sp)
     d7c:	dfc01515 	stw	ra,84(sp)
     d80:	df001415 	stw	fp,80(sp)
     d84:	dd801215 	stw	r22,72(sp)
     d88:	dd401115 	stw	r21,68(sp)
     d8c:	dd001015 	stw	r20,64(sp)
     d90:	dcc00f15 	stw	r19,60(sp)
     d94:	dc800e15 	stw	r18,56(sp)
     d98:	dc000c15 	stw	r16,48(sp)
     d9c:	2a2e703a 	and	r23,r5,r8
     da0:	18c87ec4 	addi	r3,r3,8699
     da4:	2823883a 	mov	r17,r5
     da8:	1dc0790e 	bge	r3,r23,f90 <__ieee754_rem_pio2+0x22c>
     dac:	009000f4 	movhi	r2,16387
     db0:	10b65ec4 	addi	r2,r2,-9861
     db4:	3021883a 	mov	r16,r6
     db8:	2027883a 	mov	r19,r4
     dbc:	15c02316 	blt	r2,r23,e4c <__ieee754_rem_pio2+0xe8>
     dc0:	01cffe74 	movhi	r7,16377
     dc4:	39c87ec4 	addi	r7,r7,8699
     dc8:	01951034 	movhi	r6,21568
     dcc:	01417a0e 	bge	zero,r5,13b8 <__ieee754_rem_pio2+0x654>
     dd0:	000430c0 	call	430c <__subdf3>
     dd4:	1025883a 	mov	r18,r2
     dd8:	008ffe74 	movhi	r2,16377
     ddc:	10887ec4 	addi	r2,r2,8699
     de0:	1823883a 	mov	r17,r3
     de4:	b8808426 	beq	r23,r2,ff8 <__ieee754_rem_pio2+0x294>
     de8:	018698b4 	movhi	r6,6754
     dec:	01cf7474 	movhi	r7,15825
     df0:	3198cc44 	addi	r6,r6,25393
     df4:	39ed1844 	addi	r7,r7,-19359
     df8:	9009883a 	mov	r4,r18
     dfc:	180b883a 	mov	r5,r3
     e00:	000430c0 	call	430c <__subdf3>
     e04:	100d883a 	mov	r6,r2
     e08:	180f883a 	mov	r7,r3
     e0c:	9009883a 	mov	r4,r18
     e10:	880b883a 	mov	r5,r17
     e14:	80800015 	stw	r2,0(r16)
     e18:	80c00115 	stw	r3,4(r16)
     e1c:	000430c0 	call	430c <__subdf3>
     e20:	018698b4 	movhi	r6,6754
     e24:	01cf7474 	movhi	r7,15825
     e28:	3198cc44 	addi	r6,r6,25393
     e2c:	39ed1844 	addi	r7,r7,-19359
     e30:	1009883a 	mov	r4,r2
     e34:	180b883a 	mov	r5,r3
     e38:	000430c0 	call	430c <__subdf3>
     e3c:	80800215 	stw	r2,8(r16)
     e40:	80c00315 	stw	r3,12(r16)
     e44:	00800044 	movi	r2,1
     e48:	00005606 	br	fa4 <__ieee754_rem_pio2+0x240>
     e4c:	00904e74 	movhi	r2,16697
     e50:	10887ec4 	addi	r2,r2,8699
     e54:	15c0830e 	bge	r2,r23,1064 <__ieee754_rem_pio2+0x300>
     e58:	009ffc34 	movhi	r2,32752
     e5c:	10bfffc4 	addi	r2,r2,-1
     e60:	15c05c16 	blt	r2,r23,fd4 <__ieee754_rem_pio2+0x270>
     e64:	b829d53a 	srai	r20,r23,20
     e68:	a53efa84 	addi	r20,r20,-1046
     e6c:	a024953a 	slli	r18,r20,20
     e70:	bca5c83a 	sub	r18,r23,r18
     e74:	900b883a 	mov	r5,r18
     e78:	0004c080 	call	4c08 <__fixdfsi>
     e7c:	1009883a 	mov	r4,r2
     e80:	0004c880 	call	4c88 <__floatsidf>
     e84:	9809883a 	mov	r4,r19
     e88:	900b883a 	mov	r5,r18
     e8c:	100d883a 	mov	r6,r2
     e90:	180f883a 	mov	r7,r3
     e94:	d8800215 	stw	r2,8(sp)
     e98:	d8c00315 	stw	r3,12(sp)
     e9c:	000430c0 	call	430c <__subdf3>
     ea0:	000d883a 	mov	r6,zero
     ea4:	01d05c34 	movhi	r7,16752
     ea8:	1009883a 	mov	r4,r2
     eac:	180b883a 	mov	r5,r3
     eb0:	0003aa00 	call	3aa0 <__muldf3>
     eb4:	180b883a 	mov	r5,r3
     eb8:	1009883a 	mov	r4,r2
     ebc:	182b883a 	mov	r21,r3
     ec0:	102d883a 	mov	r22,r2
     ec4:	0004c080 	call	4c08 <__fixdfsi>
     ec8:	1009883a 	mov	r4,r2
     ecc:	0004c880 	call	4c88 <__floatsidf>
     ed0:	100d883a 	mov	r6,r2
     ed4:	180f883a 	mov	r7,r3
     ed8:	b009883a 	mov	r4,r22
     edc:	a80b883a 	mov	r5,r21
     ee0:	1027883a 	mov	r19,r2
     ee4:	1825883a 	mov	r18,r3
     ee8:	d8800415 	stw	r2,16(sp)
     eec:	d8c00515 	stw	r3,20(sp)
     ef0:	000430c0 	call	430c <__subdf3>
     ef4:	000d883a 	mov	r6,zero
     ef8:	01d05c34 	movhi	r7,16752
     efc:	1009883a 	mov	r4,r2
     f00:	180b883a 	mov	r5,r3
     f04:	0003aa00 	call	3aa0 <__muldf3>
     f08:	000d883a 	mov	r6,zero
     f0c:	000f883a 	mov	r7,zero
     f10:	1009883a 	mov	r4,r2
     f14:	180b883a 	mov	r5,r3
     f18:	d8800615 	stw	r2,24(sp)
     f1c:	d8c00715 	stw	r3,28(sp)
     f20:	000393c0 	call	393c <__eqdf2>
     f24:	1001431e 	bne	r2,zero,1434 <__ieee754_rem_pio2+0x6d0>
     f28:	000f883a 	mov	r7,zero
     f2c:	000d883a 	mov	r6,zero
     f30:	9809883a 	mov	r4,r19
     f34:	900b883a 	mov	r5,r18
     f38:	000393c0 	call	393c <__eqdf2>
     f3c:	100f003a 	cmpeq	r7,r2,zero
     f40:	00800084 	movi	r2,2
     f44:	11cfc83a 	sub	r7,r2,r7
     f48:	00800084 	movi	r2,2
     f4c:	d8800015 	stw	r2,0(sp)
     f50:	00800074 	movhi	r2,1
     f54:	108be904 	addi	r2,r2,12196
     f58:	d8800115 	stw	r2,4(sp)
     f5c:	a00d883a 	mov	r6,r20
     f60:	800b883a 	mov	r5,r16
     f64:	d9000204 	addi	r4,sp,8
     f68:	00019740 	call	1974 <__kernel_rem_pio2>
     f6c:	88000d0e 	bge	r17,zero,fa4 <__ieee754_rem_pio2+0x240>
     f70:	81000117 	ldw	r4,4(r16)
     f74:	80c00317 	ldw	r3,12(r16)
     f78:	0085c83a 	sub	r2,zero,r2
     f7c:	2120003c 	xorhi	r4,r4,32768
     f80:	18e0003c 	xorhi	r3,r3,32768
     f84:	81000115 	stw	r4,4(r16)
     f88:	80c00315 	stw	r3,12(r16)
     f8c:	00000506 	br	fa4 <__ieee754_rem_pio2+0x240>
     f90:	31000015 	stw	r4,0(r6)
     f94:	31400115 	stw	r5,4(r6)
     f98:	30000215 	stw	zero,8(r6)
     f9c:	30000315 	stw	zero,12(r6)
     fa0:	0005883a 	mov	r2,zero
     fa4:	dfc01517 	ldw	ra,84(sp)
     fa8:	df001417 	ldw	fp,80(sp)
     fac:	ddc01317 	ldw	r23,76(sp)
     fb0:	dd801217 	ldw	r22,72(sp)
     fb4:	dd401117 	ldw	r21,68(sp)
     fb8:	dd001017 	ldw	r20,64(sp)
     fbc:	dcc00f17 	ldw	r19,60(sp)
     fc0:	dc800e17 	ldw	r18,56(sp)
     fc4:	dc400d17 	ldw	r17,52(sp)
     fc8:	dc000c17 	ldw	r16,48(sp)
     fcc:	dec01604 	addi	sp,sp,88
     fd0:	f800283a 	ret
     fd4:	200d883a 	mov	r6,r4
     fd8:	280f883a 	mov	r7,r5
     fdc:	000430c0 	call	430c <__subdf3>
     fe0:	80800215 	stw	r2,8(r16)
     fe4:	80800015 	stw	r2,0(r16)
     fe8:	80c00315 	stw	r3,12(r16)
     fec:	80c00115 	stw	r3,4(r16)
     ff0:	0005883a 	mov	r2,zero
     ff4:	003feb06 	br	fa4 <__alt_mem_VGA_Subsystem_Char_Buf_Subsystem_Onchip_SRAM+0xf7000fa4>
     ff8:	01cf7474 	movhi	r7,15825
     ffc:	9009883a 	mov	r4,r18
    1000:	39ed1844 	addi	r7,r7,-19359
    1004:	01869834 	movhi	r6,6752
    1008:	180b883a 	mov	r5,r3
    100c:	000430c0 	call	430c <__subdf3>
    1010:	018b80f4 	movhi	r6,11779
    1014:	01cee8f4 	movhi	r7,15267
    1018:	319c1cc4 	addi	r6,r6,28787
    101c:	39c66284 	addi	r7,r7,6538
    1020:	1009883a 	mov	r4,r2
    1024:	180b883a 	mov	r5,r3
    1028:	1025883a 	mov	r18,r2
    102c:	1823883a 	mov	r17,r3
    1030:	000430c0 	call	430c <__subdf3>
    1034:	100d883a 	mov	r6,r2
    1038:	180f883a 	mov	r7,r3
    103c:	9009883a 	mov	r4,r18
    1040:	880b883a 	mov	r5,r17
    1044:	80800015 	stw	r2,0(r16)
    1048:	80c00115 	stw	r3,4(r16)
    104c:	000430c0 	call	430c <__subdf3>
    1050:	018b80f4 	movhi	r6,11779
    1054:	01cee8f4 	movhi	r7,15267
    1058:	319c1cc4 	addi	r6,r6,28787
    105c:	39c66284 	addi	r7,r7,6538
    1060:	003f7306 	br	e30 <__alt_mem_VGA_Subsystem_Char_Buf_Subsystem_Onchip_SRAM+0xf7000e30>
    1064:	00029d80 	call	29d8 <fabs>
    1068:	019b72b4 	movhi	r6,28106
    106c:	01cff934 	movhi	r7,16356
    1070:	31b220c4 	addi	r6,r6,-14205
    1074:	39d7cc04 	addi	r7,r7,24368
    1078:	1009883a 	mov	r4,r2
    107c:	180b883a 	mov	r5,r3
    1080:	102d883a 	mov	r22,r2
    1084:	182b883a 	mov	r21,r3
    1088:	0003aa00 	call	3aa0 <__muldf3>
    108c:	000d883a 	mov	r6,zero
    1090:	01cff834 	movhi	r7,16352
    1094:	1009883a 	mov	r4,r2
    1098:	180b883a 	mov	r5,r3
    109c:	00030900 	call	3090 <__adddf3>
    10a0:	180b883a 	mov	r5,r3
    10a4:	1009883a 	mov	r4,r2
    10a8:	0004c080 	call	4c08 <__fixdfsi>
    10ac:	1009883a 	mov	r4,r2
    10b0:	1025883a 	mov	r18,r2
    10b4:	0004c880 	call	4c88 <__floatsidf>
    10b8:	01cffe74 	movhi	r7,16377
    10bc:	39c87ec4 	addi	r7,r7,8699
    10c0:	01951034 	movhi	r6,21568
    10c4:	1009883a 	mov	r4,r2
    10c8:	180b883a 	mov	r5,r3
    10cc:	1029883a 	mov	r20,r2
    10d0:	1827883a 	mov	r19,r3
    10d4:	0003aa00 	call	3aa0 <__muldf3>
    10d8:	b009883a 	mov	r4,r22
    10dc:	a80b883a 	mov	r5,r21
    10e0:	100d883a 	mov	r6,r2
    10e4:	180f883a 	mov	r7,r3
    10e8:	000430c0 	call	430c <__subdf3>
    10ec:	018698b4 	movhi	r6,6754
    10f0:	01cf7474 	movhi	r7,15825
    10f4:	a009883a 	mov	r4,r20
    10f8:	3198cc44 	addi	r6,r6,25393
    10fc:	39ed1844 	addi	r7,r7,-19359
    1100:	980b883a 	mov	r5,r19
    1104:	1039883a 	mov	fp,r2
    1108:	d8c00815 	stw	r3,32(sp)
    110c:	0003aa00 	call	3aa0 <__muldf3>
    1110:	010007c4 	movi	r4,31
    1114:	e017883a 	mov	r11,fp
    1118:	da800817 	ldw	r10,32(sp)
    111c:	102d883a 	mov	r22,r2
    1120:	182b883a 	mov	r21,r3
    1124:	24802816 	blt	r4,r18,11c8 <__ieee754_rem_pio2+0x464>
    1128:	913fffc4 	addi	r4,r18,-1
    112c:	2109883a 	add	r4,r4,r4
    1130:	01400074 	movhi	r5,1
    1134:	2109883a 	add	r4,r4,r4
    1138:	294bc904 	addi	r5,r5,12068
    113c:	2909883a 	add	r4,r5,r4
    1140:	21000017 	ldw	r4,0(r4)
    1144:	b9002026 	beq	r23,r4,11c8 <__ieee754_rem_pio2+0x464>
    1148:	100d883a 	mov	r6,r2
    114c:	180f883a 	mov	r7,r3
    1150:	e009883a 	mov	r4,fp
    1154:	500b883a 	mov	r5,r10
    1158:	da800b15 	stw	r10,44(sp)
    115c:	df000a15 	stw	fp,40(sp)
    1160:	000430c0 	call	430c <__subdf3>
    1164:	da800b17 	ldw	r10,44(sp)
    1168:	dac00a17 	ldw	r11,40(sp)
    116c:	1019883a 	mov	r12,r2
    1170:	1813883a 	mov	r9,r3
    1174:	80800015 	stw	r2,0(r16)
    1178:	80c00115 	stw	r3,4(r16)
    117c:	600d883a 	mov	r6,r12
    1180:	480f883a 	mov	r7,r9
    1184:	5809883a 	mov	r4,r11
    1188:	500b883a 	mov	r5,r10
    118c:	da400b15 	stw	r9,44(sp)
    1190:	db000a15 	stw	r12,40(sp)
    1194:	000430c0 	call	430c <__subdf3>
    1198:	b00d883a 	mov	r6,r22
    119c:	a80f883a 	mov	r7,r21
    11a0:	1009883a 	mov	r4,r2
    11a4:	180b883a 	mov	r5,r3
    11a8:	000430c0 	call	430c <__subdf3>
    11ac:	80800215 	stw	r2,8(r16)
    11b0:	80c00315 	stw	r3,12(r16)
    11b4:	da400b17 	ldw	r9,44(sp)
    11b8:	db000a17 	ldw	r12,40(sp)
    11bc:	88009f16 	blt	r17,zero,143c <__ieee754_rem_pio2+0x6d8>
    11c0:	9005883a 	mov	r2,r18
    11c4:	003f7706 	br	fa4 <__alt_mem_VGA_Subsystem_Char_Buf_Subsystem_Onchip_SRAM+0xf7000fa4>
    11c8:	d9400817 	ldw	r5,32(sp)
    11cc:	100d883a 	mov	r6,r2
    11d0:	180f883a 	mov	r7,r3
    11d4:	e009883a 	mov	r4,fp
    11d8:	da800b15 	stw	r10,44(sp)
    11dc:	dac00a15 	stw	r11,40(sp)
    11e0:	000430c0 	call	430c <__subdf3>
    11e4:	1019883a 	mov	r12,r2
    11e8:	1804d53a 	srli	r2,r3,20
    11ec:	b811d53a 	srai	r8,r23,20
    11f0:	1813883a 	mov	r9,r3
    11f4:	1081ffcc 	andi	r2,r2,2047
    11f8:	80c00115 	stw	r3,4(r16)
    11fc:	83000015 	stw	r12,0(r16)
    1200:	4085c83a 	sub	r2,r8,r2
    1204:	00c00404 	movi	r3,16
    1208:	da800b17 	ldw	r10,44(sp)
    120c:	dac00a17 	ldw	r11,40(sp)
    1210:	18bfda0e 	bge	r3,r2,117c <__alt_mem_VGA_Subsystem_Char_Buf_Subsystem_Onchip_SRAM+0xf700117c>
    1214:	01cf7474 	movhi	r7,15825
    1218:	39ed1844 	addi	r7,r7,-19359
    121c:	01869834 	movhi	r6,6752
    1220:	a009883a 	mov	r4,r20
    1224:	980b883a 	mov	r5,r19
    1228:	da000a15 	stw	r8,40(sp)
    122c:	0003aa00 	call	3aa0 <__muldf3>
    1230:	d9400817 	ldw	r5,32(sp)
    1234:	100d883a 	mov	r6,r2
    1238:	180f883a 	mov	r7,r3
    123c:	e009883a 	mov	r4,fp
    1240:	102d883a 	mov	r22,r2
    1244:	182b883a 	mov	r21,r3
    1248:	000430c0 	call	430c <__subdf3>
    124c:	d9400817 	ldw	r5,32(sp)
    1250:	100d883a 	mov	r6,r2
    1254:	180f883a 	mov	r7,r3
    1258:	e009883a 	mov	r4,fp
    125c:	182f883a 	mov	r23,r3
    1260:	d8800915 	stw	r2,36(sp)
    1264:	000430c0 	call	430c <__subdf3>
    1268:	b00d883a 	mov	r6,r22
    126c:	a80f883a 	mov	r7,r21
    1270:	1009883a 	mov	r4,r2
    1274:	180b883a 	mov	r5,r3
    1278:	000430c0 	call	430c <__subdf3>
    127c:	018b80f4 	movhi	r6,11779
    1280:	01cee8f4 	movhi	r7,15267
    1284:	319c1cc4 	addi	r6,r6,28787
    1288:	39c66284 	addi	r7,r7,6538
    128c:	a009883a 	mov	r4,r20
    1290:	980b883a 	mov	r5,r19
    1294:	102d883a 	mov	r22,r2
    1298:	182b883a 	mov	r21,r3
    129c:	0003aa00 	call	3aa0 <__muldf3>
    12a0:	b00d883a 	mov	r6,r22
    12a4:	a80f883a 	mov	r7,r21
    12a8:	1009883a 	mov	r4,r2
    12ac:	180b883a 	mov	r5,r3
    12b0:	000430c0 	call	430c <__subdf3>
    12b4:	d9000917 	ldw	r4,36(sp)
    12b8:	100d883a 	mov	r6,r2
    12bc:	180f883a 	mov	r7,r3
    12c0:	b80b883a 	mov	r5,r23
    12c4:	102d883a 	mov	r22,r2
    12c8:	182b883a 	mov	r21,r3
    12cc:	000430c0 	call	430c <__subdf3>
    12d0:	1019883a 	mov	r12,r2
    12d4:	1804d53a 	srli	r2,r3,20
    12d8:	da000a17 	ldw	r8,40(sp)
    12dc:	83000015 	stw	r12,0(r16)
    12e0:	1081ffcc 	andi	r2,r2,2047
    12e4:	4091c83a 	sub	r8,r8,r2
    12e8:	80c00115 	stw	r3,4(r16)
    12ec:	00800c44 	movi	r2,49
    12f0:	1813883a 	mov	r9,r3
    12f4:	1200730e 	bge	r2,r8,14c4 <__ieee754_rem_pio2+0x760>
    12f8:	01cee8f4 	movhi	r7,15267
    12fc:	39c66284 	addi	r7,r7,6538
    1300:	018b8034 	movhi	r6,11776
    1304:	a009883a 	mov	r4,r20
    1308:	980b883a 	mov	r5,r19
    130c:	0003aa00 	call	3aa0 <__muldf3>
    1310:	d9000917 	ldw	r4,36(sp)
    1314:	100d883a 	mov	r6,r2
    1318:	180f883a 	mov	r7,r3
    131c:	b80b883a 	mov	r5,r23
    1320:	102d883a 	mov	r22,r2
    1324:	182b883a 	mov	r21,r3
    1328:	000430c0 	call	430c <__subdf3>
    132c:	d9000917 	ldw	r4,36(sp)
    1330:	100d883a 	mov	r6,r2
    1334:	180f883a 	mov	r7,r3
    1338:	b80b883a 	mov	r5,r23
    133c:	d8c00b15 	stw	r3,44(sp)
    1340:	d8800a15 	stw	r2,40(sp)
    1344:	000430c0 	call	430c <__subdf3>
    1348:	b00d883a 	mov	r6,r22
    134c:	a80f883a 	mov	r7,r21
    1350:	1009883a 	mov	r4,r2
    1354:	180b883a 	mov	r5,r3
    1358:	000430c0 	call	430c <__subdf3>
    135c:	01894834 	movhi	r6,9504
    1360:	01ce5f34 	movhi	r7,14716
    1364:	31927044 	addi	r6,r6,18881
    1368:	39e0e684 	addi	r7,r7,-31846
    136c:	a009883a 	mov	r4,r20
    1370:	980b883a 	mov	r5,r19
    1374:	102d883a 	mov	r22,r2
    1378:	182b883a 	mov	r21,r3
    137c:	0003aa00 	call	3aa0 <__muldf3>
    1380:	b00d883a 	mov	r6,r22
    1384:	a80f883a 	mov	r7,r21
    1388:	1009883a 	mov	r4,r2
    138c:	180b883a 	mov	r5,r3
    1390:	000430c0 	call	430c <__subdf3>
    1394:	dac00a17 	ldw	r11,40(sp)
    1398:	da800b17 	ldw	r10,44(sp)
    139c:	102d883a 	mov	r22,r2
    13a0:	182b883a 	mov	r21,r3
    13a4:	100d883a 	mov	r6,r2
    13a8:	180f883a 	mov	r7,r3
    13ac:	5809883a 	mov	r4,r11
    13b0:	500b883a 	mov	r5,r10
    13b4:	003f6a06 	br	1160 <__alt_mem_VGA_Subsystem_Char_Buf_Subsystem_Onchip_SRAM+0xf7001160>
    13b8:	00030900 	call	3090 <__adddf3>
    13bc:	1025883a 	mov	r18,r2
    13c0:	008ffe74 	movhi	r2,16377
    13c4:	10887ec4 	addi	r2,r2,8699
    13c8:	1823883a 	mov	r17,r3
    13cc:	b8802226 	beq	r23,r2,1458 <__ieee754_rem_pio2+0x6f4>
    13d0:	018698b4 	movhi	r6,6754
    13d4:	01cf7474 	movhi	r7,15825
    13d8:	3198cc44 	addi	r6,r6,25393
    13dc:	39ed1844 	addi	r7,r7,-19359
    13e0:	9009883a 	mov	r4,r18
    13e4:	180b883a 	mov	r5,r3
    13e8:	00030900 	call	3090 <__adddf3>
    13ec:	100d883a 	mov	r6,r2
    13f0:	180f883a 	mov	r7,r3
    13f4:	9009883a 	mov	r4,r18
    13f8:	880b883a 	mov	r5,r17
    13fc:	80800015 	stw	r2,0(r16)
    1400:	80c00115 	stw	r3,4(r16)
    1404:	000430c0 	call	430c <__subdf3>
    1408:	018698b4 	movhi	r6,6754
    140c:	01cf7474 	movhi	r7,15825
    1410:	3198cc44 	addi	r6,r6,25393
    1414:	39ed1844 	addi	r7,r7,-19359
    1418:	1009883a 	mov	r4,r2
    141c:	180b883a 	mov	r5,r3
    1420:	00030900 	call	3090 <__adddf3>
    1424:	80800215 	stw	r2,8(r16)
    1428:	80c00315 	stw	r3,12(r16)
    142c:	00bfffc4 	movi	r2,-1
    1430:	003edc06 	br	fa4 <__alt_mem_VGA_Subsystem_Char_Buf_Subsystem_Onchip_SRAM+0xf7000fa4>
    1434:	01c000c4 	movi	r7,3
    1438:	003ec306 	br	f48 <__alt_mem_VGA_Subsystem_Char_Buf_Subsystem_Onchip_SRAM+0xf7000f48>
    143c:	4a60003c 	xorhi	r9,r9,32768
    1440:	18e0003c 	xorhi	r3,r3,32768
    1444:	83000015 	stw	r12,0(r16)
    1448:	82400115 	stw	r9,4(r16)
    144c:	80c00315 	stw	r3,12(r16)
    1450:	0485c83a 	sub	r2,zero,r18
    1454:	003ed306 	br	fa4 <__alt_mem_VGA_Subsystem_Char_Buf_Subsystem_Onchip_SRAM+0xf7000fa4>
    1458:	01cf7474 	movhi	r7,15825
    145c:	9009883a 	mov	r4,r18
    1460:	39ed1844 	addi	r7,r7,-19359
    1464:	01869834 	movhi	r6,6752
    1468:	180b883a 	mov	r5,r3
    146c:	00030900 	call	3090 <__adddf3>
    1470:	018b80f4 	movhi	r6,11779
    1474:	01cee8f4 	movhi	r7,15267
    1478:	319c1cc4 	addi	r6,r6,28787
    147c:	39c66284 	addi	r7,r7,6538
    1480:	1009883a 	mov	r4,r2
    1484:	180b883a 	mov	r5,r3
    1488:	1025883a 	mov	r18,r2
    148c:	1823883a 	mov	r17,r3
    1490:	00030900 	call	3090 <__adddf3>
    1494:	100d883a 	mov	r6,r2
    1498:	180f883a 	mov	r7,r3
    149c:	9009883a 	mov	r4,r18
    14a0:	880b883a 	mov	r5,r17
    14a4:	80800015 	stw	r2,0(r16)
    14a8:	80c00115 	stw	r3,4(r16)
    14ac:	000430c0 	call	430c <__subdf3>
    14b0:	018b80f4 	movhi	r6,11779
    14b4:	01cee8f4 	movhi	r7,15267
    14b8:	319c1cc4 	addi	r6,r6,28787
    14bc:	39c66284 	addi	r7,r7,6538
    14c0:	003fd506 	br	1418 <__alt_mem_VGA_Subsystem_Char_Buf_Subsystem_Onchip_SRAM+0xf7001418>
    14c4:	dac00917 	ldw	r11,36(sp)
    14c8:	b815883a 	mov	r10,r23
    14cc:	003f2b06 	br	117c <__alt_mem_VGA_Subsystem_Char_Buf_Subsystem_Onchip_SRAM+0xf700117c>

000014d0 <__kernel_cos>:
    14d0:	defff304 	addi	sp,sp,-52
    14d4:	dc000315 	stw	r16,12(sp)
    14d8:	04200034 	movhi	r16,32768
    14dc:	843fffc4 	addi	r16,r16,-1
    14e0:	008f9034 	movhi	r2,15936
    14e4:	df000b15 	stw	fp,44(sp)
    14e8:	ddc00a15 	stw	r23,40(sp)
    14ec:	dd800915 	stw	r22,36(sp)
    14f0:	dcc00615 	stw	r19,24(sp)
    14f4:	dfc00c15 	stw	ra,48(sp)
    14f8:	dd400815 	stw	r21,32(sp)
    14fc:	dd000715 	stw	r20,28(sp)
    1500:	dc800515 	stw	r18,20(sp)
    1504:	dc400415 	stw	r17,16(sp)
    1508:	2c20703a 	and	r16,r5,r16
    150c:	10bfffc4 	addi	r2,r2,-1
    1510:	2827883a 	mov	r19,r5
    1514:	202d883a 	mov	r22,r4
    1518:	302f883a 	mov	r23,r6
    151c:	3839883a 	mov	fp,r7
    1520:	14007516 	blt	r2,r16,16f8 <__kernel_cos+0x228>
    1524:	0004c080 	call	4c08 <__fixdfsi>
    1528:	10010f26 	beq	r2,zero,1968 <__kernel_cos+0x498>
    152c:	b00d883a 	mov	r6,r22
    1530:	980f883a 	mov	r7,r19
    1534:	b009883a 	mov	r4,r22
    1538:	980b883a 	mov	r5,r19
    153c:	0003aa00 	call	3aa0 <__muldf3>
    1540:	01afa234 	movhi	r6,48776
    1544:	01ef6a74 	movhi	r7,48553
    1548:	318e3504 	addi	r6,r6,14548
    154c:	39feba44 	addi	r7,r7,-1303
    1550:	1009883a 	mov	r4,r2
    1554:	180b883a 	mov	r5,r3
    1558:	102b883a 	mov	r21,r2
    155c:	1829883a 	mov	r20,r3
    1560:	0003aa00 	call	3aa0 <__muldf3>
    1564:	01af6d74 	movhi	r6,48565
    1568:	01cf88b4 	movhi	r7,15906
    156c:	31ac7104 	addi	r6,r6,-20028
    1570:	39fba784 	addi	r7,r7,-4450
    1574:	1009883a 	mov	r4,r2
    1578:	180b883a 	mov	r5,r3
    157c:	00030900 	call	3090 <__adddf3>
    1580:	a80d883a 	mov	r6,r21
    1584:	a00f883a 	mov	r7,r20
    1588:	1009883a 	mov	r4,r2
    158c:	180b883a 	mov	r5,r3
    1590:	0003aa00 	call	3aa0 <__muldf3>
    1594:	01a02734 	movhi	r6,32924
    1598:	01cfa4b4 	movhi	r7,16018
    159c:	3194ab44 	addi	r6,r6,21165
    15a0:	39df93c4 	addi	r7,r7,32335
    15a4:	1009883a 	mov	r4,r2
    15a8:	180b883a 	mov	r5,r3
    15ac:	000430c0 	call	430c <__subdf3>
    15b0:	a80d883a 	mov	r6,r21
    15b4:	a00f883a 	mov	r7,r20
    15b8:	1009883a 	mov	r4,r2
    15bc:	180b883a 	mov	r5,r3
    15c0:	0003aa00 	call	3aa0 <__muldf3>
    15c4:	018672f4 	movhi	r6,6603
    15c8:	01cfbeb4 	movhi	r7,16122
    15cc:	31856404 	addi	r6,r6,5520
    15d0:	39c06804 	addi	r7,r7,416
    15d4:	1009883a 	mov	r4,r2
    15d8:	180b883a 	mov	r5,r3
    15dc:	00030900 	call	3090 <__adddf3>
    15e0:	a80d883a 	mov	r6,r21
    15e4:	a00f883a 	mov	r7,r20
    15e8:	1009883a 	mov	r4,r2
    15ec:	180b883a 	mov	r5,r3
    15f0:	0003aa00 	call	3aa0 <__muldf3>
    15f4:	0185b074 	movhi	r6,5825
    15f8:	01cfd5f4 	movhi	r7,16215
    15fc:	31945dc4 	addi	r6,r6,20855
    1600:	39f05b04 	addi	r7,r7,-16020
    1604:	1009883a 	mov	r4,r2
    1608:	180b883a 	mov	r5,r3
    160c:	000430c0 	call	430c <__subdf3>
    1610:	a80d883a 	mov	r6,r21
    1614:	a00f883a 	mov	r7,r20
    1618:	1009883a 	mov	r4,r2
    161c:	180b883a 	mov	r5,r3
    1620:	0003aa00 	call	3aa0 <__muldf3>
    1624:	01955574 	movhi	r6,21845
    1628:	01cfe974 	movhi	r7,16293
    162c:	31955304 	addi	r6,r6,21836
    1630:	39d55544 	addi	r7,r7,21845
    1634:	1009883a 	mov	r4,r2
    1638:	180b883a 	mov	r5,r3
    163c:	00030900 	call	3090 <__adddf3>
    1640:	a80d883a 	mov	r6,r21
    1644:	a00f883a 	mov	r7,r20
    1648:	1009883a 	mov	r4,r2
    164c:	180b883a 	mov	r5,r3
    1650:	0003aa00 	call	3aa0 <__muldf3>
    1654:	1017883a 	mov	r11,r2
    1658:	1815883a 	mov	r10,r3
    165c:	a809883a 	mov	r4,r21
    1660:	a00b883a 	mov	r5,r20
    1664:	000d883a 	mov	r6,zero
    1668:	01cff834 	movhi	r7,16352
    166c:	da800215 	stw	r10,8(sp)
    1670:	dac00115 	stw	r11,4(sp)
    1674:	0003aa00 	call	3aa0 <__muldf3>
    1678:	dac00117 	ldw	r11,4(sp)
    167c:	da800217 	ldw	r10,8(sp)
    1680:	a809883a 	mov	r4,r21
    1684:	580d883a 	mov	r6,r11
    1688:	500f883a 	mov	r7,r10
    168c:	a00b883a 	mov	r5,r20
    1690:	1023883a 	mov	r17,r2
    1694:	1821883a 	mov	r16,r3
    1698:	0003aa00 	call	3aa0 <__muldf3>
    169c:	b80d883a 	mov	r6,r23
    16a0:	e00f883a 	mov	r7,fp
    16a4:	b009883a 	mov	r4,r22
    16a8:	980b883a 	mov	r5,r19
    16ac:	1029883a 	mov	r20,r2
    16b0:	1825883a 	mov	r18,r3
    16b4:	0003aa00 	call	3aa0 <__muldf3>
    16b8:	a009883a 	mov	r4,r20
    16bc:	900b883a 	mov	r5,r18
    16c0:	100d883a 	mov	r6,r2
    16c4:	180f883a 	mov	r7,r3
    16c8:	000430c0 	call	430c <__subdf3>
    16cc:	8809883a 	mov	r4,r17
    16d0:	800b883a 	mov	r5,r16
    16d4:	100d883a 	mov	r6,r2
    16d8:	180f883a 	mov	r7,r3
    16dc:	000430c0 	call	430c <__subdf3>
    16e0:	100d883a 	mov	r6,r2
    16e4:	180f883a 	mov	r7,r3
    16e8:	0009883a 	mov	r4,zero
    16ec:	014ffc34 	movhi	r5,16368
    16f0:	000430c0 	call	430c <__subdf3>
    16f4:	00008b06 	br	1924 <__kernel_cos+0x454>
    16f8:	200d883a 	mov	r6,r4
    16fc:	280f883a 	mov	r7,r5
    1700:	0003aa00 	call	3aa0 <__muldf3>
    1704:	01afa234 	movhi	r6,48776
    1708:	01ef6a74 	movhi	r7,48553
    170c:	318e3504 	addi	r6,r6,14548
    1710:	39feba44 	addi	r7,r7,-1303
    1714:	1009883a 	mov	r4,r2
    1718:	180b883a 	mov	r5,r3
    171c:	1025883a 	mov	r18,r2
    1720:	1823883a 	mov	r17,r3
    1724:	0003aa00 	call	3aa0 <__muldf3>
    1728:	01af6d74 	movhi	r6,48565
    172c:	01cf88b4 	movhi	r7,15906
    1730:	31ac7104 	addi	r6,r6,-20028
    1734:	39fba784 	addi	r7,r7,-4450
    1738:	1009883a 	mov	r4,r2
    173c:	180b883a 	mov	r5,r3
    1740:	00030900 	call	3090 <__adddf3>
    1744:	900d883a 	mov	r6,r18
    1748:	880f883a 	mov	r7,r17
    174c:	1009883a 	mov	r4,r2
    1750:	180b883a 	mov	r5,r3
    1754:	0003aa00 	call	3aa0 <__muldf3>
    1758:	01a02734 	movhi	r6,32924
    175c:	01cfa4b4 	movhi	r7,16018
    1760:	3194ab44 	addi	r6,r6,21165
    1764:	39df93c4 	addi	r7,r7,32335
    1768:	1009883a 	mov	r4,r2
    176c:	180b883a 	mov	r5,r3
    1770:	000430c0 	call	430c <__subdf3>
    1774:	900d883a 	mov	r6,r18
    1778:	880f883a 	mov	r7,r17
    177c:	1009883a 	mov	r4,r2
    1780:	180b883a 	mov	r5,r3
    1784:	0003aa00 	call	3aa0 <__muldf3>
    1788:	018672f4 	movhi	r6,6603
    178c:	01cfbeb4 	movhi	r7,16122
    1790:	31856404 	addi	r6,r6,5520
    1794:	39c06804 	addi	r7,r7,416
    1798:	1009883a 	mov	r4,r2
    179c:	180b883a 	mov	r5,r3
    17a0:	00030900 	call	3090 <__adddf3>
    17a4:	900d883a 	mov	r6,r18
    17a8:	880f883a 	mov	r7,r17
    17ac:	1009883a 	mov	r4,r2
    17b0:	180b883a 	mov	r5,r3
    17b4:	0003aa00 	call	3aa0 <__muldf3>
    17b8:	0185b074 	movhi	r6,5825
    17bc:	01cfd5f4 	movhi	r7,16215
    17c0:	31945dc4 	addi	r6,r6,20855
    17c4:	39f05b04 	addi	r7,r7,-16020
    17c8:	1009883a 	mov	r4,r2
    17cc:	180b883a 	mov	r5,r3
    17d0:	000430c0 	call	430c <__subdf3>
    17d4:	900d883a 	mov	r6,r18
    17d8:	880f883a 	mov	r7,r17
    17dc:	1009883a 	mov	r4,r2
    17e0:	180b883a 	mov	r5,r3
    17e4:	0003aa00 	call	3aa0 <__muldf3>
    17e8:	01955574 	movhi	r6,21845
    17ec:	01cfe974 	movhi	r7,16293
    17f0:	31955304 	addi	r6,r6,21836
    17f4:	39d55544 	addi	r7,r7,21845
    17f8:	1009883a 	mov	r4,r2
    17fc:	180b883a 	mov	r5,r3
    1800:	00030900 	call	3090 <__adddf3>
    1804:	900d883a 	mov	r6,r18
    1808:	880f883a 	mov	r7,r17
    180c:	1009883a 	mov	r4,r2
    1810:	180b883a 	mov	r5,r3
    1814:	0003aa00 	call	3aa0 <__muldf3>
    1818:	1013883a 	mov	r9,r2
    181c:	1017883a 	mov	r11,r2
    1820:	008ff4f4 	movhi	r2,16339
    1824:	108ccc84 	addi	r2,r2,13106
    1828:	1811883a 	mov	r8,r3
    182c:	902b883a 	mov	r21,r18
    1830:	8829883a 	mov	r20,r17
    1834:	1815883a 	mov	r10,r3
    1838:	143f880e 	bge	r2,r16,165c <__alt_mem_VGA_Subsystem_Char_Buf_Subsystem_Onchip_SRAM+0xf700165c>
    183c:	008ffa74 	movhi	r2,16361
    1840:	14004416 	blt	r2,r16,1954 <__kernel_cos+0x484>
    1844:	00bff834 	movhi	r2,65504
    1848:	80a1883a 	add	r16,r16,r2
    184c:	000d883a 	mov	r6,zero
    1850:	800f883a 	mov	r7,r16
    1854:	0009883a 	mov	r4,zero
    1858:	014ffc34 	movhi	r5,16368
    185c:	da400115 	stw	r9,4(sp)
    1860:	d8c00215 	stw	r3,8(sp)
    1864:	000430c0 	call	430c <__subdf3>
    1868:	da000217 	ldw	r8,8(sp)
    186c:	da400117 	ldw	r9,4(sp)
    1870:	102b883a 	mov	r21,r2
    1874:	d8c00015 	stw	r3,0(sp)
    1878:	9009883a 	mov	r4,r18
    187c:	880b883a 	mov	r5,r17
    1880:	000d883a 	mov	r6,zero
    1884:	01cff834 	movhi	r7,16352
    1888:	da000215 	stw	r8,8(sp)
    188c:	da400115 	stw	r9,4(sp)
    1890:	0003aa00 	call	3aa0 <__muldf3>
    1894:	800f883a 	mov	r7,r16
    1898:	000d883a 	mov	r6,zero
    189c:	1009883a 	mov	r4,r2
    18a0:	180b883a 	mov	r5,r3
    18a4:	000430c0 	call	430c <__subdf3>
    18a8:	da400117 	ldw	r9,4(sp)
    18ac:	da000217 	ldw	r8,8(sp)
    18b0:	9009883a 	mov	r4,r18
    18b4:	480d883a 	mov	r6,r9
    18b8:	400f883a 	mov	r7,r8
    18bc:	880b883a 	mov	r5,r17
    18c0:	1029883a 	mov	r20,r2
    18c4:	1821883a 	mov	r16,r3
    18c8:	0003aa00 	call	3aa0 <__muldf3>
    18cc:	b80d883a 	mov	r6,r23
    18d0:	e00f883a 	mov	r7,fp
    18d4:	b009883a 	mov	r4,r22
    18d8:	980b883a 	mov	r5,r19
    18dc:	1025883a 	mov	r18,r2
    18e0:	1823883a 	mov	r17,r3
    18e4:	0003aa00 	call	3aa0 <__muldf3>
    18e8:	100d883a 	mov	r6,r2
    18ec:	180f883a 	mov	r7,r3
    18f0:	9009883a 	mov	r4,r18
    18f4:	880b883a 	mov	r5,r17
    18f8:	000430c0 	call	430c <__subdf3>
    18fc:	100d883a 	mov	r6,r2
    1900:	180f883a 	mov	r7,r3
    1904:	a009883a 	mov	r4,r20
    1908:	800b883a 	mov	r5,r16
    190c:	000430c0 	call	430c <__subdf3>
    1910:	d9400017 	ldw	r5,0(sp)
    1914:	100d883a 	mov	r6,r2
    1918:	180f883a 	mov	r7,r3
    191c:	a809883a 	mov	r4,r21
    1920:	000430c0 	call	430c <__subdf3>
    1924:	dfc00c17 	ldw	ra,48(sp)
    1928:	df000b17 	ldw	fp,44(sp)
    192c:	ddc00a17 	ldw	r23,40(sp)
    1930:	dd800917 	ldw	r22,36(sp)
    1934:	dd400817 	ldw	r21,32(sp)
    1938:	dd000717 	ldw	r20,28(sp)
    193c:	dcc00617 	ldw	r19,24(sp)
    1940:	dc800517 	ldw	r18,20(sp)
    1944:	dc400417 	ldw	r17,16(sp)
    1948:	dc000317 	ldw	r16,12(sp)
    194c:	dec00d04 	addi	sp,sp,52
    1950:	f800283a 	ret
    1954:	008ff9f4 	movhi	r2,16359
    1958:	002b883a 	mov	r21,zero
    195c:	d8800015 	stw	r2,0(sp)
    1960:	040ff4b4 	movhi	r16,16338
    1964:	003fc406 	br	1878 <__alt_mem_VGA_Subsystem_Char_Buf_Subsystem_Onchip_SRAM+0xf7001878>
    1968:	0005883a 	mov	r2,zero
    196c:	00cffc34 	movhi	r3,16368
    1970:	003fec06 	br	1924 <__alt_mem_VGA_Subsystem_Char_Buf_Subsystem_Onchip_SRAM+0xf7001924>

00001974 <__kernel_rem_pio2>:
    1974:	deff5a04 	addi	sp,sp,-664
    1978:	da00a617 	ldw	r8,664(sp)
    197c:	00c00074 	movhi	r3,1
    1980:	18cc3b04 	addi	r3,r3,12524
    1984:	4205883a 	add	r2,r8,r8
    1988:	1085883a 	add	r2,r2,r2
    198c:	1885883a 	add	r2,r3,r2
    1990:	d9008e15 	stw	r4,568(sp)
    1994:	d9408f15 	stw	r5,572(sp)
    1998:	313fff44 	addi	r4,r6,-3
    199c:	01400604 	movi	r5,24
    19a0:	dd80a215 	stw	r22,648(sp)
    19a4:	dc009c15 	stw	r16,624(sp)
    19a8:	dfc0a515 	stw	ra,660(sp)
    19ac:	df00a415 	stw	fp,656(sp)
    19b0:	ddc0a315 	stw	r23,652(sp)
    19b4:	dd40a115 	stw	r21,644(sp)
    19b8:	dd00a015 	stw	r20,640(sp)
    19bc:	dcc09f15 	stw	r19,636(sp)
    19c0:	dc809e15 	stw	r18,632(sp)
    19c4:	dc409d15 	stw	r17,628(sp)
    19c8:	3021883a 	mov	r16,r6
    19cc:	d9c09315 	stw	r7,588(sp)
    19d0:	15800017 	ldw	r22,0(r2)
    19d4:	0002d900 	call	2d90 <__divsi3>
    19d8:	da009317 	ldw	r8,588(sp)
    19dc:	d8809215 	stw	r2,584(sp)
    19e0:	423fffc4 	addi	r8,r8,-1
    19e4:	da008d15 	stw	r8,564(sp)
    19e8:	10033d16 	blt	r2,zero,26e0 <__kernel_rem_pio2+0xd6c>
    19ec:	da009217 	ldw	r8,584(sp)
    19f0:	017ffa04 	movi	r5,-24
    19f4:	42000044 	addi	r8,r8,1
    19f8:	4009883a 	mov	r4,r8
    19fc:	da009515 	stw	r8,596(sp)
    1a00:	0002f440 	call	2f44 <__mulsi3>
    1a04:	da008d17 	ldw	r8,564(sp)
    1a08:	1421883a 	add	r16,r2,r16
    1a0c:	d8809217 	ldw	r2,584(sp)
    1a10:	b207883a 	add	r3,r22,r8
    1a14:	dc009015 	stw	r16,576(sp)
    1a18:	1223c83a 	sub	r17,r2,r8
    1a1c:	18001016 	blt	r3,zero,1a60 <__kernel_rem_pio2+0xec>
    1a20:	da00a717 	ldw	r8,668(sp)
    1a24:	8c65883a 	add	r18,r17,r17
    1a28:	94a5883a 	add	r18,r18,r18
    1a2c:	1c47883a 	add	r3,r3,r17
    1a30:	dcc05004 	addi	r19,sp,320
    1a34:	44a5883a 	add	r18,r8,r18
    1a38:	1c000044 	addi	r16,r3,1
    1a3c:	88015316 	blt	r17,zero,1f8c <__kernel_rem_pio2+0x618>
    1a40:	91000017 	ldw	r4,0(r18)
    1a44:	0004c880 	call	4c88 <__floatsidf>
    1a48:	98800015 	stw	r2,0(r19)
    1a4c:	98c00115 	stw	r3,4(r19)
    1a50:	8c400044 	addi	r17,r17,1
    1a54:	9cc00204 	addi	r19,r19,8
    1a58:	94800104 	addi	r18,r18,4
    1a5c:	8c3ff71e 	bne	r17,r16,1a3c <__alt_mem_VGA_Subsystem_Char_Buf_Subsystem_Onchip_SRAM+0xf7001a3c>
    1a60:	b0002816 	blt	r22,zero,1b04 <__kernel_rem_pio2+0x190>
    1a64:	da008d17 	ldw	r8,564(sp)
    1a68:	b4c00044 	addi	r19,r22,1
    1a6c:	982690fa 	slli	r19,r19,3
    1a70:	402490fa 	slli	r18,r8,3
    1a74:	da008e17 	ldw	r8,568(sp)
    1a78:	d8805004 	addi	r2,sp,320
    1a7c:	94000204 	addi	r16,r18,8
    1a80:	d823883a 	mov	r17,sp
    1a84:	14a5883a 	add	r18,r2,r18
    1a88:	dcef883a 	add	r23,sp,r19
    1a8c:	4421883a 	add	r16,r8,r16
    1a90:	dd809115 	stw	r22,580(sp)
    1a94:	4039883a 	mov	fp,r8
    1a98:	da008d17 	ldw	r8,564(sp)
    1a9c:	40016016 	blt	r8,zero,2020 <__kernel_rem_pio2+0x6ac>
    1aa0:	e027883a 	mov	r19,fp
    1aa4:	9029883a 	mov	r20,r18
    1aa8:	002d883a 	mov	r22,zero
    1aac:	002b883a 	mov	r21,zero
    1ab0:	a1800017 	ldw	r6,0(r20)
    1ab4:	a1c00117 	ldw	r7,4(r20)
    1ab8:	99000017 	ldw	r4,0(r19)
    1abc:	99400117 	ldw	r5,4(r19)
    1ac0:	9cc00204 	addi	r19,r19,8
    1ac4:	a53ffe04 	addi	r20,r20,-8
    1ac8:	0003aa00 	call	3aa0 <__muldf3>
    1acc:	b009883a 	mov	r4,r22
    1ad0:	a80b883a 	mov	r5,r21
    1ad4:	100d883a 	mov	r6,r2
    1ad8:	180f883a 	mov	r7,r3
    1adc:	00030900 	call	3090 <__adddf3>
    1ae0:	102d883a 	mov	r22,r2
    1ae4:	182b883a 	mov	r21,r3
    1ae8:	9c3ff11e 	bne	r19,r16,1ab0 <__alt_mem_VGA_Subsystem_Char_Buf_Subsystem_Onchip_SRAM+0xf7001ab0>
    1aec:	8d800015 	stw	r22,0(r17)
    1af0:	8d400115 	stw	r21,4(r17)
    1af4:	8c400204 	addi	r17,r17,8
    1af8:	94800204 	addi	r18,r18,8
    1afc:	8dffe61e 	bne	r17,r23,1a98 <__alt_mem_VGA_Subsystem_Char_Buf_Subsystem_Onchip_SRAM+0xf7001a98>
    1b00:	dd809117 	ldw	r22,580(sp)
    1b04:	00d00034 	movhi	r3,16384
    1b08:	da009317 	ldw	r8,588(sp)
    1b0c:	18ffff84 	addi	r3,r3,-2
    1b10:	b0c7883a 	add	r3,r22,r3
    1b14:	18c7883a 	add	r3,r3,r3
    1b18:	402090fa 	slli	r16,r8,3
    1b1c:	18c7883a 	add	r3,r3,r3
    1b20:	da007804 	addi	r8,sp,480
    1b24:	40d1883a 	add	r8,r8,r3
    1b28:	b0bfffc4 	addi	r2,r22,-1
    1b2c:	da009615 	stw	r8,600(sp)
    1b30:	da008e17 	ldw	r8,568(sp)
    1b34:	1085883a 	add	r2,r2,r2
    1b38:	1085883a 	add	r2,r2,r2
    1b3c:	19000104 	addi	r4,r3,4
    1b40:	d885883a 	add	r2,sp,r2
    1b44:	4421883a 	add	r16,r8,r16
    1b48:	da007804 	addi	r8,sp,480
    1b4c:	4111883a 	add	r8,r8,r4
    1b50:	10807804 	addi	r2,r2,480
    1b54:	da009715 	stw	r8,604(sp)
    1b58:	b025883a 	mov	r18,r22
    1b5c:	d8809815 	stw	r2,608(sp)
    1b60:	dd809415 	stw	r22,592(sp)
    1b64:	900490fa 	slli	r2,r18,3
    1b68:	d885883a 	add	r2,sp,r2
    1b6c:	17000017 	ldw	fp,0(r2)
    1b70:	15400117 	ldw	r21,4(r2)
    1b74:	04802b0e 	bge	zero,r18,1c24 <__kernel_rem_pio2+0x2b0>
    1b78:	00880034 	movhi	r2,8192
    1b7c:	10bfffc4 	addi	r2,r2,-1
    1b80:	90a9883a 	add	r20,r18,r2
    1b84:	a02890fa 	slli	r20,r20,3
    1b88:	dc407804 	addi	r17,sp,480
    1b8c:	dcfffe04 	addi	r19,sp,-8
    1b90:	dd29883a 	add	r20,sp,r20
    1b94:	000d883a 	mov	r6,zero
    1b98:	01cf9c34 	movhi	r7,15984
    1b9c:	e009883a 	mov	r4,fp
    1ba0:	a80b883a 	mov	r5,r21
    1ba4:	0003aa00 	call	3aa0 <__muldf3>
    1ba8:	180b883a 	mov	r5,r3
    1bac:	1009883a 	mov	r4,r2
    1bb0:	0004c080 	call	4c08 <__fixdfsi>
    1bb4:	1009883a 	mov	r4,r2
    1bb8:	0004c880 	call	4c88 <__floatsidf>
    1bbc:	000d883a 	mov	r6,zero
    1bc0:	01d05c34 	movhi	r7,16752
    1bc4:	1009883a 	mov	r4,r2
    1bc8:	180b883a 	mov	r5,r3
    1bcc:	102f883a 	mov	r23,r2
    1bd0:	182d883a 	mov	r22,r3
    1bd4:	0003aa00 	call	3aa0 <__muldf3>
    1bd8:	100d883a 	mov	r6,r2
    1bdc:	180f883a 	mov	r7,r3
    1be0:	e009883a 	mov	r4,fp
    1be4:	a80b883a 	mov	r5,r21
    1be8:	000430c0 	call	430c <__subdf3>
    1bec:	180b883a 	mov	r5,r3
    1bf0:	1009883a 	mov	r4,r2
    1bf4:	0004c080 	call	4c08 <__fixdfsi>
    1bf8:	a1800017 	ldw	r6,0(r20)
    1bfc:	a1c00117 	ldw	r7,4(r20)
    1c00:	88800015 	stw	r2,0(r17)
    1c04:	b809883a 	mov	r4,r23
    1c08:	b00b883a 	mov	r5,r22
    1c0c:	00030900 	call	3090 <__adddf3>
    1c10:	a53ffe04 	addi	r20,r20,-8
    1c14:	1039883a 	mov	fp,r2
    1c18:	182b883a 	mov	r21,r3
    1c1c:	8c400104 	addi	r17,r17,4
    1c20:	a4ffdc1e 	bne	r20,r19,1b94 <__alt_mem_VGA_Subsystem_Char_Buf_Subsystem_Onchip_SRAM+0xf7001b94>
    1c24:	d9809017 	ldw	r6,576(sp)
    1c28:	a80b883a 	mov	r5,r21
    1c2c:	e009883a 	mov	r4,fp
    1c30:	0002bd80 	call	2bd8 <scalbn>
    1c34:	000d883a 	mov	r6,zero
    1c38:	01cff034 	movhi	r7,16320
    1c3c:	1009883a 	mov	r4,r2
    1c40:	180b883a 	mov	r5,r3
    1c44:	1027883a 	mov	r19,r2
    1c48:	1823883a 	mov	r17,r3
    1c4c:	0003aa00 	call	3aa0 <__muldf3>
    1c50:	1009883a 	mov	r4,r2
    1c54:	180b883a 	mov	r5,r3
    1c58:	00029ec0 	call	29ec <floor>
    1c5c:	000d883a 	mov	r6,zero
    1c60:	01d00834 	movhi	r7,16416
    1c64:	1009883a 	mov	r4,r2
    1c68:	180b883a 	mov	r5,r3
    1c6c:	0003aa00 	call	3aa0 <__muldf3>
    1c70:	100d883a 	mov	r6,r2
    1c74:	180f883a 	mov	r7,r3
    1c78:	9809883a 	mov	r4,r19
    1c7c:	880b883a 	mov	r5,r17
    1c80:	000430c0 	call	430c <__subdf3>
    1c84:	180b883a 	mov	r5,r3
    1c88:	1009883a 	mov	r4,r2
    1c8c:	1827883a 	mov	r19,r3
    1c90:	1029883a 	mov	r20,r2
    1c94:	0004c080 	call	4c08 <__fixdfsi>
    1c98:	1009883a 	mov	r4,r2
    1c9c:	1023883a 	mov	r17,r2
    1ca0:	0004c880 	call	4c88 <__floatsidf>
    1ca4:	a009883a 	mov	r4,r20
    1ca8:	100d883a 	mov	r6,r2
    1cac:	180f883a 	mov	r7,r3
    1cb0:	980b883a 	mov	r5,r19
    1cb4:	000430c0 	call	430c <__subdf3>
    1cb8:	d9009017 	ldw	r4,576(sp)
    1cbc:	1013883a 	mov	r9,r2
    1cc0:	102b883a 	mov	r21,r2
    1cc4:	1811883a 	mov	r8,r3
    1cc8:	0100b30e 	bge	zero,r4,1f98 <__kernel_rem_pio2+0x624>
    1ccc:	90bfffc4 	addi	r2,r18,-1
    1cd0:	1085883a 	add	r2,r2,r2
    1cd4:	1085883a 	add	r2,r2,r2
    1cd8:	d885883a 	add	r2,sp,r2
    1cdc:	10807804 	addi	r2,r2,480
    1ce0:	d9809017 	ldw	r6,576(sp)
    1ce4:	11400017 	ldw	r5,0(r2)
    1ce8:	01000604 	movi	r4,24
    1cec:	2189c83a 	sub	r4,r4,r6
    1cf0:	290dd83a 	sra	r6,r5,r4
    1cf4:	d9c09017 	ldw	r7,576(sp)
    1cf8:	04c005c4 	movi	r19,23
    1cfc:	3108983a 	sll	r4,r6,r4
    1d00:	99e7c83a 	sub	r19,r19,r7
    1d04:	89a3883a 	add	r17,r17,r6
    1d08:	2909c83a 	sub	r4,r5,r4
    1d0c:	24e7d83a 	sra	r19,r4,r19
    1d10:	11000015 	stw	r4,0(r2)
    1d14:	04c02a0e 	bge	zero,r19,1dc0 <__kernel_rem_pio2+0x44c>
    1d18:	8c400044 	addi	r17,r17,1
    1d1c:	0481570e 	bge	zero,r18,227c <__kernel_rem_pio2+0x908>
    1d20:	02804034 	movhi	r10,256
    1d24:	52bfffc4 	addi	r10,r10,-1
    1d28:	d8807804 	addi	r2,sp,480
    1d2c:	000b883a 	mov	r5,zero
    1d30:	0029883a 	mov	r20,zero
    1d34:	01c04034 	movhi	r7,256
    1d38:	00000706 	br	1d58 <__kernel_rem_pio2+0x3e4>
    1d3c:	390dc83a 	sub	r6,r7,r4
    1d40:	20000226 	beq	r4,zero,1d4c <__kernel_rem_pio2+0x3d8>
    1d44:	11800015 	stw	r6,0(r2)
    1d48:	05000044 	movi	r20,1
    1d4c:	29400044 	addi	r5,r5,1
    1d50:	10800104 	addi	r2,r2,4
    1d54:	2c80080e 	bge	r5,r18,1d78 <__kernel_rem_pio2+0x404>
    1d58:	11000017 	ldw	r4,0(r2)
    1d5c:	a03ff726 	beq	r20,zero,1d3c <__alt_mem_VGA_Subsystem_Char_Buf_Subsystem_Onchip_SRAM+0xf7001d3c>
    1d60:	5109c83a 	sub	r4,r10,r4
    1d64:	11000015 	stw	r4,0(r2)
    1d68:	29400044 	addi	r5,r5,1
    1d6c:	05000044 	movi	r20,1
    1d70:	10800104 	addi	r2,r2,4
    1d74:	2cbff816 	blt	r5,r18,1d58 <__alt_mem_VGA_Subsystem_Char_Buf_Subsystem_Onchip_SRAM+0xf7001d58>
    1d78:	d9009017 	ldw	r4,576(sp)
    1d7c:	01000e0e 	bge	zero,r4,1db8 <__kernel_rem_pio2+0x444>
    1d80:	00800044 	movi	r2,1
    1d84:	20808d26 	beq	r4,r2,1fbc <__kernel_rem_pio2+0x648>
    1d88:	00800084 	movi	r2,2
    1d8c:	20800a1e 	bne	r4,r2,1db8 <__kernel_rem_pio2+0x444>
    1d90:	90bfffc4 	addi	r2,r18,-1
    1d94:	1085883a 	add	r2,r2,r2
    1d98:	1085883a 	add	r2,r2,r2
    1d9c:	d885883a 	add	r2,sp,r2
    1da0:	10807804 	addi	r2,r2,480
    1da4:	11400017 	ldw	r5,0(r2)
    1da8:	01001034 	movhi	r4,64
    1dac:	213fffc4 	addi	r4,r4,-1
    1db0:	2908703a 	and	r4,r5,r4
    1db4:	11000015 	stw	r4,0(r2)
    1db8:	00800084 	movi	r2,2
    1dbc:	98805d26 	beq	r19,r2,1f34 <__kernel_rem_pio2+0x5c0>
    1dc0:	400b883a 	mov	r5,r8
    1dc4:	000d883a 	mov	r6,zero
    1dc8:	000f883a 	mov	r7,zero
    1dcc:	a809883a 	mov	r4,r21
    1dd0:	da009b15 	stw	r8,620(sp)
    1dd4:	000393c0 	call	393c <__eqdf2>
    1dd8:	da009b17 	ldw	r8,620(sp)
    1ddc:	10012b1e 	bne	r2,zero,228c <__kernel_rem_pio2+0x918>
    1de0:	da009417 	ldw	r8,592(sp)
    1de4:	917fffc4 	addi	r5,r18,-1
    1de8:	2a000e16 	blt	r5,r8,1e24 <__kernel_rem_pio2+0x4b0>
    1dec:	00900034 	movhi	r2,16384
    1df0:	10bfffc4 	addi	r2,r2,-1
    1df4:	9085883a 	add	r2,r18,r2
    1df8:	1085883a 	add	r2,r2,r2
    1dfc:	d9809717 	ldw	r6,604(sp)
    1e00:	1085883a 	add	r2,r2,r2
    1e04:	d9007804 	addi	r4,sp,480
    1e08:	0007883a 	mov	r3,zero
    1e0c:	2085883a 	add	r2,r4,r2
    1e10:	11000017 	ldw	r4,0(r2)
    1e14:	10bfff04 	addi	r2,r2,-4
    1e18:	1906b03a 	or	r3,r3,r4
    1e1c:	11bffc1e 	bne	r2,r6,1e10 <__alt_mem_VGA_Subsystem_Char_Buf_Subsystem_Onchip_SRAM+0xf7001e10>
    1e20:	1800821e 	bne	r3,zero,202c <__kernel_rem_pio2+0x6b8>
    1e24:	da009817 	ldw	r8,608(sp)
    1e28:	40800017 	ldw	r2,0(r8)
    1e2c:	1001151e 	bne	r2,zero,2284 <__kernel_rem_pio2+0x910>
    1e30:	d8809617 	ldw	r2,600(sp)
    1e34:	05000044 	movi	r20,1
    1e38:	10bfff04 	addi	r2,r2,-4
    1e3c:	10c00117 	ldw	r3,4(r2)
    1e40:	a5000044 	addi	r20,r20,1
    1e44:	183ffc26 	beq	r3,zero,1e38 <__alt_mem_VGA_Subsystem_Char_Buf_Subsystem_Onchip_SRAM+0xf7001e38>
    1e48:	9529883a 	add	r20,r18,r20
    1e4c:	90800044 	addi	r2,r18,1
    1e50:	dd009115 	stw	r20,580(sp)
    1e54:	a0803216 	blt	r20,r2,1f20 <__kernel_rem_pio2+0x5ac>
    1e58:	da009317 	ldw	r8,588(sp)
    1e5c:	d8c09117 	ldw	r3,580(sp)
    1e60:	44a3883a 	add	r17,r8,r18
    1e64:	da009217 	ldw	r8,584(sp)
    1e68:	882290fa 	slli	r17,r17,3
    1e6c:	40a5883a 	add	r18,r8,r2
    1e70:	da009517 	ldw	r8,596(sp)
    1e74:	100490fa 	slli	r2,r2,3
    1e78:	94a5883a 	add	r18,r18,r18
    1e7c:	40eb883a 	add	r21,r8,r3
    1e80:	da00a717 	ldw	r8,668(sp)
    1e84:	ad6b883a 	add	r21,r21,r21
    1e88:	94a5883a 	add	r18,r18,r18
    1e8c:	ad6b883a 	add	r21,r21,r21
    1e90:	d8c05004 	addi	r3,sp,320
    1e94:	44a5883a 	add	r18,r8,r18
    1e98:	1c63883a 	add	r17,r3,r17
    1e9c:	d8a7883a 	add	r19,sp,r2
    1ea0:	456b883a 	add	r21,r8,r21
    1ea4:	91000017 	ldw	r4,0(r18)
    1ea8:	0004c880 	call	4c88 <__floatsidf>
    1eac:	da008d17 	ldw	r8,564(sp)
    1eb0:	88800015 	stw	r2,0(r17)
    1eb4:	88c00115 	stw	r3,4(r17)
    1eb8:	40001b16 	blt	r8,zero,1f28 <__kernel_rem_pio2+0x5b4>
    1ebc:	dd008e17 	ldw	r20,568(sp)
    1ec0:	882d883a 	mov	r22,r17
    1ec4:	002f883a 	mov	r23,zero
    1ec8:	0039883a 	mov	fp,zero
    1ecc:	b1800017 	ldw	r6,0(r22)
    1ed0:	b1c00117 	ldw	r7,4(r22)
    1ed4:	a1000017 	ldw	r4,0(r20)
    1ed8:	a1400117 	ldw	r5,4(r20)
    1edc:	a5000204 	addi	r20,r20,8
    1ee0:	b5bffe04 	addi	r22,r22,-8
    1ee4:	0003aa00 	call	3aa0 <__muldf3>
    1ee8:	b809883a 	mov	r4,r23
    1eec:	e00b883a 	mov	r5,fp
    1ef0:	100d883a 	mov	r6,r2
    1ef4:	180f883a 	mov	r7,r3
    1ef8:	00030900 	call	3090 <__adddf3>
    1efc:	102f883a 	mov	r23,r2
    1f00:	1839883a 	mov	fp,r3
    1f04:	a43ff11e 	bne	r20,r16,1ecc <__alt_mem_VGA_Subsystem_Char_Buf_Subsystem_Onchip_SRAM+0xf7001ecc>
    1f08:	9dc00015 	stw	r23,0(r19)
    1f0c:	9f000115 	stw	fp,4(r19)
    1f10:	94800104 	addi	r18,r18,4
    1f14:	8c400204 	addi	r17,r17,8
    1f18:	9cc00204 	addi	r19,r19,8
    1f1c:	957fe11e 	bne	r18,r21,1ea4 <__alt_mem_VGA_Subsystem_Char_Buf_Subsystem_Onchip_SRAM+0xf7001ea4>
    1f20:	dc809117 	ldw	r18,580(sp)
    1f24:	003f0f06 	br	1b64 <__alt_mem_VGA_Subsystem_Char_Buf_Subsystem_Onchip_SRAM+0xf7001b64>
    1f28:	002f883a 	mov	r23,zero
    1f2c:	0039883a 	mov	fp,zero
    1f30:	003ff506 	br	1f08 <__alt_mem_VGA_Subsystem_Char_Buf_Subsystem_Onchip_SRAM+0xf7001f08>
    1f34:	480d883a 	mov	r6,r9
    1f38:	180f883a 	mov	r7,r3
    1f3c:	0009883a 	mov	r4,zero
    1f40:	014ffc34 	movhi	r5,16368
    1f44:	000430c0 	call	430c <__subdf3>
    1f48:	102b883a 	mov	r21,r2
    1f4c:	1811883a 	mov	r8,r3
    1f50:	a03f9b26 	beq	r20,zero,1dc0 <__alt_mem_VGA_Subsystem_Char_Buf_Subsystem_Onchip_SRAM+0xf7001dc0>
    1f54:	d9809017 	ldw	r6,576(sp)
    1f58:	0009883a 	mov	r4,zero
    1f5c:	014ffc34 	movhi	r5,16368
    1f60:	d8c09b15 	stw	r3,620(sp)
    1f64:	0002bd80 	call	2bd8 <scalbn>
    1f68:	da009b17 	ldw	r8,620(sp)
    1f6c:	a809883a 	mov	r4,r21
    1f70:	100d883a 	mov	r6,r2
    1f74:	400b883a 	mov	r5,r8
    1f78:	180f883a 	mov	r7,r3
    1f7c:	000430c0 	call	430c <__subdf3>
    1f80:	102b883a 	mov	r21,r2
    1f84:	1811883a 	mov	r8,r3
    1f88:	003f8d06 	br	1dc0 <__alt_mem_VGA_Subsystem_Char_Buf_Subsystem_Onchip_SRAM+0xf7001dc0>
    1f8c:	0005883a 	mov	r2,zero
    1f90:	0007883a 	mov	r3,zero
    1f94:	003eac06 	br	1a48 <__alt_mem_VGA_Subsystem_Char_Buf_Subsystem_Onchip_SRAM+0xf7001a48>
    1f98:	d8809017 	ldw	r2,576(sp)
    1f9c:	1000121e 	bne	r2,zero,1fe8 <__kernel_rem_pio2+0x674>
    1fa0:	90bfffc4 	addi	r2,r18,-1
    1fa4:	1085883a 	add	r2,r2,r2
    1fa8:	1085883a 	add	r2,r2,r2
    1fac:	d885883a 	add	r2,sp,r2
    1fb0:	14c07817 	ldw	r19,480(r2)
    1fb4:	9827d5fa 	srai	r19,r19,23
    1fb8:	003f5606 	br	1d14 <__alt_mem_VGA_Subsystem_Char_Buf_Subsystem_Onchip_SRAM+0xf7001d14>
    1fbc:	90bfffc4 	addi	r2,r18,-1
    1fc0:	1085883a 	add	r2,r2,r2
    1fc4:	1085883a 	add	r2,r2,r2
    1fc8:	d885883a 	add	r2,sp,r2
    1fcc:	10807804 	addi	r2,r2,480
    1fd0:	11000017 	ldw	r4,0(r2)
    1fd4:	01402034 	movhi	r5,128
    1fd8:	297fffc4 	addi	r5,r5,-1
    1fdc:	2148703a 	and	r4,r4,r5
    1fe0:	11000015 	stw	r4,0(r2)
    1fe4:	003f7406 	br	1db8 <__alt_mem_VGA_Subsystem_Char_Buf_Subsystem_Onchip_SRAM+0xf7001db8>
    1fe8:	4809883a 	mov	r4,r9
    1fec:	180b883a 	mov	r5,r3
    1ff0:	000d883a 	mov	r6,zero
    1ff4:	01cff834 	movhi	r7,16352
    1ff8:	d8c09a15 	stw	r3,616(sp)
    1ffc:	d8c09b15 	stw	r3,620(sp)
    2000:	da409915 	stw	r9,612(sp)
    2004:	00039c40 	call	39c4 <__gedf2>
    2008:	d8c09a17 	ldw	r3,616(sp)
    200c:	da009b17 	ldw	r8,620(sp)
    2010:	da409917 	ldw	r9,612(sp)
    2014:	1000920e 	bge	r2,zero,2260 <__kernel_rem_pio2+0x8ec>
    2018:	0027883a 	mov	r19,zero
    201c:	003f6806 	br	1dc0 <__alt_mem_VGA_Subsystem_Char_Buf_Subsystem_Onchip_SRAM+0xf7001dc0>
    2020:	002d883a 	mov	r22,zero
    2024:	002b883a 	mov	r21,zero
    2028:	003eb006 	br	1aec <__alt_mem_VGA_Subsystem_Char_Buf_Subsystem_Onchip_SRAM+0xf7001aec>
    202c:	2945883a 	add	r2,r5,r5
    2030:	da009017 	ldw	r8,576(sp)
    2034:	1085883a 	add	r2,r2,r2
    2038:	d885883a 	add	r2,sp,r2
    203c:	10807817 	ldw	r2,480(r2)
    2040:	423ffa04 	addi	r8,r8,-24
    2044:	dc409115 	stw	r17,580(sp)
    2048:	dcc08d15 	stw	r19,564(sp)
    204c:	da009015 	stw	r8,576(sp)
    2050:	dd809417 	ldw	r22,592(sp)
    2054:	2823883a 	mov	r17,r5
    2058:	10000e1e 	bne	r2,zero,2094 <__kernel_rem_pio2+0x720>
    205c:	00900034 	movhi	r2,16384
    2060:	10bfffc4 	addi	r2,r2,-1
    2064:	2885883a 	add	r2,r5,r2
    2068:	1085883a 	add	r2,r2,r2
    206c:	d8c07804 	addi	r3,sp,480
    2070:	1085883a 	add	r2,r2,r2
    2074:	1885883a 	add	r2,r3,r2
    2078:	4007883a 	mov	r3,r8
    207c:	10bfff04 	addi	r2,r2,-4
    2080:	11000117 	ldw	r4,4(r2)
    2084:	8c7fffc4 	addi	r17,r17,-1
    2088:	18fffa04 	addi	r3,r3,-24
    208c:	203ffb26 	beq	r4,zero,207c <__alt_mem_VGA_Subsystem_Char_Buf_Subsystem_Onchip_SRAM+0xf700207c>
    2090:	d8c09015 	stw	r3,576(sp)
    2094:	d9809017 	ldw	r6,576(sp)
    2098:	0009883a 	mov	r4,zero
    209c:	014ffc34 	movhi	r5,16368
    20a0:	0002bd80 	call	2bd8 <scalbn>
    20a4:	1029883a 	mov	r20,r2
    20a8:	182b883a 	mov	r21,r3
    20ac:	88018416 	blt	r17,zero,26c0 <__kernel_rem_pio2+0xd4c>
    20b0:	881090fa 	slli	r8,r17,3
    20b4:	d8c07804 	addi	r3,sp,480
    20b8:	da008e15 	stw	r8,568(sp)
    20bc:	d8808e17 	ldw	r2,568(sp)
    20c0:	8c51883a 	add	r8,r17,r17
    20c4:	4211883a 	add	r8,r8,r8
    20c8:	d8a1883a 	add	r16,sp,r2
    20cc:	1a25883a 	add	r18,r3,r8
    20d0:	da3ffe04 	addi	r8,sp,-8
    20d4:	da008c15 	stw	r8,560(sp)
    20d8:	8039883a 	mov	fp,r16
    20dc:	91000017 	ldw	r4,0(r18)
    20e0:	e73ffe04 	addi	fp,fp,-8
    20e4:	94bfff04 	addi	r18,r18,-4
    20e8:	0004c880 	call	4c88 <__floatsidf>
    20ec:	a00d883a 	mov	r6,r20
    20f0:	a80f883a 	mov	r7,r21
    20f4:	1009883a 	mov	r4,r2
    20f8:	180b883a 	mov	r5,r3
    20fc:	0003aa00 	call	3aa0 <__muldf3>
    2100:	a009883a 	mov	r4,r20
    2104:	a80b883a 	mov	r5,r21
    2108:	e0800215 	stw	r2,8(fp)
    210c:	e0c00315 	stw	r3,12(fp)
    2110:	000d883a 	mov	r6,zero
    2114:	01cf9c34 	movhi	r7,15984
    2118:	0003aa00 	call	3aa0 <__muldf3>
    211c:	da008c17 	ldw	r8,560(sp)
    2120:	1029883a 	mov	r20,r2
    2124:	182b883a 	mov	r21,r3
    2128:	e23fec1e 	bne	fp,r8,20dc <__alt_mem_VGA_Subsystem_Char_Buf_Subsystem_Onchip_SRAM+0xf70020dc>
    212c:	0029883a 	mov	r20,zero
    2130:	b0004f16 	blt	r22,zero,2270 <__kernel_rem_pio2+0x8fc>
    2134:	05400074 	movhi	r21,1
    2138:	014ffe74 	movhi	r5,16377
    213c:	ad4c2d04 	addi	r21,r21,12468
    2140:	8027883a 	mov	r19,r16
    2144:	01100034 	movhi	r4,16384
    2148:	29487ec4 	addi	r5,r5,8699
    214c:	0039883a 	mov	fp,zero
    2150:	002f883a 	mov	r23,zero
    2154:	0025883a 	mov	r18,zero
    2158:	00000506 	br	2170 <__kernel_rem_pio2+0x7fc>
    215c:	9cc00204 	addi	r19,r19,8
    2160:	a4800f16 	blt	r20,r18,21a0 <__kernel_rem_pio2+0x82c>
    2164:	a9000017 	ldw	r4,0(r21)
    2168:	a9400117 	ldw	r5,4(r21)
    216c:	ad400204 	addi	r21,r21,8
    2170:	99800017 	ldw	r6,0(r19)
    2174:	99c00117 	ldw	r7,4(r19)
    2178:	94800044 	addi	r18,r18,1
    217c:	0003aa00 	call	3aa0 <__muldf3>
    2180:	e009883a 	mov	r4,fp
    2184:	b80b883a 	mov	r5,r23
    2188:	100d883a 	mov	r6,r2
    218c:	180f883a 	mov	r7,r3
    2190:	00030900 	call	3090 <__adddf3>
    2194:	1039883a 	mov	fp,r2
    2198:	182f883a 	mov	r23,r3
    219c:	b4bfef0e 	bge	r22,r18,215c <__alt_mem_VGA_Subsystem_Char_Buf_Subsystem_Onchip_SRAM+0xf700215c>
    21a0:	a00490fa 	slli	r2,r20,3
    21a4:	da008c17 	ldw	r8,560(sp)
    21a8:	843ffe04 	addi	r16,r16,-8
    21ac:	d885883a 	add	r2,sp,r2
    21b0:	10802804 	addi	r2,r2,160
    21b4:	17000015 	stw	fp,0(r2)
    21b8:	15c00115 	stw	r23,4(r2)
    21bc:	a5000044 	addi	r20,r20,1
    21c0:	823fdb1e 	bne	r16,r8,2130 <__alt_mem_VGA_Subsystem_Char_Buf_Subsystem_Onchip_SRAM+0xf7002130>
    21c4:	da00a617 	ldw	r8,664(sp)
    21c8:	00800084 	movi	r2,2
    21cc:	12006616 	blt	r2,r8,2368 <__kernel_rem_pio2+0x9f4>
    21d0:	0200de16 	blt	zero,r8,254c <__kernel_rem_pio2+0xbd8>
    21d4:	4000141e 	bne	r8,zero,2228 <__kernel_rem_pio2+0x8b4>
    21d8:	da008e17 	ldw	r8,568(sp)
    21dc:	d8802804 	addi	r2,sp,160
    21e0:	0007883a 	mov	r3,zero
    21e4:	1225883a 	add	r18,r2,r8
    21e8:	043fffc4 	movi	r16,-1
    21ec:	0005883a 	mov	r2,zero
    21f0:	91800017 	ldw	r6,0(r18)
    21f4:	91c00117 	ldw	r7,4(r18)
    21f8:	1009883a 	mov	r4,r2
    21fc:	180b883a 	mov	r5,r3
    2200:	8c7fffc4 	addi	r17,r17,-1
    2204:	00030900 	call	3090 <__adddf3>
    2208:	94bffe04 	addi	r18,r18,-8
    220c:	8c3ff81e 	bne	r17,r16,21f0 <__alt_mem_VGA_Subsystem_Char_Buf_Subsystem_Onchip_SRAM+0xf70021f0>
    2210:	da008d17 	ldw	r8,564(sp)
    2214:	40000126 	beq	r8,zero,221c <__kernel_rem_pio2+0x8a8>
    2218:	18e0003c 	xorhi	r3,r3,32768
    221c:	da008f17 	ldw	r8,572(sp)
    2220:	40800015 	stw	r2,0(r8)
    2224:	40c00115 	stw	r3,4(r8)
    2228:	da009117 	ldw	r8,580(sp)
    222c:	408001cc 	andi	r2,r8,7
    2230:	dfc0a517 	ldw	ra,660(sp)
    2234:	df00a417 	ldw	fp,656(sp)
    2238:	ddc0a317 	ldw	r23,652(sp)
    223c:	dd80a217 	ldw	r22,648(sp)
    2240:	dd40a117 	ldw	r21,644(sp)
    2244:	dd00a017 	ldw	r20,640(sp)
    2248:	dcc09f17 	ldw	r19,636(sp)
    224c:	dc809e17 	ldw	r18,632(sp)
    2250:	dc409d17 	ldw	r17,628(sp)
    2254:	dc009c17 	ldw	r16,624(sp)
    2258:	dec0a604 	addi	sp,sp,664
    225c:	f800283a 	ret
    2260:	8c400044 	addi	r17,r17,1
    2264:	04810d0e 	bge	zero,r18,269c <__kernel_rem_pio2+0xd28>
    2268:	04c00084 	movi	r19,2
    226c:	003eac06 	br	1d20 <__alt_mem_VGA_Subsystem_Char_Buf_Subsystem_Onchip_SRAM+0xf7001d20>
    2270:	0039883a 	mov	fp,zero
    2274:	002f883a 	mov	r23,zero
    2278:	003fc906 	br	21a0 <__alt_mem_VGA_Subsystem_Char_Buf_Subsystem_Onchip_SRAM+0xf70021a0>
    227c:	0029883a 	mov	r20,zero
    2280:	003ebd06 	br	1d78 <__alt_mem_VGA_Subsystem_Char_Buf_Subsystem_Onchip_SRAM+0xf7001d78>
    2284:	05000044 	movi	r20,1
    2288:	003eef06 	br	1e48 <__alt_mem_VGA_Subsystem_Char_Buf_Subsystem_Onchip_SRAM+0xf7001e48>
    228c:	4029883a 	mov	r20,r8
    2290:	da009017 	ldw	r8,576(sp)
    2294:	a809883a 	mov	r4,r21
    2298:	a00b883a 	mov	r5,r20
    229c:	020dc83a 	sub	r6,zero,r8
    22a0:	dc409115 	stw	r17,580(sp)
    22a4:	dd809417 	ldw	r22,592(sp)
    22a8:	dcc08d15 	stw	r19,564(sp)
    22ac:	0002bd80 	call	2bd8 <scalbn>
    22b0:	000d883a 	mov	r6,zero
    22b4:	01d05c34 	movhi	r7,16752
    22b8:	1009883a 	mov	r4,r2
    22bc:	180b883a 	mov	r5,r3
    22c0:	102b883a 	mov	r21,r2
    22c4:	1823883a 	mov	r17,r3
    22c8:	00039c40 	call	39c4 <__gedf2>
    22cc:	1000e916 	blt	r2,zero,2674 <__kernel_rem_pio2+0xd00>
    22d0:	000d883a 	mov	r6,zero
    22d4:	01cf9c34 	movhi	r7,15984
    22d8:	880b883a 	mov	r5,r17
    22dc:	a809883a 	mov	r4,r21
    22e0:	0003aa00 	call	3aa0 <__muldf3>
    22e4:	180b883a 	mov	r5,r3
    22e8:	1009883a 	mov	r4,r2
    22ec:	0004c080 	call	4c08 <__fixdfsi>
    22f0:	1029883a 	mov	r20,r2
    22f4:	9485883a 	add	r2,r18,r18
    22f8:	1085883a 	add	r2,r2,r2
    22fc:	a009883a 	mov	r4,r20
    2300:	d8a1883a 	add	r16,sp,r2
    2304:	0004c880 	call	4c88 <__floatsidf>
    2308:	000d883a 	mov	r6,zero
    230c:	01d05c34 	movhi	r7,16752
    2310:	1009883a 	mov	r4,r2
    2314:	180b883a 	mov	r5,r3
    2318:	0003aa00 	call	3aa0 <__muldf3>
    231c:	880b883a 	mov	r5,r17
    2320:	100d883a 	mov	r6,r2
    2324:	180f883a 	mov	r7,r3
    2328:	a809883a 	mov	r4,r21
    232c:	000430c0 	call	430c <__subdf3>
    2330:	180b883a 	mov	r5,r3
    2334:	1009883a 	mov	r4,r2
    2338:	0004c080 	call	4c08 <__fixdfsi>
    233c:	da009017 	ldw	r8,576(sp)
    2340:	94400044 	addi	r17,r18,1
    2344:	8c47883a 	add	r3,r17,r17
    2348:	84007804 	addi	r16,r16,480
    234c:	18c7883a 	add	r3,r3,r3
    2350:	80800015 	stw	r2,0(r16)
    2354:	d8c7883a 	add	r3,sp,r3
    2358:	42000604 	addi	r8,r8,24
    235c:	da009015 	stw	r8,576(sp)
    2360:	1d007815 	stw	r20,480(r3)
    2364:	003f4b06 	br	2094 <__alt_mem_VGA_Subsystem_Char_Buf_Subsystem_Onchip_SRAM+0xf7002094>
    2368:	da00a617 	ldw	r8,664(sp)
    236c:	008000c4 	movi	r2,3
    2370:	40bfad1e 	bne	r8,r2,2228 <__alt_mem_VGA_Subsystem_Char_Buf_Subsystem_Onchip_SRAM+0xf7002228>
    2374:	0440bc0e 	bge	zero,r17,2668 <__kernel_rem_pio2+0xcf4>
    2378:	da008e17 	ldw	r8,568(sp)
    237c:	882090fa 	slli	r16,r17,3
    2380:	dd402804 	addi	r21,sp,160
    2384:	da05883a 	add	r2,sp,r8
    2388:	10802804 	addi	r2,r2,160
    238c:	15c00017 	ldw	r23,0(r2)
    2390:	15800117 	ldw	r22,4(r2)
    2394:	8029883a 	mov	r20,r16
    2398:	843ffe04 	addi	r16,r16,-8
    239c:	ac21883a 	add	r16,r21,r16
    23a0:	ad29883a 	add	r20,r21,r20
    23a4:	dac02604 	addi	r11,sp,152
    23a8:	8811883a 	mov	r8,r17
    23ac:	84400017 	ldw	r17,0(r16)
    23b0:	87000117 	ldw	fp,4(r16)
    23b4:	b80d883a 	mov	r6,r23
    23b8:	b00f883a 	mov	r7,r22
    23bc:	8809883a 	mov	r4,r17
    23c0:	e00b883a 	mov	r5,fp
    23c4:	da009b15 	stw	r8,620(sp)
    23c8:	dac09915 	stw	r11,612(sp)
    23cc:	00030900 	call	3090 <__adddf3>
    23d0:	100d883a 	mov	r6,r2
    23d4:	180f883a 	mov	r7,r3
    23d8:	8809883a 	mov	r4,r17
    23dc:	e00b883a 	mov	r5,fp
    23e0:	1027883a 	mov	r19,r2
    23e4:	1825883a 	mov	r18,r3
    23e8:	000430c0 	call	430c <__subdf3>
    23ec:	b80d883a 	mov	r6,r23
    23f0:	b00f883a 	mov	r7,r22
    23f4:	1009883a 	mov	r4,r2
    23f8:	180b883a 	mov	r5,r3
    23fc:	00030900 	call	3090 <__adddf3>
    2400:	dac09917 	ldw	r11,612(sp)
    2404:	a0800015 	stw	r2,0(r20)
    2408:	a0c00115 	stw	r3,4(r20)
    240c:	84c00015 	stw	r19,0(r16)
    2410:	84800115 	stw	r18,4(r16)
    2414:	843ffe04 	addi	r16,r16,-8
    2418:	a53ffe04 	addi	r20,r20,-8
    241c:	982f883a 	mov	r23,r19
    2420:	902d883a 	mov	r22,r18
    2424:	da009b17 	ldw	r8,620(sp)
    2428:	5c3fe01e 	bne	r11,r16,23ac <__alt_mem_VGA_Subsystem_Char_Buf_Subsystem_Onchip_SRAM+0xf70023ac>
    242c:	00800044 	movi	r2,1
    2430:	12008d0e 	bge	r2,r8,2668 <__kernel_rem_pio2+0xcf4>
    2434:	402090fa 	slli	r16,r8,3
    2438:	da008e17 	ldw	r8,568(sp)
    243c:	8023883a 	mov	r17,r16
    2440:	da05883a 	add	r2,sp,r8
    2444:	10802804 	addi	r2,r2,160
    2448:	15800017 	ldw	r22,0(r2)
    244c:	15000117 	ldw	r20,4(r2)
    2450:	ac63883a 	add	r17,r21,r17
    2454:	843ffe04 	addi	r16,r16,-8
    2458:	ac21883a 	add	r16,r21,r16
    245c:	8825883a 	mov	r18,r17
    2460:	8811883a 	mov	r8,r17
    2464:	84400017 	ldw	r17,0(r16)
    2468:	87000117 	ldw	fp,4(r16)
    246c:	b009883a 	mov	r4,r22
    2470:	a00b883a 	mov	r5,r20
    2474:	880d883a 	mov	r6,r17
    2478:	e00f883a 	mov	r7,fp
    247c:	da009b15 	stw	r8,620(sp)
    2480:	00030900 	call	3090 <__adddf3>
    2484:	100d883a 	mov	r6,r2
    2488:	180f883a 	mov	r7,r3
    248c:	8809883a 	mov	r4,r17
    2490:	e00b883a 	mov	r5,fp
    2494:	102f883a 	mov	r23,r2
    2498:	1827883a 	mov	r19,r3
    249c:	000430c0 	call	430c <__subdf3>
    24a0:	b00d883a 	mov	r6,r22
    24a4:	a00f883a 	mov	r7,r20
    24a8:	1009883a 	mov	r4,r2
    24ac:	180b883a 	mov	r5,r3
    24b0:	00030900 	call	3090 <__adddf3>
    24b4:	90800015 	stw	r2,0(r18)
    24b8:	90c00115 	stw	r3,4(r18)
    24bc:	85c00015 	stw	r23,0(r16)
    24c0:	84c00115 	stw	r19,4(r16)
    24c4:	843ffe04 	addi	r16,r16,-8
    24c8:	94bffe04 	addi	r18,r18,-8
    24cc:	b82d883a 	mov	r22,r23
    24d0:	9829883a 	mov	r20,r19
    24d4:	da009b17 	ldw	r8,620(sp)
    24d8:	ac3fe21e 	bne	r21,r16,2464 <__alt_mem_VGA_Subsystem_Char_Buf_Subsystem_Onchip_SRAM+0xf7002464>
    24dc:	4023883a 	mov	r17,r8
    24e0:	dc002a04 	addi	r16,sp,168
    24e4:	0005883a 	mov	r2,zero
    24e8:	0007883a 	mov	r3,zero
    24ec:	89800017 	ldw	r6,0(r17)
    24f0:	89c00117 	ldw	r7,4(r17)
    24f4:	1009883a 	mov	r4,r2
    24f8:	8c7ffe04 	addi	r17,r17,-8
    24fc:	180b883a 	mov	r5,r3
    2500:	00030900 	call	3090 <__adddf3>
    2504:	847ff91e 	bne	r16,r17,24ec <__alt_mem_VGA_Subsystem_Char_Buf_Subsystem_Onchip_SRAM+0xf70024ec>
    2508:	da008d17 	ldw	r8,564(sp)
    250c:	40004726 	beq	r8,zero,262c <__kernel_rem_pio2+0xcb8>
    2510:	d9002b17 	ldw	r4,172(sp)
    2514:	d9402917 	ldw	r5,164(sp)
    2518:	d9802a17 	ldw	r6,168(sp)
    251c:	da008f17 	ldw	r8,572(sp)
    2520:	d9c02817 	ldw	r7,160(sp)
    2524:	2960003c 	xorhi	r5,r5,32768
    2528:	2120003c 	xorhi	r4,r4,32768
    252c:	18e0003c 	xorhi	r3,r3,32768
    2530:	41c00015 	stw	r7,0(r8)
    2534:	41400115 	stw	r5,4(r8)
    2538:	41800215 	stw	r6,8(r8)
    253c:	41000315 	stw	r4,12(r8)
    2540:	40800415 	stw	r2,16(r8)
    2544:	40c00515 	stw	r3,20(r8)
    2548:	003f3706 	br	2228 <__alt_mem_VGA_Subsystem_Char_Buf_Subsystem_Onchip_SRAM+0xf7002228>
    254c:	da008e17 	ldw	r8,568(sp)
    2550:	d8802804 	addi	r2,sp,160
    2554:	dc002604 	addi	r16,sp,152
    2558:	1225883a 	add	r18,r2,r8
    255c:	0007883a 	mov	r3,zero
    2560:	0005883a 	mov	r2,zero
    2564:	91800017 	ldw	r6,0(r18)
    2568:	91c00117 	ldw	r7,4(r18)
    256c:	1009883a 	mov	r4,r2
    2570:	94bffe04 	addi	r18,r18,-8
    2574:	180b883a 	mov	r5,r3
    2578:	00030900 	call	3090 <__adddf3>
    257c:	943ff91e 	bne	r18,r16,2564 <__alt_mem_VGA_Subsystem_Char_Buf_Subsystem_Onchip_SRAM+0xf7002564>
    2580:	da008d17 	ldw	r8,564(sp)
    2584:	d9002817 	ldw	r4,160(sp)
    2588:	d9402917 	ldw	r5,164(sp)
    258c:	40001a26 	beq	r8,zero,25f8 <__kernel_rem_pio2+0xc84>
    2590:	da008f17 	ldw	r8,572(sp)
    2594:	19a0003c 	xorhi	r6,r3,32768
    2598:	180f883a 	mov	r7,r3
    259c:	41800115 	stw	r6,4(r8)
    25a0:	40800015 	stw	r2,0(r8)
    25a4:	100d883a 	mov	r6,r2
    25a8:	000430c0 	call	430c <__subdf3>
    25ac:	04400c0e 	bge	zero,r17,25e0 <__kernel_rem_pio2+0xc6c>
    25b0:	dc002a04 	addi	r16,sp,168
    25b4:	04800044 	movi	r18,1
    25b8:	81800017 	ldw	r6,0(r16)
    25bc:	81c00117 	ldw	r7,4(r16)
    25c0:	1009883a 	mov	r4,r2
    25c4:	180b883a 	mov	r5,r3
    25c8:	94800044 	addi	r18,r18,1
    25cc:	00030900 	call	3090 <__adddf3>
    25d0:	84000204 	addi	r16,r16,8
    25d4:	8cbff80e 	bge	r17,r18,25b8 <__alt_mem_VGA_Subsystem_Char_Buf_Subsystem_Onchip_SRAM+0xf70025b8>
    25d8:	da008d17 	ldw	r8,564(sp)
    25dc:	40004226 	beq	r8,zero,26e8 <__kernel_rem_pio2+0xd74>
    25e0:	da008f17 	ldw	r8,572(sp)
    25e4:	1009883a 	mov	r4,r2
    25e8:	18a0003c 	xorhi	r2,r3,32768
    25ec:	41000215 	stw	r4,8(r8)
    25f0:	40800315 	stw	r2,12(r8)
    25f4:	003f0c06 	br	2228 <__alt_mem_VGA_Subsystem_Char_Buf_Subsystem_Onchip_SRAM+0xf7002228>
    25f8:	da008f17 	ldw	r8,572(sp)
    25fc:	100d883a 	mov	r6,r2
    2600:	180f883a 	mov	r7,r3
    2604:	40800015 	stw	r2,0(r8)
    2608:	40c00115 	stw	r3,4(r8)
    260c:	000430c0 	call	430c <__subdf3>
    2610:	047fe716 	blt	zero,r17,25b0 <__alt_mem_VGA_Subsystem_Char_Buf_Subsystem_Onchip_SRAM+0xf70025b0>
    2614:	da008f17 	ldw	r8,572(sp)
    2618:	1009883a 	mov	r4,r2
    261c:	1805883a 	mov	r2,r3
    2620:	41000215 	stw	r4,8(r8)
    2624:	40800315 	stw	r2,12(r8)
    2628:	003eff06 	br	2228 <__alt_mem_VGA_Subsystem_Char_Buf_Subsystem_Onchip_SRAM+0xf7002228>
    262c:	da008f17 	ldw	r8,572(sp)
    2630:	d9802817 	ldw	r6,160(sp)
    2634:	d9402a17 	ldw	r5,168(sp)
    2638:	d9002b17 	ldw	r4,172(sp)
    263c:	41800015 	stw	r6,0(r8)
    2640:	d9802917 	ldw	r6,164(sp)
    2644:	41400215 	stw	r5,8(r8)
    2648:	41000315 	stw	r4,12(r8)
    264c:	41800115 	stw	r6,4(r8)
    2650:	40800415 	stw	r2,16(r8)
    2654:	40c00515 	stw	r3,20(r8)
    2658:	003ef306 	br	2228 <__alt_mem_VGA_Subsystem_Char_Buf_Subsystem_Onchip_SRAM+0xf7002228>
    265c:	da00a617 	ldw	r8,664(sp)
    2660:	008000c4 	movi	r2,3
    2664:	40bef01e 	bne	r8,r2,2228 <__alt_mem_VGA_Subsystem_Char_Buf_Subsystem_Onchip_SRAM+0xf7002228>
    2668:	0005883a 	mov	r2,zero
    266c:	0007883a 	mov	r3,zero
    2670:	003fa506 	br	2508 <__alt_mem_VGA_Subsystem_Char_Buf_Subsystem_Onchip_SRAM+0xf7002508>
    2674:	9485883a 	add	r2,r18,r18
    2678:	1085883a 	add	r2,r2,r2
    267c:	d8a1883a 	add	r16,sp,r2
    2680:	880b883a 	mov	r5,r17
    2684:	a809883a 	mov	r4,r21
    2688:	84007804 	addi	r16,r16,480
    268c:	0004c080 	call	4c08 <__fixdfsi>
    2690:	80800015 	stw	r2,0(r16)
    2694:	9023883a 	mov	r17,r18
    2698:	003e7e06 	br	2094 <__alt_mem_VGA_Subsystem_Char_Buf_Subsystem_Onchip_SRAM+0xf7002094>
    269c:	a80d883a 	mov	r6,r21
    26a0:	400f883a 	mov	r7,r8
    26a4:	0009883a 	mov	r4,zero
    26a8:	014ffc34 	movhi	r5,16368
    26ac:	000430c0 	call	430c <__subdf3>
    26b0:	102b883a 	mov	r21,r2
    26b4:	1811883a 	mov	r8,r3
    26b8:	04c00084 	movi	r19,2
    26bc:	003dc006 	br	1dc0 <__alt_mem_VGA_Subsystem_Char_Buf_Subsystem_Onchip_SRAM+0xf7001dc0>
    26c0:	da00a617 	ldw	r8,664(sp)
    26c4:	00800084 	movi	r2,2
    26c8:	123fe416 	blt	r2,r8,265c <__alt_mem_VGA_Subsystem_Char_Buf_Subsystem_Onchip_SRAM+0xf700265c>
    26cc:	02000c16 	blt	zero,r8,2700 <__kernel_rem_pio2+0xd8c>
    26d0:	403ed51e 	bne	r8,zero,2228 <__alt_mem_VGA_Subsystem_Char_Buf_Subsystem_Onchip_SRAM+0xf7002228>
    26d4:	0005883a 	mov	r2,zero
    26d8:	0007883a 	mov	r3,zero
    26dc:	003ecc06 	br	2210 <__alt_mem_VGA_Subsystem_Char_Buf_Subsystem_Onchip_SRAM+0xf7002210>
    26e0:	d8009215 	stw	zero,584(sp)
    26e4:	003cc106 	br	19ec <__alt_mem_VGA_Subsystem_Char_Buf_Subsystem_Onchip_SRAM+0xf70019ec>
    26e8:	da008f17 	ldw	r8,572(sp)
    26ec:	1009883a 	mov	r4,r2
    26f0:	1805883a 	mov	r2,r3
    26f4:	41000215 	stw	r4,8(r8)
    26f8:	40800315 	stw	r2,12(r8)
    26fc:	003eca06 	br	2228 <__alt_mem_VGA_Subsystem_Char_Buf_Subsystem_Onchip_SRAM+0xf7002228>
    2700:	0005883a 	mov	r2,zero
    2704:	0007883a 	mov	r3,zero
    2708:	003f9d06 	br	2580 <__alt_mem_VGA_Subsystem_Char_Buf_Subsystem_Onchip_SRAM+0xf7002580>

0000270c <__kernel_sin>:
    270c:	00a00034 	movhi	r2,32768
    2710:	defff404 	addi	sp,sp,-48
    2714:	10bfffc4 	addi	r2,r2,-1
    2718:	00cf9034 	movhi	r3,15936
    271c:	ddc00915 	stw	r23,36(sp)
    2720:	dd800815 	stw	r22,32(sp)
    2724:	dc400315 	stw	r17,12(sp)
    2728:	dc000215 	stw	r16,8(sp)
    272c:	dfc00b15 	stw	ra,44(sp)
    2730:	df000a15 	stw	fp,40(sp)
    2734:	dd400715 	stw	r21,28(sp)
    2738:	dd000615 	stw	r20,24(sp)
    273c:	dcc00515 	stw	r19,20(sp)
    2740:	dc800415 	stw	r18,16(sp)
    2744:	2884703a 	and	r2,r5,r2
    2748:	18ffffc4 	addi	r3,r3,-1
    274c:	2821883a 	mov	r16,r5
    2750:	2023883a 	mov	r17,r4
    2754:	302f883a 	mov	r23,r6
    2758:	382d883a 	mov	r22,r7
    275c:	18800216 	blt	r3,r2,2768 <__kernel_sin+0x5c>
    2760:	0004c080 	call	4c08 <__fixdfsi>
    2764:	10009926 	beq	r2,zero,29cc <__kernel_sin+0x2c0>
    2768:	880d883a 	mov	r6,r17
    276c:	800f883a 	mov	r7,r16
    2770:	8809883a 	mov	r4,r17
    2774:	800b883a 	mov	r5,r16
    2778:	0003aa00 	call	3aa0 <__muldf3>
    277c:	100d883a 	mov	r6,r2
    2780:	180f883a 	mov	r7,r3
    2784:	8809883a 	mov	r4,r17
    2788:	800b883a 	mov	r5,r16
    278c:	1027883a 	mov	r19,r2
    2790:	1825883a 	mov	r18,r3
    2794:	0003aa00 	call	3aa0 <__muldf3>
    2798:	0196b434 	movhi	r6,23248
    279c:	01cf79b4 	movhi	r7,15846
    27a0:	31b55f04 	addi	r6,r6,-10884
    27a4:	39f64e84 	addi	r7,r7,-9926
    27a8:	9809883a 	mov	r4,r19
    27ac:	900b883a 	mov	r5,r18
    27b0:	102b883a 	mov	r21,r2
    27b4:	1829883a 	mov	r20,r3
    27b8:	0003aa00 	call	3aa0 <__muldf3>
    27bc:	01a28b34 	movhi	r6,35372
    27c0:	01cf96f4 	movhi	r7,15963
    27c4:	31a73ac4 	addi	r6,r6,-25365
    27c8:	39f97984 	addi	r7,r7,-6682
    27cc:	1009883a 	mov	r4,r2
    27d0:	180b883a 	mov	r5,r3
    27d4:	000430c0 	call	430c <__subdf3>
    27d8:	980d883a 	mov	r6,r19
    27dc:	900f883a 	mov	r7,r18
    27e0:	1009883a 	mov	r4,r2
    27e4:	180b883a 	mov	r5,r3
    27e8:	0003aa00 	call	3aa0 <__muldf3>
    27ec:	0195ecb4 	movhi	r6,22450
    27f0:	01cfb1f4 	movhi	r7,16071
    27f4:	31bf9f44 	addi	r6,r6,-387
    27f8:	39c778c4 	addi	r7,r7,7651
    27fc:	1009883a 	mov	r4,r2
    2800:	180b883a 	mov	r5,r3
    2804:	00030900 	call	3090 <__adddf3>
    2808:	980d883a 	mov	r6,r19
    280c:	900f883a 	mov	r7,r18
    2810:	1009883a 	mov	r4,r2
    2814:	180b883a 	mov	r5,r3
    2818:	0003aa00 	call	3aa0 <__muldf3>
    281c:	01867074 	movhi	r6,6593
    2820:	01cfcab4 	movhi	r7,16170
    2824:	31987544 	addi	r6,r6,25045
    2828:	39c06804 	addi	r7,r7,416
    282c:	1009883a 	mov	r4,r2
    2830:	180b883a 	mov	r5,r3
    2834:	000430c0 	call	430c <__subdf3>
    2838:	980d883a 	mov	r6,r19
    283c:	900f883a 	mov	r7,r18
    2840:	1009883a 	mov	r4,r2
    2844:	180b883a 	mov	r5,r3
    2848:	0003aa00 	call	3aa0 <__muldf3>
    284c:	01844474 	movhi	r6,4369
    2850:	01cfe074 	movhi	r7,16257
    2854:	31be2984 	addi	r6,r6,-1882
    2858:	39c44444 	addi	r7,r7,4369
    285c:	1009883a 	mov	r4,r2
    2860:	180b883a 	mov	r5,r3
    2864:	00030900 	call	3090 <__adddf3>
    2868:	1011883a 	mov	r8,r2
    286c:	d8800c17 	ldw	r2,48(sp)
    2870:	1839883a 	mov	fp,r3
    2874:	10003e26 	beq	r2,zero,2970 <__kernel_sin+0x264>
    2878:	000d883a 	mov	r6,zero
    287c:	01cff834 	movhi	r7,16352
    2880:	b809883a 	mov	r4,r23
    2884:	b00b883a 	mov	r5,r22
    2888:	da000015 	stw	r8,0(sp)
    288c:	0003aa00 	call	3aa0 <__muldf3>
    2890:	da000017 	ldw	r8,0(sp)
    2894:	e00f883a 	mov	r7,fp
    2898:	a809883a 	mov	r4,r21
    289c:	400d883a 	mov	r6,r8
    28a0:	a00b883a 	mov	r5,r20
    28a4:	d8c00115 	stw	r3,4(sp)
    28a8:	d8800015 	stw	r2,0(sp)
    28ac:	0003aa00 	call	3aa0 <__muldf3>
    28b0:	da800017 	ldw	r10,0(sp)
    28b4:	da400117 	ldw	r9,4(sp)
    28b8:	100d883a 	mov	r6,r2
    28bc:	5009883a 	mov	r4,r10
    28c0:	480b883a 	mov	r5,r9
    28c4:	180f883a 	mov	r7,r3
    28c8:	000430c0 	call	430c <__subdf3>
    28cc:	980d883a 	mov	r6,r19
    28d0:	900f883a 	mov	r7,r18
    28d4:	1009883a 	mov	r4,r2
    28d8:	180b883a 	mov	r5,r3
    28dc:	0003aa00 	call	3aa0 <__muldf3>
    28e0:	b80d883a 	mov	r6,r23
    28e4:	b00f883a 	mov	r7,r22
    28e8:	1009883a 	mov	r4,r2
    28ec:	180b883a 	mov	r5,r3
    28f0:	000430c0 	call	430c <__subdf3>
    28f4:	01955574 	movhi	r6,21845
    28f8:	01cff174 	movhi	r7,16325
    28fc:	31955244 	addi	r6,r6,21833
    2900:	39d55544 	addi	r7,r7,21845
    2904:	a809883a 	mov	r4,r21
    2908:	a00b883a 	mov	r5,r20
    290c:	1027883a 	mov	r19,r2
    2910:	1825883a 	mov	r18,r3
    2914:	0003aa00 	call	3aa0 <__muldf3>
    2918:	100d883a 	mov	r6,r2
    291c:	180f883a 	mov	r7,r3
    2920:	9809883a 	mov	r4,r19
    2924:	900b883a 	mov	r5,r18
    2928:	00030900 	call	3090 <__adddf3>
    292c:	100d883a 	mov	r6,r2
    2930:	180f883a 	mov	r7,r3
    2934:	8809883a 	mov	r4,r17
    2938:	800b883a 	mov	r5,r16
    293c:	000430c0 	call	430c <__subdf3>
    2940:	dfc00b17 	ldw	ra,44(sp)
    2944:	df000a17 	ldw	fp,40(sp)
    2948:	ddc00917 	ldw	r23,36(sp)
    294c:	dd800817 	ldw	r22,32(sp)
    2950:	dd400717 	ldw	r21,28(sp)
    2954:	dd000617 	ldw	r20,24(sp)
    2958:	dcc00517 	ldw	r19,20(sp)
    295c:	dc800417 	ldw	r18,16(sp)
    2960:	dc400317 	ldw	r17,12(sp)
    2964:	dc000217 	ldw	r16,8(sp)
    2968:	dec00c04 	addi	sp,sp,48
    296c:	f800283a 	ret
    2970:	400d883a 	mov	r6,r8
    2974:	9809883a 	mov	r4,r19
    2978:	900b883a 	mov	r5,r18
    297c:	180f883a 	mov	r7,r3
    2980:	0003aa00 	call	3aa0 <__muldf3>
    2984:	01955574 	movhi	r6,21845
    2988:	01cff174 	movhi	r7,16325
    298c:	31955244 	addi	r6,r6,21833
    2990:	39d55544 	addi	r7,r7,21845
    2994:	1009883a 	mov	r4,r2
    2998:	180b883a 	mov	r5,r3
    299c:	000430c0 	call	430c <__subdf3>
    29a0:	a80d883a 	mov	r6,r21
    29a4:	a00f883a 	mov	r7,r20
    29a8:	1009883a 	mov	r4,r2
    29ac:	180b883a 	mov	r5,r3
    29b0:	0003aa00 	call	3aa0 <__muldf3>
    29b4:	880d883a 	mov	r6,r17
    29b8:	800f883a 	mov	r7,r16
    29bc:	1009883a 	mov	r4,r2
    29c0:	180b883a 	mov	r5,r3
    29c4:	00030900 	call	3090 <__adddf3>
    29c8:	003fdd06 	br	2940 <__alt_mem_VGA_Subsystem_Char_Buf_Subsystem_Onchip_SRAM+0xf7002940>
    29cc:	8805883a 	mov	r2,r17
    29d0:	8007883a 	mov	r3,r16
    29d4:	003fda06 	br	2940 <__alt_mem_VGA_Subsystem_Char_Buf_Subsystem_Onchip_SRAM+0xf7002940>

000029d8 <fabs>:
    29d8:	00e00034 	movhi	r3,32768
    29dc:	18ffffc4 	addi	r3,r3,-1
    29e0:	2005883a 	mov	r2,r4
    29e4:	28c6703a 	and	r3,r5,r3
    29e8:	f800283a 	ret

000029ec <floor>:
    29ec:	2811d53a 	srai	r8,r5,20
    29f0:	defffa04 	addi	sp,sp,-24
    29f4:	dcc00315 	stw	r19,12(sp)
    29f8:	4201ffcc 	andi	r8,r8,2047
    29fc:	dc800215 	stw	r18,8(sp)
    2a00:	dc400115 	stw	r17,4(sp)
    2a04:	dc000015 	stw	r16,0(sp)
    2a08:	dfc00515 	stw	ra,20(sp)
    2a0c:	dd000415 	stw	r20,16(sp)
    2a10:	44bf0044 	addi	r18,r8,-1023
    2a14:	018004c4 	movi	r6,19
    2a18:	2821883a 	mov	r16,r5
    2a1c:	2005883a 	mov	r2,r4
    2a20:	280f883a 	mov	r7,r5
    2a24:	2827883a 	mov	r19,r5
    2a28:	2023883a 	mov	r17,r4
    2a2c:	34801916 	blt	r6,r18,2a94 <floor+0xa8>
    2a30:	90003c16 	blt	r18,zero,2b24 <floor+0x138>
    2a34:	05000434 	movhi	r20,16
    2a38:	a53fffc4 	addi	r20,r20,-1
    2a3c:	a4a9d83a 	sra	r20,r20,r18
    2a40:	2d0c703a 	and	r6,r5,r20
    2a44:	310cb03a 	or	r6,r6,r4
    2a48:	30001626 	beq	r6,zero,2aa4 <floor+0xb8>
    2a4c:	01a20034 	movhi	r6,34816
    2a50:	01df8e34 	movhi	r7,32312
    2a54:	319d6704 	addi	r6,r6,30108
    2a58:	39f90f04 	addi	r7,r7,-7108
    2a5c:	00030900 	call	3090 <__adddf3>
    2a60:	000d883a 	mov	r6,zero
    2a64:	000f883a 	mov	r7,zero
    2a68:	1009883a 	mov	r4,r2
    2a6c:	180b883a 	mov	r5,r3
    2a70:	00039c40 	call	39c4 <__gedf2>
    2a74:	0080040e 	bge	zero,r2,2a88 <floor+0x9c>
    2a78:	80003c16 	blt	r16,zero,2b6c <floor+0x180>
    2a7c:	0520303a 	nor	r16,zero,r20
    2a80:	84e0703a 	and	r16,r16,r19
    2a84:	0023883a 	mov	r17,zero
    2a88:	8805883a 	mov	r2,r17
    2a8c:	8007883a 	mov	r3,r16
    2a90:	00000506 	br	2aa8 <floor+0xbc>
    2a94:	01800cc4 	movi	r6,51
    2a98:	34800b0e 	bge	r6,r18,2ac8 <floor+0xdc>
    2a9c:	01810004 	movi	r6,1024
    2aa0:	91802f26 	beq	r18,r6,2b60 <floor+0x174>
    2aa4:	3807883a 	mov	r3,r7
    2aa8:	dfc00517 	ldw	ra,20(sp)
    2aac:	dd000417 	ldw	r20,16(sp)
    2ab0:	dcc00317 	ldw	r19,12(sp)
    2ab4:	dc800217 	ldw	r18,8(sp)
    2ab8:	dc400117 	ldw	r17,4(sp)
    2abc:	dc000017 	ldw	r16,0(sp)
    2ac0:	dec00604 	addi	sp,sp,24
    2ac4:	f800283a 	ret
    2ac8:	423efb44 	addi	r8,r8,-1043
    2acc:	053fffc4 	movi	r20,-1
    2ad0:	a228d83a 	srl	r20,r20,r8
    2ad4:	250c703a 	and	r6,r4,r20
    2ad8:	303ff226 	beq	r6,zero,2aa4 <__alt_mem_VGA_Subsystem_Char_Buf_Subsystem_Onchip_SRAM+0xf7002aa4>
    2adc:	01a20034 	movhi	r6,34816
    2ae0:	01df8e34 	movhi	r7,32312
    2ae4:	319d6704 	addi	r6,r6,30108
    2ae8:	39f90f04 	addi	r7,r7,-7108
    2aec:	00030900 	call	3090 <__adddf3>
    2af0:	000d883a 	mov	r6,zero
    2af4:	000f883a 	mov	r7,zero
    2af8:	1009883a 	mov	r4,r2
    2afc:	180b883a 	mov	r5,r3
    2b00:	00039c40 	call	39c4 <__gedf2>
    2b04:	00bfe00e 	bge	zero,r2,2a88 <__alt_mem_VGA_Subsystem_Char_Buf_Subsystem_Onchip_SRAM+0xf7002a88>
    2b08:	80001c16 	blt	r16,zero,2b7c <floor+0x190>
    2b0c:	0510303a 	nor	r8,zero,r20
    2b10:	9821883a 	mov	r16,r19
    2b14:	8a22703a 	and	r17,r17,r8
    2b18:	8805883a 	mov	r2,r17
    2b1c:	8007883a 	mov	r3,r16
    2b20:	003fe106 	br	2aa8 <__alt_mem_VGA_Subsystem_Char_Buf_Subsystem_Onchip_SRAM+0xf7002aa8>
    2b24:	01a20034 	movhi	r6,34816
    2b28:	01df8e34 	movhi	r7,32312
    2b2c:	319d6704 	addi	r6,r6,30108
    2b30:	39f90f04 	addi	r7,r7,-7108
    2b34:	00030900 	call	3090 <__adddf3>
    2b38:	000d883a 	mov	r6,zero
    2b3c:	000f883a 	mov	r7,zero
    2b40:	1009883a 	mov	r4,r2
    2b44:	180b883a 	mov	r5,r3
    2b48:	00039c40 	call	39c4 <__gedf2>
    2b4c:	00bfce0e 	bge	zero,r2,2a88 <__alt_mem_VGA_Subsystem_Char_Buf_Subsystem_Onchip_SRAM+0xf7002a88>
    2b50:	80001516 	blt	r16,zero,2ba8 <floor+0x1bc>
    2b54:	0023883a 	mov	r17,zero
    2b58:	0021883a 	mov	r16,zero
    2b5c:	003fca06 	br	2a88 <__alt_mem_VGA_Subsystem_Char_Buf_Subsystem_Onchip_SRAM+0xf7002a88>
    2b60:	200d883a 	mov	r6,r4
    2b64:	00030900 	call	3090 <__adddf3>
    2b68:	003fcf06 	br	2aa8 <__alt_mem_VGA_Subsystem_Char_Buf_Subsystem_Onchip_SRAM+0xf7002aa8>
    2b6c:	00800434 	movhi	r2,16
    2b70:	14a5d83a 	sra	r18,r2,r18
    2b74:	84a7883a 	add	r19,r16,r18
    2b78:	003fc006 	br	2a7c <__alt_mem_VGA_Subsystem_Char_Buf_Subsystem_Onchip_SRAM+0xf7002a7c>
    2b7c:	00800504 	movi	r2,20
    2b80:	90801326 	beq	r18,r2,2bd0 <floor+0x1e4>
    2b84:	00800d04 	movi	r2,52
    2b88:	14a5c83a 	sub	r18,r2,r18
    2b8c:	00800044 	movi	r2,1
    2b90:	1484983a 	sll	r2,r2,r18
    2b94:	1445883a 	add	r2,r2,r17
    2b98:	14400b2e 	bgeu	r2,r17,2bc8 <floor+0x1dc>
    2b9c:	84c00044 	addi	r19,r16,1
    2ba0:	1023883a 	mov	r17,r2
    2ba4:	003fd906 	br	2b0c <__alt_mem_VGA_Subsystem_Char_Buf_Subsystem_Onchip_SRAM+0xf7002b0c>
    2ba8:	00a00034 	movhi	r2,32768
    2bac:	10bfffc4 	addi	r2,r2,-1
    2bb0:	8084703a 	and	r2,r16,r2
    2bb4:	1462b03a 	or	r17,r2,r17
    2bb8:	883fb326 	beq	r17,zero,2a88 <__alt_mem_VGA_Subsystem_Char_Buf_Subsystem_Onchip_SRAM+0xf7002a88>
    2bbc:	0023883a 	mov	r17,zero
    2bc0:	042ffc34 	movhi	r16,49136
    2bc4:	003fb006 	br	2a88 <__alt_mem_VGA_Subsystem_Char_Buf_Subsystem_Onchip_SRAM+0xf7002a88>
    2bc8:	1023883a 	mov	r17,r2
    2bcc:	003fcf06 	br	2b0c <__alt_mem_VGA_Subsystem_Char_Buf_Subsystem_Onchip_SRAM+0xf7002b0c>
    2bd0:	84c00044 	addi	r19,r16,1
    2bd4:	003fcd06 	br	2b0c <__alt_mem_VGA_Subsystem_Char_Buf_Subsystem_Onchip_SRAM+0xf7002b0c>

00002bd8 <scalbn>:
    2bd8:	2a1ffc2c 	andhi	r8,r5,32752
    2bdc:	4011d53a 	srai	r8,r8,20
    2be0:	defffe04 	addi	sp,sp,-8
    2be4:	dc000015 	stw	r16,0(sp)
    2be8:	dfc00115 	stw	ra,4(sp)
    2bec:	280f883a 	mov	r7,r5
    2bf0:	2015883a 	mov	r10,r4
    2bf4:	3021883a 	mov	r16,r6
    2bf8:	40001e1e 	bne	r8,zero,2c74 <scalbn+0x9c>
    2bfc:	00a00034 	movhi	r2,32768
    2c00:	10bfffc4 	addi	r2,r2,-1
    2c04:	2884703a 	and	r2,r5,r2
    2c08:	1104b03a 	or	r2,r2,r4
    2c0c:	10002226 	beq	r2,zero,2c98 <scalbn+0xc0>
    2c10:	01d0d434 	movhi	r7,17232
    2c14:	000d883a 	mov	r6,zero
    2c18:	0003aa00 	call	3aa0 <__muldf3>
    2c1c:	013ffff4 	movhi	r4,65535
    2c20:	210f2c04 	addi	r4,r4,15536
    2c24:	1015883a 	mov	r10,r2
    2c28:	180f883a 	mov	r7,r3
    2c2c:	81002a16 	blt	r16,r4,2cd8 <scalbn+0x100>
    2c30:	191ffc2c 	andhi	r4,r3,32752
    2c34:	2009d53a 	srai	r4,r4,20
    2c38:	223ff284 	addi	r8,r4,-54
    2c3c:	8211883a 	add	r8,r16,r8
    2c40:	0081ff84 	movi	r2,2046
    2c44:	12002f16 	blt	r2,r8,2d04 <scalbn+0x12c>
    2c48:	0200190e 	bge	zero,r8,2cb0 <scalbn+0xd8>
    2c4c:	4010953a 	slli	r8,r8,20
    2c50:	01600434 	movhi	r5,32784
    2c54:	297fffc4 	addi	r5,r5,-1
    2c58:	194e703a 	and	r7,r3,r5
    2c5c:	5005883a 	mov	r2,r10
    2c60:	3a06b03a 	or	r3,r7,r8
    2c64:	dfc00117 	ldw	ra,4(sp)
    2c68:	dc000017 	ldw	r16,0(sp)
    2c6c:	dec00204 	addi	sp,sp,8
    2c70:	f800283a 	ret
    2c74:	0081ffc4 	movi	r2,2047
    2c78:	2807883a 	mov	r3,r5
    2c7c:	40bfef1e 	bne	r8,r2,2c3c <__alt_mem_VGA_Subsystem_Char_Buf_Subsystem_Onchip_SRAM+0xf7002c3c>
    2c80:	200d883a 	mov	r6,r4
    2c84:	00030900 	call	3090 <__adddf3>
    2c88:	dfc00117 	ldw	ra,4(sp)
    2c8c:	dc000017 	ldw	r16,0(sp)
    2c90:	dec00204 	addi	sp,sp,8
    2c94:	f800283a 	ret
    2c98:	2005883a 	mov	r2,r4
    2c9c:	2807883a 	mov	r3,r5
    2ca0:	dfc00117 	ldw	ra,4(sp)
    2ca4:	dc000017 	ldw	r16,0(sp)
    2ca8:	dec00204 	addi	sp,sp,8
    2cac:	f800283a 	ret
    2cb0:	00bff2c4 	movi	r2,-53
    2cb4:	4080240e 	bge	r8,r2,2d48 <scalbn+0x170>
    2cb8:	00b0d414 	movui	r2,50000
    2cbc:	14001116 	blt	r2,r16,2d04 <scalbn+0x12c>
    2cc0:	0130be74 	movhi	r4,49913
    2cc4:	01406974 	movhi	r5,421
    2cc8:	213cd644 	addi	r4,r4,-3239
    2ccc:	295b87c4 	addi	r5,r5,28191
    2cd0:	500d883a 	mov	r6,r10
    2cd4:	0002d740 	call	2d74 <copysign>
    2cd8:	01b0be74 	movhi	r6,49913
    2cdc:	01c06974 	movhi	r7,421
    2ce0:	31bcd644 	addi	r6,r6,-3239
    2ce4:	39db87c4 	addi	r7,r7,28191
    2ce8:	1009883a 	mov	r4,r2
    2cec:	180b883a 	mov	r5,r3
    2cf0:	0003aa00 	call	3aa0 <__muldf3>
    2cf4:	dfc00117 	ldw	ra,4(sp)
    2cf8:	dc000017 	ldw	r16,0(sp)
    2cfc:	dec00204 	addi	sp,sp,8
    2d00:	f800283a 	ret
    2d04:	01220034 	movhi	r4,34816
    2d08:	015f8e34 	movhi	r5,32312
    2d0c:	500d883a 	mov	r6,r10
    2d10:	211d6704 	addi	r4,r4,30108
    2d14:	29790f04 	addi	r5,r5,-7108
    2d18:	0002d740 	call	2d74 <copysign>
    2d1c:	01a20034 	movhi	r6,34816
    2d20:	01df8e34 	movhi	r7,32312
    2d24:	319d6704 	addi	r6,r6,30108
    2d28:	39f90f04 	addi	r7,r7,-7108
    2d2c:	1009883a 	mov	r4,r2
    2d30:	180b883a 	mov	r5,r3
    2d34:	0003aa00 	call	3aa0 <__muldf3>
    2d38:	dfc00117 	ldw	ra,4(sp)
    2d3c:	dc000017 	ldw	r16,0(sp)
    2d40:	dec00204 	addi	sp,sp,8
    2d44:	f800283a 	ret
    2d48:	42000d84 	addi	r8,r8,54
    2d4c:	4012953a 	slli	r9,r8,20
    2d50:	01e00434 	movhi	r7,32784
    2d54:	39ffffc4 	addi	r7,r7,-1
    2d58:	19ca703a 	and	r5,r3,r7
    2d5c:	000d883a 	mov	r6,zero
    2d60:	01cf2434 	movhi	r7,15504
    2d64:	5009883a 	mov	r4,r10
    2d68:	494ab03a 	or	r5,r9,r5
    2d6c:	0003aa00 	call	3aa0 <__muldf3>
    2d70:	003fbc06 	br	2c64 <__alt_mem_VGA_Subsystem_Char_Buf_Subsystem_Onchip_SRAM+0xf7002c64>

00002d74 <copysign>:
    2d74:	2005883a 	mov	r2,r4
    2d78:	01200034 	movhi	r4,32768
    2d7c:	213fffc4 	addi	r4,r4,-1
    2d80:	38e0002c 	andhi	r3,r7,32768
    2d84:	290a703a 	and	r5,r5,r4
    2d88:	28c6b03a 	or	r3,r5,r3
    2d8c:	f800283a 	ret

00002d90 <__divsi3>:
    2d90:	20001b16 	blt	r4,zero,2e00 <__divsi3+0x70>
    2d94:	000f883a 	mov	r7,zero
    2d98:	28001616 	blt	r5,zero,2df4 <__divsi3+0x64>
    2d9c:	200d883a 	mov	r6,r4
    2da0:	29001a2e 	bgeu	r5,r4,2e0c <__divsi3+0x7c>
    2da4:	00800804 	movi	r2,32
    2da8:	00c00044 	movi	r3,1
    2dac:	00000106 	br	2db4 <__divsi3+0x24>
    2db0:	10000d26 	beq	r2,zero,2de8 <__divsi3+0x58>
    2db4:	294b883a 	add	r5,r5,r5
    2db8:	10bfffc4 	addi	r2,r2,-1
    2dbc:	18c7883a 	add	r3,r3,r3
    2dc0:	293ffb36 	bltu	r5,r4,2db0 <__alt_mem_VGA_Subsystem_Char_Buf_Subsystem_Onchip_SRAM+0xf7002db0>
    2dc4:	0005883a 	mov	r2,zero
    2dc8:	18000726 	beq	r3,zero,2de8 <__divsi3+0x58>
    2dcc:	0005883a 	mov	r2,zero
    2dd0:	31400236 	bltu	r6,r5,2ddc <__divsi3+0x4c>
    2dd4:	314dc83a 	sub	r6,r6,r5
    2dd8:	10c4b03a 	or	r2,r2,r3
    2ddc:	1806d07a 	srli	r3,r3,1
    2de0:	280ad07a 	srli	r5,r5,1
    2de4:	183ffa1e 	bne	r3,zero,2dd0 <__alt_mem_VGA_Subsystem_Char_Buf_Subsystem_Onchip_SRAM+0xf7002dd0>
    2de8:	38000126 	beq	r7,zero,2df0 <__divsi3+0x60>
    2dec:	0085c83a 	sub	r2,zero,r2
    2df0:	f800283a 	ret
    2df4:	014bc83a 	sub	r5,zero,r5
    2df8:	39c0005c 	xori	r7,r7,1
    2dfc:	003fe706 	br	2d9c <__alt_mem_VGA_Subsystem_Char_Buf_Subsystem_Onchip_SRAM+0xf7002d9c>
    2e00:	0109c83a 	sub	r4,zero,r4
    2e04:	01c00044 	movi	r7,1
    2e08:	003fe306 	br	2d98 <__alt_mem_VGA_Subsystem_Char_Buf_Subsystem_Onchip_SRAM+0xf7002d98>
    2e0c:	00c00044 	movi	r3,1
    2e10:	003fee06 	br	2dcc <__alt_mem_VGA_Subsystem_Char_Buf_Subsystem_Onchip_SRAM+0xf7002dcc>

00002e14 <__modsi3>:
    2e14:	20001716 	blt	r4,zero,2e74 <__modsi3+0x60>
    2e18:	000f883a 	mov	r7,zero
    2e1c:	2005883a 	mov	r2,r4
    2e20:	28001216 	blt	r5,zero,2e6c <__modsi3+0x58>
    2e24:	2900162e 	bgeu	r5,r4,2e80 <__modsi3+0x6c>
    2e28:	01800804 	movi	r6,32
    2e2c:	00c00044 	movi	r3,1
    2e30:	00000106 	br	2e38 <__modsi3+0x24>
    2e34:	30000a26 	beq	r6,zero,2e60 <__modsi3+0x4c>
    2e38:	294b883a 	add	r5,r5,r5
    2e3c:	31bfffc4 	addi	r6,r6,-1
    2e40:	18c7883a 	add	r3,r3,r3
    2e44:	293ffb36 	bltu	r5,r4,2e34 <__alt_mem_VGA_Subsystem_Char_Buf_Subsystem_Onchip_SRAM+0xf7002e34>
    2e48:	18000526 	beq	r3,zero,2e60 <__modsi3+0x4c>
    2e4c:	1806d07a 	srli	r3,r3,1
    2e50:	11400136 	bltu	r2,r5,2e58 <__modsi3+0x44>
    2e54:	1145c83a 	sub	r2,r2,r5
    2e58:	280ad07a 	srli	r5,r5,1
    2e5c:	183ffb1e 	bne	r3,zero,2e4c <__alt_mem_VGA_Subsystem_Char_Buf_Subsystem_Onchip_SRAM+0xf7002e4c>
    2e60:	38000126 	beq	r7,zero,2e68 <__modsi3+0x54>
    2e64:	0085c83a 	sub	r2,zero,r2
    2e68:	f800283a 	ret
    2e6c:	014bc83a 	sub	r5,zero,r5
    2e70:	003fec06 	br	2e24 <__alt_mem_VGA_Subsystem_Char_Buf_Subsystem_Onchip_SRAM+0xf7002e24>
    2e74:	0109c83a 	sub	r4,zero,r4
    2e78:	01c00044 	movi	r7,1
    2e7c:	003fe706 	br	2e1c <__alt_mem_VGA_Subsystem_Char_Buf_Subsystem_Onchip_SRAM+0xf7002e1c>
    2e80:	00c00044 	movi	r3,1
    2e84:	003ff106 	br	2e4c <__alt_mem_VGA_Subsystem_Char_Buf_Subsystem_Onchip_SRAM+0xf7002e4c>

00002e88 <__udivsi3>:
    2e88:	200d883a 	mov	r6,r4
    2e8c:	2900152e 	bgeu	r5,r4,2ee4 <__udivsi3+0x5c>
    2e90:	28001416 	blt	r5,zero,2ee4 <__udivsi3+0x5c>
    2e94:	00800804 	movi	r2,32
    2e98:	00c00044 	movi	r3,1
    2e9c:	00000206 	br	2ea8 <__udivsi3+0x20>
    2ea0:	10000e26 	beq	r2,zero,2edc <__udivsi3+0x54>
    2ea4:	28000516 	blt	r5,zero,2ebc <__udivsi3+0x34>
    2ea8:	294b883a 	add	r5,r5,r5
    2eac:	10bfffc4 	addi	r2,r2,-1
    2eb0:	18c7883a 	add	r3,r3,r3
    2eb4:	293ffa36 	bltu	r5,r4,2ea0 <__alt_mem_VGA_Subsystem_Char_Buf_Subsystem_Onchip_SRAM+0xf7002ea0>
    2eb8:	18000826 	beq	r3,zero,2edc <__udivsi3+0x54>
    2ebc:	0005883a 	mov	r2,zero
    2ec0:	31400236 	bltu	r6,r5,2ecc <__udivsi3+0x44>
    2ec4:	314dc83a 	sub	r6,r6,r5
    2ec8:	10c4b03a 	or	r2,r2,r3
    2ecc:	1806d07a 	srli	r3,r3,1
    2ed0:	280ad07a 	srli	r5,r5,1
    2ed4:	183ffa1e 	bne	r3,zero,2ec0 <__alt_mem_VGA_Subsystem_Char_Buf_Subsystem_Onchip_SRAM+0xf7002ec0>
    2ed8:	f800283a 	ret
    2edc:	0005883a 	mov	r2,zero
    2ee0:	f800283a 	ret
    2ee4:	00c00044 	movi	r3,1
    2ee8:	003ff406 	br	2ebc <__alt_mem_VGA_Subsystem_Char_Buf_Subsystem_Onchip_SRAM+0xf7002ebc>

00002eec <__umodsi3>:
    2eec:	2005883a 	mov	r2,r4
    2ef0:	2900122e 	bgeu	r5,r4,2f3c <__umodsi3+0x50>
    2ef4:	28001116 	blt	r5,zero,2f3c <__umodsi3+0x50>
    2ef8:	01800804 	movi	r6,32
    2efc:	00c00044 	movi	r3,1
    2f00:	00000206 	br	2f0c <__umodsi3+0x20>
    2f04:	30000c26 	beq	r6,zero,2f38 <__umodsi3+0x4c>
    2f08:	28000516 	blt	r5,zero,2f20 <__umodsi3+0x34>
    2f0c:	294b883a 	add	r5,r5,r5
    2f10:	31bfffc4 	addi	r6,r6,-1
    2f14:	18c7883a 	add	r3,r3,r3
    2f18:	293ffa36 	bltu	r5,r4,2f04 <__alt_mem_VGA_Subsystem_Char_Buf_Subsystem_Onchip_SRAM+0xf7002f04>
    2f1c:	18000626 	beq	r3,zero,2f38 <__umodsi3+0x4c>
    2f20:	1806d07a 	srli	r3,r3,1
    2f24:	11400136 	bltu	r2,r5,2f2c <__umodsi3+0x40>
    2f28:	1145c83a 	sub	r2,r2,r5
    2f2c:	280ad07a 	srli	r5,r5,1
    2f30:	183ffb1e 	bne	r3,zero,2f20 <__alt_mem_VGA_Subsystem_Char_Buf_Subsystem_Onchip_SRAM+0xf7002f20>
    2f34:	f800283a 	ret
    2f38:	f800283a 	ret
    2f3c:	00c00044 	movi	r3,1
    2f40:	003ff706 	br	2f20 <__alt_mem_VGA_Subsystem_Char_Buf_Subsystem_Onchip_SRAM+0xf7002f20>

00002f44 <__mulsi3>:
    2f44:	0005883a 	mov	r2,zero
    2f48:	20000726 	beq	r4,zero,2f68 <__mulsi3+0x24>
    2f4c:	20c0004c 	andi	r3,r4,1
    2f50:	2008d07a 	srli	r4,r4,1
    2f54:	18000126 	beq	r3,zero,2f5c <__mulsi3+0x18>
    2f58:	1145883a 	add	r2,r2,r5
    2f5c:	294b883a 	add	r5,r5,r5
    2f60:	203ffa1e 	bne	r4,zero,2f4c <__alt_mem_VGA_Subsystem_Char_Buf_Subsystem_Onchip_SRAM+0xf7002f4c>
    2f64:	f800283a 	ret
    2f68:	f800283a 	ret

00002f6c <__floatsisf>:
    2f6c:	defffd04 	addi	sp,sp,-12
    2f70:	dfc00215 	stw	ra,8(sp)
    2f74:	dc400115 	stw	r17,4(sp)
    2f78:	dc000015 	stw	r16,0(sp)
    2f7c:	20003526 	beq	r4,zero,3054 <__floatsisf+0xe8>
    2f80:	2021883a 	mov	r16,r4
    2f84:	2022d7fa 	srli	r17,r4,31
    2f88:	20003616 	blt	r4,zero,3064 <__floatsisf+0xf8>
    2f8c:	8009883a 	mov	r4,r16
    2f90:	0004e740 	call	4e74 <__clzsi2>
    2f94:	00c02784 	movi	r3,158
    2f98:	1887c83a 	sub	r3,r3,r2
    2f9c:	01002584 	movi	r4,150
    2fa0:	20c01416 	blt	r4,r3,2ff4 <__floatsisf+0x88>
    2fa4:	20c9c83a 	sub	r4,r4,r3
    2fa8:	8120983a 	sll	r16,r16,r4
    2fac:	00802034 	movhi	r2,128
    2fb0:	10bfffc4 	addi	r2,r2,-1
    2fb4:	8809883a 	mov	r4,r17
    2fb8:	80a0703a 	and	r16,r16,r2
    2fbc:	18803fcc 	andi	r2,r3,255
    2fc0:	100695fa 	slli	r3,r2,23
    2fc4:	20803fcc 	andi	r2,r4,255
    2fc8:	100897fa 	slli	r4,r2,31
    2fcc:	00802034 	movhi	r2,128
    2fd0:	10bfffc4 	addi	r2,r2,-1
    2fd4:	8084703a 	and	r2,r16,r2
    2fd8:	10c4b03a 	or	r2,r2,r3
    2fdc:	1104b03a 	or	r2,r2,r4
    2fe0:	dfc00217 	ldw	ra,8(sp)
    2fe4:	dc400117 	ldw	r17,4(sp)
    2fe8:	dc000017 	ldw	r16,0(sp)
    2fec:	dec00304 	addi	sp,sp,12
    2ff0:	f800283a 	ret
    2ff4:	01002644 	movi	r4,153
    2ff8:	20c01c16 	blt	r4,r3,306c <__floatsisf+0x100>
    2ffc:	20c9c83a 	sub	r4,r4,r3
    3000:	8120983a 	sll	r16,r16,r4
    3004:	013f0034 	movhi	r4,64512
    3008:	213fffc4 	addi	r4,r4,-1
    300c:	814001cc 	andi	r5,r16,7
    3010:	8108703a 	and	r4,r16,r4
    3014:	28000426 	beq	r5,zero,3028 <__floatsisf+0xbc>
    3018:	840003cc 	andi	r16,r16,15
    301c:	01400104 	movi	r5,4
    3020:	81400126 	beq	r16,r5,3028 <__floatsisf+0xbc>
    3024:	2149883a 	add	r4,r4,r5
    3028:	2141002c 	andhi	r5,r4,1024
    302c:	28000526 	beq	r5,zero,3044 <__floatsisf+0xd8>
    3030:	00c027c4 	movi	r3,159
    3034:	1887c83a 	sub	r3,r3,r2
    3038:	00bf0034 	movhi	r2,64512
    303c:	10bfffc4 	addi	r2,r2,-1
    3040:	2088703a 	and	r4,r4,r2
    3044:	202091ba 	slli	r16,r4,6
    3048:	8809883a 	mov	r4,r17
    304c:	8020d27a 	srli	r16,r16,9
    3050:	003fda06 	br	2fbc <__alt_mem_VGA_Subsystem_Char_Buf_Subsystem_Onchip_SRAM+0xf7002fbc>
    3054:	0009883a 	mov	r4,zero
    3058:	0007883a 	mov	r3,zero
    305c:	0021883a 	mov	r16,zero
    3060:	003fd606 	br	2fbc <__alt_mem_VGA_Subsystem_Char_Buf_Subsystem_Onchip_SRAM+0xf7002fbc>
    3064:	0121c83a 	sub	r16,zero,r4
    3068:	003fc806 	br	2f8c <__alt_mem_VGA_Subsystem_Char_Buf_Subsystem_Onchip_SRAM+0xf7002f8c>
    306c:	01002e44 	movi	r4,185
    3070:	20c9c83a 	sub	r4,r4,r3
    3074:	01400144 	movi	r5,5
    3078:	8108983a 	sll	r4,r16,r4
    307c:	288bc83a 	sub	r5,r5,r2
    3080:	8160d83a 	srl	r16,r16,r5
    3084:	2008c03a 	cmpne	r4,r4,zero
    3088:	8120b03a 	or	r16,r16,r4
    308c:	003fdd06 	br	3004 <__alt_mem_VGA_Subsystem_Char_Buf_Subsystem_Onchip_SRAM+0xf7003004>

00003090 <__adddf3>:
    3090:	02c00434 	movhi	r11,16
    3094:	5affffc4 	addi	r11,r11,-1
    3098:	2806d7fa 	srli	r3,r5,31
    309c:	2ad4703a 	and	r10,r5,r11
    30a0:	3ad2703a 	and	r9,r7,r11
    30a4:	3804d53a 	srli	r2,r7,20
    30a8:	3018d77a 	srli	r12,r6,29
    30ac:	280ad53a 	srli	r5,r5,20
    30b0:	501490fa 	slli	r10,r10,3
    30b4:	2010d77a 	srli	r8,r4,29
    30b8:	481290fa 	slli	r9,r9,3
    30bc:	380ed7fa 	srli	r7,r7,31
    30c0:	defffb04 	addi	sp,sp,-20
    30c4:	dc800215 	stw	r18,8(sp)
    30c8:	dc400115 	stw	r17,4(sp)
    30cc:	dc000015 	stw	r16,0(sp)
    30d0:	dfc00415 	stw	ra,16(sp)
    30d4:	dcc00315 	stw	r19,12(sp)
    30d8:	1c803fcc 	andi	r18,r3,255
    30dc:	2c01ffcc 	andi	r16,r5,2047
    30e0:	5210b03a 	or	r8,r10,r8
    30e4:	202290fa 	slli	r17,r4,3
    30e8:	1081ffcc 	andi	r2,r2,2047
    30ec:	4b12b03a 	or	r9,r9,r12
    30f0:	300c90fa 	slli	r6,r6,3
    30f4:	91c07526 	beq	r18,r7,32cc <__adddf3+0x23c>
    30f8:	8087c83a 	sub	r3,r16,r2
    30fc:	00c0ab0e 	bge	zero,r3,33ac <__adddf3+0x31c>
    3100:	10002a1e 	bne	r2,zero,31ac <__adddf3+0x11c>
    3104:	4984b03a 	or	r2,r9,r6
    3108:	1000961e 	bne	r2,zero,3364 <__adddf3+0x2d4>
    310c:	888001cc 	andi	r2,r17,7
    3110:	10000726 	beq	r2,zero,3130 <__adddf3+0xa0>
    3114:	888003cc 	andi	r2,r17,15
    3118:	00c00104 	movi	r3,4
    311c:	10c00426 	beq	r2,r3,3130 <__adddf3+0xa0>
    3120:	88c7883a 	add	r3,r17,r3
    3124:	1c63803a 	cmpltu	r17,r3,r17
    3128:	4451883a 	add	r8,r8,r17
    312c:	1823883a 	mov	r17,r3
    3130:	4080202c 	andhi	r2,r8,128
    3134:	10005926 	beq	r2,zero,329c <__adddf3+0x20c>
    3138:	84000044 	addi	r16,r16,1
    313c:	0081ffc4 	movi	r2,2047
    3140:	8080ba26 	beq	r16,r2,342c <__adddf3+0x39c>
    3144:	00bfe034 	movhi	r2,65408
    3148:	10bfffc4 	addi	r2,r2,-1
    314c:	4090703a 	and	r8,r8,r2
    3150:	4004977a 	slli	r2,r8,29
    3154:	4010927a 	slli	r8,r8,9
    3158:	8822d0fa 	srli	r17,r17,3
    315c:	8401ffcc 	andi	r16,r16,2047
    3160:	4010d33a 	srli	r8,r8,12
    3164:	9007883a 	mov	r3,r18
    3168:	1444b03a 	or	r2,r2,r17
    316c:	8401ffcc 	andi	r16,r16,2047
    3170:	8020953a 	slli	r16,r16,20
    3174:	18c03fcc 	andi	r3,r3,255
    3178:	01000434 	movhi	r4,16
    317c:	213fffc4 	addi	r4,r4,-1
    3180:	180697fa 	slli	r3,r3,31
    3184:	4110703a 	and	r8,r8,r4
    3188:	4410b03a 	or	r8,r8,r16
    318c:	40c6b03a 	or	r3,r8,r3
    3190:	dfc00417 	ldw	ra,16(sp)
    3194:	dcc00317 	ldw	r19,12(sp)
    3198:	dc800217 	ldw	r18,8(sp)
    319c:	dc400117 	ldw	r17,4(sp)
    31a0:	dc000017 	ldw	r16,0(sp)
    31a4:	dec00504 	addi	sp,sp,20
    31a8:	f800283a 	ret
    31ac:	0081ffc4 	movi	r2,2047
    31b0:	80bfd626 	beq	r16,r2,310c <__alt_mem_VGA_Subsystem_Char_Buf_Subsystem_Onchip_SRAM+0xf700310c>
    31b4:	4a402034 	orhi	r9,r9,128
    31b8:	00800e04 	movi	r2,56
    31bc:	10c09f16 	blt	r2,r3,343c <__adddf3+0x3ac>
    31c0:	008007c4 	movi	r2,31
    31c4:	10c0c216 	blt	r2,r3,34d0 <__adddf3+0x440>
    31c8:	00800804 	movi	r2,32
    31cc:	10c5c83a 	sub	r2,r2,r3
    31d0:	488a983a 	sll	r5,r9,r2
    31d4:	30c8d83a 	srl	r4,r6,r3
    31d8:	3084983a 	sll	r2,r6,r2
    31dc:	48c6d83a 	srl	r3,r9,r3
    31e0:	290cb03a 	or	r6,r5,r4
    31e4:	1004c03a 	cmpne	r2,r2,zero
    31e8:	308cb03a 	or	r6,r6,r2
    31ec:	898dc83a 	sub	r6,r17,r6
    31f0:	89a3803a 	cmpltu	r17,r17,r6
    31f4:	40d1c83a 	sub	r8,r8,r3
    31f8:	4451c83a 	sub	r8,r8,r17
    31fc:	3023883a 	mov	r17,r6
    3200:	4080202c 	andhi	r2,r8,128
    3204:	10002326 	beq	r2,zero,3294 <__adddf3+0x204>
    3208:	04c02034 	movhi	r19,128
    320c:	9cffffc4 	addi	r19,r19,-1
    3210:	44e6703a 	and	r19,r8,r19
    3214:	98007626 	beq	r19,zero,33f0 <__adddf3+0x360>
    3218:	9809883a 	mov	r4,r19
    321c:	0004e740 	call	4e74 <__clzsi2>
    3220:	10fffe04 	addi	r3,r2,-8
    3224:	010007c4 	movi	r4,31
    3228:	20c07716 	blt	r4,r3,3408 <__adddf3+0x378>
    322c:	00800804 	movi	r2,32
    3230:	10c5c83a 	sub	r2,r2,r3
    3234:	8884d83a 	srl	r2,r17,r2
    3238:	98d0983a 	sll	r8,r19,r3
    323c:	88e2983a 	sll	r17,r17,r3
    3240:	1204b03a 	or	r2,r2,r8
    3244:	1c007416 	blt	r3,r16,3418 <__adddf3+0x388>
    3248:	1c21c83a 	sub	r16,r3,r16
    324c:	82000044 	addi	r8,r16,1
    3250:	00c007c4 	movi	r3,31
    3254:	1a009116 	blt	r3,r8,349c <__adddf3+0x40c>
    3258:	00c00804 	movi	r3,32
    325c:	1a07c83a 	sub	r3,r3,r8
    3260:	8a08d83a 	srl	r4,r17,r8
    3264:	88e2983a 	sll	r17,r17,r3
    3268:	10c6983a 	sll	r3,r2,r3
    326c:	1210d83a 	srl	r8,r2,r8
    3270:	8804c03a 	cmpne	r2,r17,zero
    3274:	1906b03a 	or	r3,r3,r4
    3278:	18a2b03a 	or	r17,r3,r2
    327c:	0021883a 	mov	r16,zero
    3280:	003fa206 	br	310c <__alt_mem_VGA_Subsystem_Char_Buf_Subsystem_Onchip_SRAM+0xf700310c>
    3284:	1890b03a 	or	r8,r3,r2
    3288:	40017d26 	beq	r8,zero,3880 <__adddf3+0x7f0>
    328c:	1011883a 	mov	r8,r2
    3290:	1823883a 	mov	r17,r3
    3294:	888001cc 	andi	r2,r17,7
    3298:	103f9e1e 	bne	r2,zero,3114 <__alt_mem_VGA_Subsystem_Char_Buf_Subsystem_Onchip_SRAM+0xf7003114>
    329c:	4004977a 	slli	r2,r8,29
    32a0:	8822d0fa 	srli	r17,r17,3
    32a4:	4010d0fa 	srli	r8,r8,3
    32a8:	9007883a 	mov	r3,r18
    32ac:	1444b03a 	or	r2,r2,r17
    32b0:	0101ffc4 	movi	r4,2047
    32b4:	81002426 	beq	r16,r4,3348 <__adddf3+0x2b8>
    32b8:	8120703a 	and	r16,r16,r4
    32bc:	01000434 	movhi	r4,16
    32c0:	213fffc4 	addi	r4,r4,-1
    32c4:	4110703a 	and	r8,r8,r4
    32c8:	003fa806 	br	316c <__alt_mem_VGA_Subsystem_Char_Buf_Subsystem_Onchip_SRAM+0xf700316c>
    32cc:	8089c83a 	sub	r4,r16,r2
    32d0:	01005e0e 	bge	zero,r4,344c <__adddf3+0x3bc>
    32d4:	10002b26 	beq	r2,zero,3384 <__adddf3+0x2f4>
    32d8:	0081ffc4 	movi	r2,2047
    32dc:	80bf8b26 	beq	r16,r2,310c <__alt_mem_VGA_Subsystem_Char_Buf_Subsystem_Onchip_SRAM+0xf700310c>
    32e0:	4a402034 	orhi	r9,r9,128
    32e4:	00800e04 	movi	r2,56
    32e8:	1100a40e 	bge	r2,r4,357c <__adddf3+0x4ec>
    32ec:	498cb03a 	or	r6,r9,r6
    32f0:	300ac03a 	cmpne	r5,r6,zero
    32f4:	0013883a 	mov	r9,zero
    32f8:	2c4b883a 	add	r5,r5,r17
    32fc:	2c63803a 	cmpltu	r17,r5,r17
    3300:	4a11883a 	add	r8,r9,r8
    3304:	8a11883a 	add	r8,r17,r8
    3308:	2823883a 	mov	r17,r5
    330c:	4080202c 	andhi	r2,r8,128
    3310:	103fe026 	beq	r2,zero,3294 <__alt_mem_VGA_Subsystem_Char_Buf_Subsystem_Onchip_SRAM+0xf7003294>
    3314:	84000044 	addi	r16,r16,1
    3318:	0081ffc4 	movi	r2,2047
    331c:	8080d226 	beq	r16,r2,3668 <__adddf3+0x5d8>
    3320:	00bfe034 	movhi	r2,65408
    3324:	10bfffc4 	addi	r2,r2,-1
    3328:	4090703a 	and	r8,r8,r2
    332c:	880ad07a 	srli	r5,r17,1
    3330:	400897fa 	slli	r4,r8,31
    3334:	88c0004c 	andi	r3,r17,1
    3338:	28e2b03a 	or	r17,r5,r3
    333c:	4010d07a 	srli	r8,r8,1
    3340:	2462b03a 	or	r17,r4,r17
    3344:	003f7106 	br	310c <__alt_mem_VGA_Subsystem_Char_Buf_Subsystem_Onchip_SRAM+0xf700310c>
    3348:	4088b03a 	or	r4,r8,r2
    334c:	20014526 	beq	r4,zero,3864 <__adddf3+0x7d4>
    3350:	01000434 	movhi	r4,16
    3354:	42000234 	orhi	r8,r8,8
    3358:	213fffc4 	addi	r4,r4,-1
    335c:	4110703a 	and	r8,r8,r4
    3360:	003f8206 	br	316c <__alt_mem_VGA_Subsystem_Char_Buf_Subsystem_Onchip_SRAM+0xf700316c>
    3364:	18ffffc4 	addi	r3,r3,-1
    3368:	1800491e 	bne	r3,zero,3490 <__adddf3+0x400>
    336c:	898bc83a 	sub	r5,r17,r6
    3370:	8963803a 	cmpltu	r17,r17,r5
    3374:	4251c83a 	sub	r8,r8,r9
    3378:	4451c83a 	sub	r8,r8,r17
    337c:	2823883a 	mov	r17,r5
    3380:	003f9f06 	br	3200 <__alt_mem_VGA_Subsystem_Char_Buf_Subsystem_Onchip_SRAM+0xf7003200>
    3384:	4984b03a 	or	r2,r9,r6
    3388:	103f6026 	beq	r2,zero,310c <__alt_mem_VGA_Subsystem_Char_Buf_Subsystem_Onchip_SRAM+0xf700310c>
    338c:	213fffc4 	addi	r4,r4,-1
    3390:	2000931e 	bne	r4,zero,35e0 <__adddf3+0x550>
    3394:	898d883a 	add	r6,r17,r6
    3398:	3463803a 	cmpltu	r17,r6,r17
    339c:	4251883a 	add	r8,r8,r9
    33a0:	8a11883a 	add	r8,r17,r8
    33a4:	3023883a 	mov	r17,r6
    33a8:	003fd806 	br	330c <__alt_mem_VGA_Subsystem_Char_Buf_Subsystem_Onchip_SRAM+0xf700330c>
    33ac:	1800541e 	bne	r3,zero,3500 <__adddf3+0x470>
    33b0:	80800044 	addi	r2,r16,1
    33b4:	1081ffcc 	andi	r2,r2,2047
    33b8:	00c00044 	movi	r3,1
    33bc:	1880a00e 	bge	r3,r2,3640 <__adddf3+0x5b0>
    33c0:	8989c83a 	sub	r4,r17,r6
    33c4:	8905803a 	cmpltu	r2,r17,r4
    33c8:	4267c83a 	sub	r19,r8,r9
    33cc:	98a7c83a 	sub	r19,r19,r2
    33d0:	9880202c 	andhi	r2,r19,128
    33d4:	10006326 	beq	r2,zero,3564 <__adddf3+0x4d4>
    33d8:	3463c83a 	sub	r17,r6,r17
    33dc:	4a07c83a 	sub	r3,r9,r8
    33e0:	344d803a 	cmpltu	r6,r6,r17
    33e4:	19a7c83a 	sub	r19,r3,r6
    33e8:	3825883a 	mov	r18,r7
    33ec:	983f8a1e 	bne	r19,zero,3218 <__alt_mem_VGA_Subsystem_Char_Buf_Subsystem_Onchip_SRAM+0xf7003218>
    33f0:	8809883a 	mov	r4,r17
    33f4:	0004e740 	call	4e74 <__clzsi2>
    33f8:	10800804 	addi	r2,r2,32
    33fc:	10fffe04 	addi	r3,r2,-8
    3400:	010007c4 	movi	r4,31
    3404:	20ff890e 	bge	r4,r3,322c <__alt_mem_VGA_Subsystem_Char_Buf_Subsystem_Onchip_SRAM+0xf700322c>
    3408:	10bff604 	addi	r2,r2,-40
    340c:	8884983a 	sll	r2,r17,r2
    3410:	0023883a 	mov	r17,zero
    3414:	1c3f8c0e 	bge	r3,r16,3248 <__alt_mem_VGA_Subsystem_Char_Buf_Subsystem_Onchip_SRAM+0xf7003248>
    3418:	023fe034 	movhi	r8,65408
    341c:	423fffc4 	addi	r8,r8,-1
    3420:	80e1c83a 	sub	r16,r16,r3
    3424:	1210703a 	and	r8,r2,r8
    3428:	003f3806 	br	310c <__alt_mem_VGA_Subsystem_Char_Buf_Subsystem_Onchip_SRAM+0xf700310c>
    342c:	9007883a 	mov	r3,r18
    3430:	0011883a 	mov	r8,zero
    3434:	0005883a 	mov	r2,zero
    3438:	003f4c06 	br	316c <__alt_mem_VGA_Subsystem_Char_Buf_Subsystem_Onchip_SRAM+0xf700316c>
    343c:	498cb03a 	or	r6,r9,r6
    3440:	300cc03a 	cmpne	r6,r6,zero
    3444:	0007883a 	mov	r3,zero
    3448:	003f6806 	br	31ec <__alt_mem_VGA_Subsystem_Char_Buf_Subsystem_Onchip_SRAM+0xf70031ec>
    344c:	20009c1e 	bne	r4,zero,36c0 <__adddf3+0x630>
    3450:	80800044 	addi	r2,r16,1
    3454:	1141ffcc 	andi	r5,r2,2047
    3458:	01000044 	movi	r4,1
    345c:	2140670e 	bge	r4,r5,35fc <__adddf3+0x56c>
    3460:	0101ffc4 	movi	r4,2047
    3464:	11007f26 	beq	r2,r4,3664 <__adddf3+0x5d4>
    3468:	898d883a 	add	r6,r17,r6
    346c:	4247883a 	add	r3,r8,r9
    3470:	3451803a 	cmpltu	r8,r6,r17
    3474:	40d1883a 	add	r8,r8,r3
    3478:	402297fa 	slli	r17,r8,31
    347c:	300cd07a 	srli	r6,r6,1
    3480:	4010d07a 	srli	r8,r8,1
    3484:	1021883a 	mov	r16,r2
    3488:	89a2b03a 	or	r17,r17,r6
    348c:	003f1f06 	br	310c <__alt_mem_VGA_Subsystem_Char_Buf_Subsystem_Onchip_SRAM+0xf700310c>
    3490:	0081ffc4 	movi	r2,2047
    3494:	80bf481e 	bne	r16,r2,31b8 <__alt_mem_VGA_Subsystem_Char_Buf_Subsystem_Onchip_SRAM+0xf70031b8>
    3498:	003f1c06 	br	310c <__alt_mem_VGA_Subsystem_Char_Buf_Subsystem_Onchip_SRAM+0xf700310c>
    349c:	843ff844 	addi	r16,r16,-31
    34a0:	01000804 	movi	r4,32
    34a4:	1406d83a 	srl	r3,r2,r16
    34a8:	41005026 	beq	r8,r4,35ec <__adddf3+0x55c>
    34ac:	01001004 	movi	r4,64
    34b0:	2211c83a 	sub	r8,r4,r8
    34b4:	1204983a 	sll	r2,r2,r8
    34b8:	88a2b03a 	or	r17,r17,r2
    34bc:	8822c03a 	cmpne	r17,r17,zero
    34c0:	1c62b03a 	or	r17,r3,r17
    34c4:	0011883a 	mov	r8,zero
    34c8:	0021883a 	mov	r16,zero
    34cc:	003f7106 	br	3294 <__alt_mem_VGA_Subsystem_Char_Buf_Subsystem_Onchip_SRAM+0xf7003294>
    34d0:	193ff804 	addi	r4,r3,-32
    34d4:	00800804 	movi	r2,32
    34d8:	4908d83a 	srl	r4,r9,r4
    34dc:	18804526 	beq	r3,r2,35f4 <__adddf3+0x564>
    34e0:	00801004 	movi	r2,64
    34e4:	10c5c83a 	sub	r2,r2,r3
    34e8:	4886983a 	sll	r3,r9,r2
    34ec:	198cb03a 	or	r6,r3,r6
    34f0:	300cc03a 	cmpne	r6,r6,zero
    34f4:	218cb03a 	or	r6,r4,r6
    34f8:	0007883a 	mov	r3,zero
    34fc:	003f3b06 	br	31ec <__alt_mem_VGA_Subsystem_Char_Buf_Subsystem_Onchip_SRAM+0xf70031ec>
    3500:	80002a26 	beq	r16,zero,35ac <__adddf3+0x51c>
    3504:	0101ffc4 	movi	r4,2047
    3508:	11006826 	beq	r2,r4,36ac <__adddf3+0x61c>
    350c:	00c7c83a 	sub	r3,zero,r3
    3510:	42002034 	orhi	r8,r8,128
    3514:	01000e04 	movi	r4,56
    3518:	20c07c16 	blt	r4,r3,370c <__adddf3+0x67c>
    351c:	010007c4 	movi	r4,31
    3520:	20c0da16 	blt	r4,r3,388c <__adddf3+0x7fc>
    3524:	01000804 	movi	r4,32
    3528:	20c9c83a 	sub	r4,r4,r3
    352c:	4114983a 	sll	r10,r8,r4
    3530:	88cad83a 	srl	r5,r17,r3
    3534:	8908983a 	sll	r4,r17,r4
    3538:	40c6d83a 	srl	r3,r8,r3
    353c:	5162b03a 	or	r17,r10,r5
    3540:	2008c03a 	cmpne	r4,r4,zero
    3544:	8922b03a 	or	r17,r17,r4
    3548:	3463c83a 	sub	r17,r6,r17
    354c:	48c7c83a 	sub	r3,r9,r3
    3550:	344d803a 	cmpltu	r6,r6,r17
    3554:	1991c83a 	sub	r8,r3,r6
    3558:	1021883a 	mov	r16,r2
    355c:	3825883a 	mov	r18,r7
    3560:	003f2706 	br	3200 <__alt_mem_VGA_Subsystem_Char_Buf_Subsystem_Onchip_SRAM+0xf7003200>
    3564:	24d0b03a 	or	r8,r4,r19
    3568:	40001b1e 	bne	r8,zero,35d8 <__adddf3+0x548>
    356c:	0005883a 	mov	r2,zero
    3570:	0007883a 	mov	r3,zero
    3574:	0021883a 	mov	r16,zero
    3578:	003f4d06 	br	32b0 <__alt_mem_VGA_Subsystem_Char_Buf_Subsystem_Onchip_SRAM+0xf70032b0>
    357c:	008007c4 	movi	r2,31
    3580:	11003c16 	blt	r2,r4,3674 <__adddf3+0x5e4>
    3584:	00800804 	movi	r2,32
    3588:	1105c83a 	sub	r2,r2,r4
    358c:	488e983a 	sll	r7,r9,r2
    3590:	310ad83a 	srl	r5,r6,r4
    3594:	3084983a 	sll	r2,r6,r2
    3598:	4912d83a 	srl	r9,r9,r4
    359c:	394ab03a 	or	r5,r7,r5
    35a0:	1004c03a 	cmpne	r2,r2,zero
    35a4:	288ab03a 	or	r5,r5,r2
    35a8:	003f5306 	br	32f8 <__alt_mem_VGA_Subsystem_Char_Buf_Subsystem_Onchip_SRAM+0xf70032f8>
    35ac:	4448b03a 	or	r4,r8,r17
    35b0:	20003e26 	beq	r4,zero,36ac <__adddf3+0x61c>
    35b4:	00c6303a 	nor	r3,zero,r3
    35b8:	18003a1e 	bne	r3,zero,36a4 <__adddf3+0x614>
    35bc:	3463c83a 	sub	r17,r6,r17
    35c0:	4a07c83a 	sub	r3,r9,r8
    35c4:	344d803a 	cmpltu	r6,r6,r17
    35c8:	1991c83a 	sub	r8,r3,r6
    35cc:	1021883a 	mov	r16,r2
    35d0:	3825883a 	mov	r18,r7
    35d4:	003f0a06 	br	3200 <__alt_mem_VGA_Subsystem_Char_Buf_Subsystem_Onchip_SRAM+0xf7003200>
    35d8:	2023883a 	mov	r17,r4
    35dc:	003f0d06 	br	3214 <__alt_mem_VGA_Subsystem_Char_Buf_Subsystem_Onchip_SRAM+0xf7003214>
    35e0:	0081ffc4 	movi	r2,2047
    35e4:	80bf3f1e 	bne	r16,r2,32e4 <__alt_mem_VGA_Subsystem_Char_Buf_Subsystem_Onchip_SRAM+0xf70032e4>
    35e8:	003ec806 	br	310c <__alt_mem_VGA_Subsystem_Char_Buf_Subsystem_Onchip_SRAM+0xf700310c>
    35ec:	0005883a 	mov	r2,zero
    35f0:	003fb106 	br	34b8 <__alt_mem_VGA_Subsystem_Char_Buf_Subsystem_Onchip_SRAM+0xf70034b8>
    35f4:	0007883a 	mov	r3,zero
    35f8:	003fbc06 	br	34ec <__alt_mem_VGA_Subsystem_Char_Buf_Subsystem_Onchip_SRAM+0xf70034ec>
    35fc:	4444b03a 	or	r2,r8,r17
    3600:	8000871e 	bne	r16,zero,3820 <__adddf3+0x790>
    3604:	1000ba26 	beq	r2,zero,38f0 <__adddf3+0x860>
    3608:	4984b03a 	or	r2,r9,r6
    360c:	103ebf26 	beq	r2,zero,310c <__alt_mem_VGA_Subsystem_Char_Buf_Subsystem_Onchip_SRAM+0xf700310c>
    3610:	8985883a 	add	r2,r17,r6
    3614:	4247883a 	add	r3,r8,r9
    3618:	1451803a 	cmpltu	r8,r2,r17
    361c:	40d1883a 	add	r8,r8,r3
    3620:	40c0202c 	andhi	r3,r8,128
    3624:	1023883a 	mov	r17,r2
    3628:	183f1a26 	beq	r3,zero,3294 <__alt_mem_VGA_Subsystem_Char_Buf_Subsystem_Onchip_SRAM+0xf7003294>
    362c:	00bfe034 	movhi	r2,65408
    3630:	10bfffc4 	addi	r2,r2,-1
    3634:	2021883a 	mov	r16,r4
    3638:	4090703a 	and	r8,r8,r2
    363c:	003eb306 	br	310c <__alt_mem_VGA_Subsystem_Char_Buf_Subsystem_Onchip_SRAM+0xf700310c>
    3640:	4444b03a 	or	r2,r8,r17
    3644:	8000291e 	bne	r16,zero,36ec <__adddf3+0x65c>
    3648:	10004b1e 	bne	r2,zero,3778 <__adddf3+0x6e8>
    364c:	4990b03a 	or	r8,r9,r6
    3650:	40008b26 	beq	r8,zero,3880 <__adddf3+0x7f0>
    3654:	4811883a 	mov	r8,r9
    3658:	3023883a 	mov	r17,r6
    365c:	3825883a 	mov	r18,r7
    3660:	003eaa06 	br	310c <__alt_mem_VGA_Subsystem_Char_Buf_Subsystem_Onchip_SRAM+0xf700310c>
    3664:	1021883a 	mov	r16,r2
    3668:	0011883a 	mov	r8,zero
    366c:	0005883a 	mov	r2,zero
    3670:	003f0f06 	br	32b0 <__alt_mem_VGA_Subsystem_Char_Buf_Subsystem_Onchip_SRAM+0xf70032b0>
    3674:	217ff804 	addi	r5,r4,-32
    3678:	00800804 	movi	r2,32
    367c:	494ad83a 	srl	r5,r9,r5
    3680:	20807d26 	beq	r4,r2,3878 <__adddf3+0x7e8>
    3684:	00801004 	movi	r2,64
    3688:	1109c83a 	sub	r4,r2,r4
    368c:	4912983a 	sll	r9,r9,r4
    3690:	498cb03a 	or	r6,r9,r6
    3694:	300cc03a 	cmpne	r6,r6,zero
    3698:	298ab03a 	or	r5,r5,r6
    369c:	0013883a 	mov	r9,zero
    36a0:	003f1506 	br	32f8 <__alt_mem_VGA_Subsystem_Char_Buf_Subsystem_Onchip_SRAM+0xf70032f8>
    36a4:	0101ffc4 	movi	r4,2047
    36a8:	113f9a1e 	bne	r2,r4,3514 <__alt_mem_VGA_Subsystem_Char_Buf_Subsystem_Onchip_SRAM+0xf7003514>
    36ac:	4811883a 	mov	r8,r9
    36b0:	3023883a 	mov	r17,r6
    36b4:	1021883a 	mov	r16,r2
    36b8:	3825883a 	mov	r18,r7
    36bc:	003e9306 	br	310c <__alt_mem_VGA_Subsystem_Char_Buf_Subsystem_Onchip_SRAM+0xf700310c>
    36c0:	8000161e 	bne	r16,zero,371c <__adddf3+0x68c>
    36c4:	444ab03a 	or	r5,r8,r17
    36c8:	28005126 	beq	r5,zero,3810 <__adddf3+0x780>
    36cc:	0108303a 	nor	r4,zero,r4
    36d0:	20004d1e 	bne	r4,zero,3808 <__adddf3+0x778>
    36d4:	89a3883a 	add	r17,r17,r6
    36d8:	4253883a 	add	r9,r8,r9
    36dc:	898d803a 	cmpltu	r6,r17,r6
    36e0:	3251883a 	add	r8,r6,r9
    36e4:	1021883a 	mov	r16,r2
    36e8:	003f0806 	br	330c <__alt_mem_VGA_Subsystem_Char_Buf_Subsystem_Onchip_SRAM+0xf700330c>
    36ec:	1000301e 	bne	r2,zero,37b0 <__adddf3+0x720>
    36f0:	4984b03a 	or	r2,r9,r6
    36f4:	10007126 	beq	r2,zero,38bc <__adddf3+0x82c>
    36f8:	4811883a 	mov	r8,r9
    36fc:	3023883a 	mov	r17,r6
    3700:	3825883a 	mov	r18,r7
    3704:	0401ffc4 	movi	r16,2047
    3708:	003e8006 	br	310c <__alt_mem_VGA_Subsystem_Char_Buf_Subsystem_Onchip_SRAM+0xf700310c>
    370c:	4462b03a 	or	r17,r8,r17
    3710:	8822c03a 	cmpne	r17,r17,zero
    3714:	0007883a 	mov	r3,zero
    3718:	003f8b06 	br	3548 <__alt_mem_VGA_Subsystem_Char_Buf_Subsystem_Onchip_SRAM+0xf7003548>
    371c:	0141ffc4 	movi	r5,2047
    3720:	11403b26 	beq	r2,r5,3810 <__adddf3+0x780>
    3724:	0109c83a 	sub	r4,zero,r4
    3728:	42002034 	orhi	r8,r8,128
    372c:	01400e04 	movi	r5,56
    3730:	29006716 	blt	r5,r4,38d0 <__adddf3+0x840>
    3734:	014007c4 	movi	r5,31
    3738:	29007016 	blt	r5,r4,38fc <__adddf3+0x86c>
    373c:	01400804 	movi	r5,32
    3740:	290bc83a 	sub	r5,r5,r4
    3744:	4154983a 	sll	r10,r8,r5
    3748:	890ed83a 	srl	r7,r17,r4
    374c:	894a983a 	sll	r5,r17,r5
    3750:	4108d83a 	srl	r4,r8,r4
    3754:	51e2b03a 	or	r17,r10,r7
    3758:	280ac03a 	cmpne	r5,r5,zero
    375c:	8962b03a 	or	r17,r17,r5
    3760:	89a3883a 	add	r17,r17,r6
    3764:	2253883a 	add	r9,r4,r9
    3768:	898d803a 	cmpltu	r6,r17,r6
    376c:	3251883a 	add	r8,r6,r9
    3770:	1021883a 	mov	r16,r2
    3774:	003ee506 	br	330c <__alt_mem_VGA_Subsystem_Char_Buf_Subsystem_Onchip_SRAM+0xf700330c>
    3778:	4984b03a 	or	r2,r9,r6
    377c:	103e6326 	beq	r2,zero,310c <__alt_mem_VGA_Subsystem_Char_Buf_Subsystem_Onchip_SRAM+0xf700310c>
    3780:	8987c83a 	sub	r3,r17,r6
    3784:	88c9803a 	cmpltu	r4,r17,r3
    3788:	4245c83a 	sub	r2,r8,r9
    378c:	1105c83a 	sub	r2,r2,r4
    3790:	1100202c 	andhi	r4,r2,128
    3794:	203ebb26 	beq	r4,zero,3284 <__alt_mem_VGA_Subsystem_Char_Buf_Subsystem_Onchip_SRAM+0xf7003284>
    3798:	3463c83a 	sub	r17,r6,r17
    379c:	4a07c83a 	sub	r3,r9,r8
    37a0:	344d803a 	cmpltu	r6,r6,r17
    37a4:	1991c83a 	sub	r8,r3,r6
    37a8:	3825883a 	mov	r18,r7
    37ac:	003e5706 	br	310c <__alt_mem_VGA_Subsystem_Char_Buf_Subsystem_Onchip_SRAM+0xf700310c>
    37b0:	4984b03a 	or	r2,r9,r6
    37b4:	10002e26 	beq	r2,zero,3870 <__adddf3+0x7e0>
    37b8:	4004d0fa 	srli	r2,r8,3
    37bc:	8822d0fa 	srli	r17,r17,3
    37c0:	4010977a 	slli	r8,r8,29
    37c4:	10c0022c 	andhi	r3,r2,8
    37c8:	4462b03a 	or	r17,r8,r17
    37cc:	18000826 	beq	r3,zero,37f0 <__adddf3+0x760>
    37d0:	4808d0fa 	srli	r4,r9,3
    37d4:	20c0022c 	andhi	r3,r4,8
    37d8:	1800051e 	bne	r3,zero,37f0 <__adddf3+0x760>
    37dc:	300cd0fa 	srli	r6,r6,3
    37e0:	4806977a 	slli	r3,r9,29
    37e4:	2005883a 	mov	r2,r4
    37e8:	3825883a 	mov	r18,r7
    37ec:	19a2b03a 	or	r17,r3,r6
    37f0:	8810d77a 	srli	r8,r17,29
    37f4:	100490fa 	slli	r2,r2,3
    37f8:	882290fa 	slli	r17,r17,3
    37fc:	0401ffc4 	movi	r16,2047
    3800:	4090b03a 	or	r8,r8,r2
    3804:	003e4106 	br	310c <__alt_mem_VGA_Subsystem_Char_Buf_Subsystem_Onchip_SRAM+0xf700310c>
    3808:	0141ffc4 	movi	r5,2047
    380c:	117fc71e 	bne	r2,r5,372c <__alt_mem_VGA_Subsystem_Char_Buf_Subsystem_Onchip_SRAM+0xf700372c>
    3810:	4811883a 	mov	r8,r9
    3814:	3023883a 	mov	r17,r6
    3818:	1021883a 	mov	r16,r2
    381c:	003e3b06 	br	310c <__alt_mem_VGA_Subsystem_Char_Buf_Subsystem_Onchip_SRAM+0xf700310c>
    3820:	10002f26 	beq	r2,zero,38e0 <__adddf3+0x850>
    3824:	4984b03a 	or	r2,r9,r6
    3828:	10001126 	beq	r2,zero,3870 <__adddf3+0x7e0>
    382c:	4004d0fa 	srli	r2,r8,3
    3830:	8822d0fa 	srli	r17,r17,3
    3834:	4010977a 	slli	r8,r8,29
    3838:	10c0022c 	andhi	r3,r2,8
    383c:	4462b03a 	or	r17,r8,r17
    3840:	183feb26 	beq	r3,zero,37f0 <__alt_mem_VGA_Subsystem_Char_Buf_Subsystem_Onchip_SRAM+0xf70037f0>
    3844:	4808d0fa 	srli	r4,r9,3
    3848:	20c0022c 	andhi	r3,r4,8
    384c:	183fe81e 	bne	r3,zero,37f0 <__alt_mem_VGA_Subsystem_Char_Buf_Subsystem_Onchip_SRAM+0xf70037f0>
    3850:	300cd0fa 	srli	r6,r6,3
    3854:	4806977a 	slli	r3,r9,29
    3858:	2005883a 	mov	r2,r4
    385c:	19a2b03a 	or	r17,r3,r6
    3860:	003fe306 	br	37f0 <__alt_mem_VGA_Subsystem_Char_Buf_Subsystem_Onchip_SRAM+0xf70037f0>
    3864:	0011883a 	mov	r8,zero
    3868:	0005883a 	mov	r2,zero
    386c:	003e3f06 	br	316c <__alt_mem_VGA_Subsystem_Char_Buf_Subsystem_Onchip_SRAM+0xf700316c>
    3870:	0401ffc4 	movi	r16,2047
    3874:	003e2506 	br	310c <__alt_mem_VGA_Subsystem_Char_Buf_Subsystem_Onchip_SRAM+0xf700310c>
    3878:	0013883a 	mov	r9,zero
    387c:	003f8406 	br	3690 <__alt_mem_VGA_Subsystem_Char_Buf_Subsystem_Onchip_SRAM+0xf7003690>
    3880:	0005883a 	mov	r2,zero
    3884:	0007883a 	mov	r3,zero
    3888:	003e8906 	br	32b0 <__alt_mem_VGA_Subsystem_Char_Buf_Subsystem_Onchip_SRAM+0xf70032b0>
    388c:	197ff804 	addi	r5,r3,-32
    3890:	01000804 	movi	r4,32
    3894:	414ad83a 	srl	r5,r8,r5
    3898:	19002426 	beq	r3,r4,392c <__adddf3+0x89c>
    389c:	01001004 	movi	r4,64
    38a0:	20c7c83a 	sub	r3,r4,r3
    38a4:	40c6983a 	sll	r3,r8,r3
    38a8:	1c46b03a 	or	r3,r3,r17
    38ac:	1806c03a 	cmpne	r3,r3,zero
    38b0:	28e2b03a 	or	r17,r5,r3
    38b4:	0007883a 	mov	r3,zero
    38b8:	003f2306 	br	3548 <__alt_mem_VGA_Subsystem_Char_Buf_Subsystem_Onchip_SRAM+0xf7003548>
    38bc:	0007883a 	mov	r3,zero
    38c0:	5811883a 	mov	r8,r11
    38c4:	00bfffc4 	movi	r2,-1
    38c8:	0401ffc4 	movi	r16,2047
    38cc:	003e7806 	br	32b0 <__alt_mem_VGA_Subsystem_Char_Buf_Subsystem_Onchip_SRAM+0xf70032b0>
    38d0:	4462b03a 	or	r17,r8,r17
    38d4:	8822c03a 	cmpne	r17,r17,zero
    38d8:	0009883a 	mov	r4,zero
    38dc:	003fa006 	br	3760 <__alt_mem_VGA_Subsystem_Char_Buf_Subsystem_Onchip_SRAM+0xf7003760>
    38e0:	4811883a 	mov	r8,r9
    38e4:	3023883a 	mov	r17,r6
    38e8:	0401ffc4 	movi	r16,2047
    38ec:	003e0706 	br	310c <__alt_mem_VGA_Subsystem_Char_Buf_Subsystem_Onchip_SRAM+0xf700310c>
    38f0:	4811883a 	mov	r8,r9
    38f4:	3023883a 	mov	r17,r6
    38f8:	003e0406 	br	310c <__alt_mem_VGA_Subsystem_Char_Buf_Subsystem_Onchip_SRAM+0xf700310c>
    38fc:	21fff804 	addi	r7,r4,-32
    3900:	01400804 	movi	r5,32
    3904:	41ced83a 	srl	r7,r8,r7
    3908:	21400a26 	beq	r4,r5,3934 <__adddf3+0x8a4>
    390c:	01401004 	movi	r5,64
    3910:	2909c83a 	sub	r4,r5,r4
    3914:	4108983a 	sll	r4,r8,r4
    3918:	2448b03a 	or	r4,r4,r17
    391c:	2008c03a 	cmpne	r4,r4,zero
    3920:	3922b03a 	or	r17,r7,r4
    3924:	0009883a 	mov	r4,zero
    3928:	003f8d06 	br	3760 <__alt_mem_VGA_Subsystem_Char_Buf_Subsystem_Onchip_SRAM+0xf7003760>
    392c:	0007883a 	mov	r3,zero
    3930:	003fdd06 	br	38a8 <__alt_mem_VGA_Subsystem_Char_Buf_Subsystem_Onchip_SRAM+0xf70038a8>
    3934:	0009883a 	mov	r4,zero
    3938:	003ff706 	br	3918 <__alt_mem_VGA_Subsystem_Char_Buf_Subsystem_Onchip_SRAM+0xf7003918>

0000393c <__eqdf2>:
    393c:	2804d53a 	srli	r2,r5,20
    3940:	3806d53a 	srli	r3,r7,20
    3944:	02000434 	movhi	r8,16
    3948:	423fffc4 	addi	r8,r8,-1
    394c:	1081ffcc 	andi	r2,r2,2047
    3950:	0281ffc4 	movi	r10,2047
    3954:	2a12703a 	and	r9,r5,r8
    3958:	18c1ffcc 	andi	r3,r3,2047
    395c:	3a10703a 	and	r8,r7,r8
    3960:	280ad7fa 	srli	r5,r5,31
    3964:	380ed7fa 	srli	r7,r7,31
    3968:	12801026 	beq	r2,r10,39ac <__eqdf2+0x70>
    396c:	0281ffc4 	movi	r10,2047
    3970:	1a800a26 	beq	r3,r10,399c <__eqdf2+0x60>
    3974:	10c00226 	beq	r2,r3,3980 <__eqdf2+0x44>
    3978:	00800044 	movi	r2,1
    397c:	f800283a 	ret
    3980:	4a3ffd1e 	bne	r9,r8,3978 <__alt_mem_VGA_Subsystem_Char_Buf_Subsystem_Onchip_SRAM+0xf7003978>
    3984:	21bffc1e 	bne	r4,r6,3978 <__alt_mem_VGA_Subsystem_Char_Buf_Subsystem_Onchip_SRAM+0xf7003978>
    3988:	29c00c26 	beq	r5,r7,39bc <__eqdf2+0x80>
    398c:	103ffa1e 	bne	r2,zero,3978 <__alt_mem_VGA_Subsystem_Char_Buf_Subsystem_Onchip_SRAM+0xf7003978>
    3990:	2244b03a 	or	r2,r4,r9
    3994:	1004c03a 	cmpne	r2,r2,zero
    3998:	f800283a 	ret
    399c:	3214b03a 	or	r10,r6,r8
    39a0:	503ff426 	beq	r10,zero,3974 <__alt_mem_VGA_Subsystem_Char_Buf_Subsystem_Onchip_SRAM+0xf7003974>
    39a4:	00800044 	movi	r2,1
    39a8:	f800283a 	ret
    39ac:	2254b03a 	or	r10,r4,r9
    39b0:	503fee26 	beq	r10,zero,396c <__alt_mem_VGA_Subsystem_Char_Buf_Subsystem_Onchip_SRAM+0xf700396c>
    39b4:	00800044 	movi	r2,1
    39b8:	f800283a 	ret
    39bc:	0005883a 	mov	r2,zero
    39c0:	f800283a 	ret

000039c4 <__gedf2>:
    39c4:	2804d53a 	srli	r2,r5,20
    39c8:	3806d53a 	srli	r3,r7,20
    39cc:	02000434 	movhi	r8,16
    39d0:	423fffc4 	addi	r8,r8,-1
    39d4:	1081ffcc 	andi	r2,r2,2047
    39d8:	0241ffc4 	movi	r9,2047
    39dc:	2a14703a 	and	r10,r5,r8
    39e0:	18c1ffcc 	andi	r3,r3,2047
    39e4:	3a10703a 	and	r8,r7,r8
    39e8:	280ad7fa 	srli	r5,r5,31
    39ec:	380ed7fa 	srli	r7,r7,31
    39f0:	12401d26 	beq	r2,r9,3a68 <__gedf2+0xa4>
    39f4:	0241ffc4 	movi	r9,2047
    39f8:	1a401226 	beq	r3,r9,3a44 <__gedf2+0x80>
    39fc:	1000081e 	bne	r2,zero,3a20 <__gedf2+0x5c>
    3a00:	2296b03a 	or	r11,r4,r10
    3a04:	5813003a 	cmpeq	r9,r11,zero
    3a08:	1800091e 	bne	r3,zero,3a30 <__gedf2+0x6c>
    3a0c:	3218b03a 	or	r12,r6,r8
    3a10:	6000071e 	bne	r12,zero,3a30 <__gedf2+0x6c>
    3a14:	0005883a 	mov	r2,zero
    3a18:	5800101e 	bne	r11,zero,3a5c <__gedf2+0x98>
    3a1c:	f800283a 	ret
    3a20:	18000c1e 	bne	r3,zero,3a54 <__gedf2+0x90>
    3a24:	3212b03a 	or	r9,r6,r8
    3a28:	48000c26 	beq	r9,zero,3a5c <__gedf2+0x98>
    3a2c:	0013883a 	mov	r9,zero
    3a30:	39c03fcc 	andi	r7,r7,255
    3a34:	48000826 	beq	r9,zero,3a58 <__gedf2+0x94>
    3a38:	38000926 	beq	r7,zero,3a60 <__gedf2+0x9c>
    3a3c:	00800044 	movi	r2,1
    3a40:	f800283a 	ret
    3a44:	3212b03a 	or	r9,r6,r8
    3a48:	483fec26 	beq	r9,zero,39fc <__alt_mem_VGA_Subsystem_Char_Buf_Subsystem_Onchip_SRAM+0xf70039fc>
    3a4c:	00bfff84 	movi	r2,-2
    3a50:	f800283a 	ret
    3a54:	39c03fcc 	andi	r7,r7,255
    3a58:	29c00626 	beq	r5,r7,3a74 <__gedf2+0xb0>
    3a5c:	283ff726 	beq	r5,zero,3a3c <__alt_mem_VGA_Subsystem_Char_Buf_Subsystem_Onchip_SRAM+0xf7003a3c>
    3a60:	00bfffc4 	movi	r2,-1
    3a64:	f800283a 	ret
    3a68:	2292b03a 	or	r9,r4,r10
    3a6c:	483fe126 	beq	r9,zero,39f4 <__alt_mem_VGA_Subsystem_Char_Buf_Subsystem_Onchip_SRAM+0xf70039f4>
    3a70:	003ff606 	br	3a4c <__alt_mem_VGA_Subsystem_Char_Buf_Subsystem_Onchip_SRAM+0xf7003a4c>
    3a74:	18bff916 	blt	r3,r2,3a5c <__alt_mem_VGA_Subsystem_Char_Buf_Subsystem_Onchip_SRAM+0xf7003a5c>
    3a78:	10c00316 	blt	r2,r3,3a88 <__gedf2+0xc4>
    3a7c:	42bff736 	bltu	r8,r10,3a5c <__alt_mem_VGA_Subsystem_Char_Buf_Subsystem_Onchip_SRAM+0xf7003a5c>
    3a80:	52000326 	beq	r10,r8,3a90 <__gedf2+0xcc>
    3a84:	5200042e 	bgeu	r10,r8,3a98 <__gedf2+0xd4>
    3a88:	283fec1e 	bne	r5,zero,3a3c <__alt_mem_VGA_Subsystem_Char_Buf_Subsystem_Onchip_SRAM+0xf7003a3c>
    3a8c:	003ff406 	br	3a60 <__alt_mem_VGA_Subsystem_Char_Buf_Subsystem_Onchip_SRAM+0xf7003a60>
    3a90:	313ff236 	bltu	r6,r4,3a5c <__alt_mem_VGA_Subsystem_Char_Buf_Subsystem_Onchip_SRAM+0xf7003a5c>
    3a94:	21bffc36 	bltu	r4,r6,3a88 <__alt_mem_VGA_Subsystem_Char_Buf_Subsystem_Onchip_SRAM+0xf7003a88>
    3a98:	0005883a 	mov	r2,zero
    3a9c:	f800283a 	ret

00003aa0 <__muldf3>:
    3aa0:	deffee04 	addi	sp,sp,-72
    3aa4:	dd000c15 	stw	r20,48(sp)
    3aa8:	2828d53a 	srli	r20,r5,20
    3aac:	ddc00f15 	stw	r23,60(sp)
    3ab0:	282ed7fa 	srli	r23,r5,31
    3ab4:	dc000815 	stw	r16,32(sp)
    3ab8:	04000434 	movhi	r16,16
    3abc:	dcc00b15 	stw	r19,44(sp)
    3ac0:	843fffc4 	addi	r16,r16,-1
    3ac4:	dfc01115 	stw	ra,68(sp)
    3ac8:	df001015 	stw	fp,64(sp)
    3acc:	dd800e15 	stw	r22,56(sp)
    3ad0:	dd400d15 	stw	r21,52(sp)
    3ad4:	dc800a15 	stw	r18,40(sp)
    3ad8:	dc400915 	stw	r17,36(sp)
    3adc:	a501ffcc 	andi	r20,r20,2047
    3ae0:	2c20703a 	and	r16,r5,r16
    3ae4:	b827883a 	mov	r19,r23
    3ae8:	ba403fcc 	andi	r9,r23,255
    3aec:	a0006026 	beq	r20,zero,3c70 <__muldf3+0x1d0>
    3af0:	0081ffc4 	movi	r2,2047
    3af4:	202d883a 	mov	r22,r4
    3af8:	a0803626 	beq	r20,r2,3bd4 <__muldf3+0x134>
    3afc:	84000434 	orhi	r16,r16,16
    3b00:	200ad77a 	srli	r5,r4,29
    3b04:	800490fa 	slli	r2,r16,3
    3b08:	202c90fa 	slli	r22,r4,3
    3b0c:	a53f0044 	addi	r20,r20,-1023
    3b10:	28a0b03a 	or	r16,r5,r2
    3b14:	002b883a 	mov	r21,zero
    3b18:	000b883a 	mov	r5,zero
    3b1c:	3804d53a 	srli	r2,r7,20
    3b20:	3838d7fa 	srli	fp,r7,31
    3b24:	04400434 	movhi	r17,16
    3b28:	8c7fffc4 	addi	r17,r17,-1
    3b2c:	1081ffcc 	andi	r2,r2,2047
    3b30:	3025883a 	mov	r18,r6
    3b34:	3c62703a 	and	r17,r7,r17
    3b38:	e2803fcc 	andi	r10,fp,255
    3b3c:	10006d26 	beq	r2,zero,3cf4 <__muldf3+0x254>
    3b40:	00c1ffc4 	movi	r3,2047
    3b44:	10c06526 	beq	r2,r3,3cdc <__muldf3+0x23c>
    3b48:	8c400434 	orhi	r17,r17,16
    3b4c:	300ed77a 	srli	r7,r6,29
    3b50:	880690fa 	slli	r3,r17,3
    3b54:	302490fa 	slli	r18,r6,3
    3b58:	10bf0044 	addi	r2,r2,-1023
    3b5c:	38e2b03a 	or	r17,r7,r3
    3b60:	000f883a 	mov	r7,zero
    3b64:	a087883a 	add	r3,r20,r2
    3b68:	010003c4 	movi	r4,15
    3b6c:	3d44b03a 	or	r2,r7,r21
    3b70:	e5ccf03a 	xor	r6,fp,r23
    3b74:	1a000044 	addi	r8,r3,1
    3b78:	20809b36 	bltu	r4,r2,3de8 <__muldf3+0x348>
    3b7c:	100490ba 	slli	r2,r2,2
    3b80:	01000034 	movhi	r4,0
    3b84:	210ee504 	addi	r4,r4,15252
    3b88:	1105883a 	add	r2,r2,r4
    3b8c:	10800017 	ldw	r2,0(r2)
    3b90:	1000683a 	jmp	r2
    3b94:	00003de8 	cmpgeui	zero,zero,247
    3b98:	00003bf4 	movhi	zero,239
    3b9c:	00003bf4 	movhi	zero,239
    3ba0:	00003bf0 	cmpltui	zero,zero,239
    3ba4:	00003dc4 	movi	zero,247
    3ba8:	00003dc4 	movi	zero,247
    3bac:	00003dac 	andhi	zero,zero,246
    3bb0:	00003bf0 	cmpltui	zero,zero,239
    3bb4:	00003dc4 	movi	zero,247
    3bb8:	00003dac 	andhi	zero,zero,246
    3bbc:	00003dc4 	movi	zero,247
    3bc0:	00003bf0 	cmpltui	zero,zero,239
    3bc4:	00003dd4 	movui	zero,247
    3bc8:	00003dd4 	movui	zero,247
    3bcc:	00003dd4 	movui	zero,247
    3bd0:	00004134 	movhi	zero,260
    3bd4:	2404b03a 	or	r2,r4,r16
    3bd8:	1000711e 	bne	r2,zero,3da0 <__muldf3+0x300>
    3bdc:	05400204 	movi	r21,8
    3be0:	0021883a 	mov	r16,zero
    3be4:	002d883a 	mov	r22,zero
    3be8:	01400084 	movi	r5,2
    3bec:	003fcb06 	br	3b1c <__alt_mem_VGA_Subsystem_Char_Buf_Subsystem_Onchip_SRAM+0xf7003b1c>
    3bf0:	500d883a 	mov	r6,r10
    3bf4:	00800084 	movi	r2,2
    3bf8:	38805926 	beq	r7,r2,3d60 <__muldf3+0x2c0>
    3bfc:	008000c4 	movi	r2,3
    3c00:	3881bb26 	beq	r7,r2,42f0 <__muldf3+0x850>
    3c04:	00800044 	movi	r2,1
    3c08:	3881961e 	bne	r7,r2,4264 <__muldf3+0x7c4>
    3c0c:	3027883a 	mov	r19,r6
    3c10:	0005883a 	mov	r2,zero
    3c14:	0021883a 	mov	r16,zero
    3c18:	002d883a 	mov	r22,zero
    3c1c:	1004953a 	slli	r2,r2,20
    3c20:	98c03fcc 	andi	r3,r19,255
    3c24:	04400434 	movhi	r17,16
    3c28:	8c7fffc4 	addi	r17,r17,-1
    3c2c:	180697fa 	slli	r3,r3,31
    3c30:	8460703a 	and	r16,r16,r17
    3c34:	80a0b03a 	or	r16,r16,r2
    3c38:	80c6b03a 	or	r3,r16,r3
    3c3c:	b005883a 	mov	r2,r22
    3c40:	dfc01117 	ldw	ra,68(sp)
    3c44:	df001017 	ldw	fp,64(sp)
    3c48:	ddc00f17 	ldw	r23,60(sp)
    3c4c:	dd800e17 	ldw	r22,56(sp)
    3c50:	dd400d17 	ldw	r21,52(sp)
    3c54:	dd000c17 	ldw	r20,48(sp)
    3c58:	dcc00b17 	ldw	r19,44(sp)
    3c5c:	dc800a17 	ldw	r18,40(sp)
    3c60:	dc400917 	ldw	r17,36(sp)
    3c64:	dc000817 	ldw	r16,32(sp)
    3c68:	dec01204 	addi	sp,sp,72
    3c6c:	f800283a 	ret
    3c70:	2404b03a 	or	r2,r4,r16
    3c74:	202b883a 	mov	r21,r4
    3c78:	10004426 	beq	r2,zero,3d8c <__muldf3+0x2ec>
    3c7c:	80015126 	beq	r16,zero,41c4 <__muldf3+0x724>
    3c80:	8009883a 	mov	r4,r16
    3c84:	d9800715 	stw	r6,28(sp)
    3c88:	d9c00215 	stw	r7,8(sp)
    3c8c:	da400415 	stw	r9,16(sp)
    3c90:	0004e740 	call	4e74 <__clzsi2>
    3c94:	d9800717 	ldw	r6,28(sp)
    3c98:	d9c00217 	ldw	r7,8(sp)
    3c9c:	da400417 	ldw	r9,16(sp)
    3ca0:	113ffd44 	addi	r4,r2,-11
    3ca4:	00c00704 	movi	r3,28
    3ca8:	19014216 	blt	r3,r4,41b4 <__muldf3+0x714>
    3cac:	00c00744 	movi	r3,29
    3cb0:	15bffe04 	addi	r22,r2,-8
    3cb4:	1907c83a 	sub	r3,r3,r4
    3cb8:	85a0983a 	sll	r16,r16,r22
    3cbc:	a8c6d83a 	srl	r3,r21,r3
    3cc0:	adac983a 	sll	r22,r21,r22
    3cc4:	1c20b03a 	or	r16,r3,r16
    3cc8:	1080fcc4 	addi	r2,r2,1011
    3ccc:	00a9c83a 	sub	r20,zero,r2
    3cd0:	002b883a 	mov	r21,zero
    3cd4:	000b883a 	mov	r5,zero
    3cd8:	003f9006 	br	3b1c <__alt_mem_VGA_Subsystem_Char_Buf_Subsystem_Onchip_SRAM+0xf7003b1c>
    3cdc:	3446b03a 	or	r3,r6,r17
    3ce0:	1800281e 	bne	r3,zero,3d84 <__muldf3+0x2e4>
    3ce4:	0023883a 	mov	r17,zero
    3ce8:	0025883a 	mov	r18,zero
    3cec:	01c00084 	movi	r7,2
    3cf0:	003f9c06 	br	3b64 <__alt_mem_VGA_Subsystem_Char_Buf_Subsystem_Onchip_SRAM+0xf7003b64>
    3cf4:	3446b03a 	or	r3,r6,r17
    3cf8:	18001e26 	beq	r3,zero,3d74 <__muldf3+0x2d4>
    3cfc:	88012126 	beq	r17,zero,4184 <__muldf3+0x6e4>
    3d00:	8809883a 	mov	r4,r17
    3d04:	d9400215 	stw	r5,8(sp)
    3d08:	d9800715 	stw	r6,28(sp)
    3d0c:	da400415 	stw	r9,16(sp)
    3d10:	da800315 	stw	r10,12(sp)
    3d14:	0004e740 	call	4e74 <__clzsi2>
    3d18:	d9400217 	ldw	r5,8(sp)
    3d1c:	d9800717 	ldw	r6,28(sp)
    3d20:	da400417 	ldw	r9,16(sp)
    3d24:	da800317 	ldw	r10,12(sp)
    3d28:	113ffd44 	addi	r4,r2,-11
    3d2c:	00c00704 	movi	r3,28
    3d30:	19011016 	blt	r3,r4,4174 <__muldf3+0x6d4>
    3d34:	00c00744 	movi	r3,29
    3d38:	14bffe04 	addi	r18,r2,-8
    3d3c:	1907c83a 	sub	r3,r3,r4
    3d40:	8ca2983a 	sll	r17,r17,r18
    3d44:	30c6d83a 	srl	r3,r6,r3
    3d48:	34a4983a 	sll	r18,r6,r18
    3d4c:	1c62b03a 	or	r17,r3,r17
    3d50:	1080fcc4 	addi	r2,r2,1011
    3d54:	0085c83a 	sub	r2,zero,r2
    3d58:	000f883a 	mov	r7,zero
    3d5c:	003f8106 	br	3b64 <__alt_mem_VGA_Subsystem_Char_Buf_Subsystem_Onchip_SRAM+0xf7003b64>
    3d60:	3027883a 	mov	r19,r6
    3d64:	0081ffc4 	movi	r2,2047
    3d68:	0021883a 	mov	r16,zero
    3d6c:	002d883a 	mov	r22,zero
    3d70:	003faa06 	br	3c1c <__alt_mem_VGA_Subsystem_Char_Buf_Subsystem_Onchip_SRAM+0xf7003c1c>
    3d74:	0023883a 	mov	r17,zero
    3d78:	0025883a 	mov	r18,zero
    3d7c:	01c00044 	movi	r7,1
    3d80:	003f7806 	br	3b64 <__alt_mem_VGA_Subsystem_Char_Buf_Subsystem_Onchip_SRAM+0xf7003b64>
    3d84:	01c000c4 	movi	r7,3
    3d88:	003f7606 	br	3b64 <__alt_mem_VGA_Subsystem_Char_Buf_Subsystem_Onchip_SRAM+0xf7003b64>
    3d8c:	05400104 	movi	r21,4
    3d90:	0021883a 	mov	r16,zero
    3d94:	002d883a 	mov	r22,zero
    3d98:	01400044 	movi	r5,1
    3d9c:	003f5f06 	br	3b1c <__alt_mem_VGA_Subsystem_Char_Buf_Subsystem_Onchip_SRAM+0xf7003b1c>
    3da0:	05400304 	movi	r21,12
    3da4:	014000c4 	movi	r5,3
    3da8:	003f5c06 	br	3b1c <__alt_mem_VGA_Subsystem_Char_Buf_Subsystem_Onchip_SRAM+0xf7003b1c>
    3dac:	04000434 	movhi	r16,16
    3db0:	0027883a 	mov	r19,zero
    3db4:	843fffc4 	addi	r16,r16,-1
    3db8:	05bfffc4 	movi	r22,-1
    3dbc:	0081ffc4 	movi	r2,2047
    3dc0:	003f9606 	br	3c1c <__alt_mem_VGA_Subsystem_Char_Buf_Subsystem_Onchip_SRAM+0xf7003c1c>
    3dc4:	8023883a 	mov	r17,r16
    3dc8:	b025883a 	mov	r18,r22
    3dcc:	280f883a 	mov	r7,r5
    3dd0:	003f8806 	br	3bf4 <__alt_mem_VGA_Subsystem_Char_Buf_Subsystem_Onchip_SRAM+0xf7003bf4>
    3dd4:	8023883a 	mov	r17,r16
    3dd8:	b025883a 	mov	r18,r22
    3ddc:	480d883a 	mov	r6,r9
    3de0:	280f883a 	mov	r7,r5
    3de4:	003f8306 	br	3bf4 <__alt_mem_VGA_Subsystem_Char_Buf_Subsystem_Onchip_SRAM+0xf7003bf4>
    3de8:	b026d43a 	srli	r19,r22,16
    3dec:	902ed43a 	srli	r23,r18,16
    3df0:	b5bfffcc 	andi	r22,r22,65535
    3df4:	94bfffcc 	andi	r18,r18,65535
    3df8:	b00b883a 	mov	r5,r22
    3dfc:	9009883a 	mov	r4,r18
    3e00:	d8c00515 	stw	r3,20(sp)
    3e04:	d9800715 	stw	r6,28(sp)
    3e08:	da000615 	stw	r8,24(sp)
    3e0c:	0002f440 	call	2f44 <__mulsi3>
    3e10:	980b883a 	mov	r5,r19
    3e14:	9009883a 	mov	r4,r18
    3e18:	1029883a 	mov	r20,r2
    3e1c:	0002f440 	call	2f44 <__mulsi3>
    3e20:	b80b883a 	mov	r5,r23
    3e24:	9809883a 	mov	r4,r19
    3e28:	102b883a 	mov	r21,r2
    3e2c:	0002f440 	call	2f44 <__mulsi3>
    3e30:	b809883a 	mov	r4,r23
    3e34:	b00b883a 	mov	r5,r22
    3e38:	1039883a 	mov	fp,r2
    3e3c:	0002f440 	call	2f44 <__mulsi3>
    3e40:	a008d43a 	srli	r4,r20,16
    3e44:	1545883a 	add	r2,r2,r21
    3e48:	d8c00517 	ldw	r3,20(sp)
    3e4c:	2085883a 	add	r2,r4,r2
    3e50:	d9800717 	ldw	r6,28(sp)
    3e54:	da000617 	ldw	r8,24(sp)
    3e58:	1540022e 	bgeu	r2,r21,3e64 <__muldf3+0x3c4>
    3e5c:	01000074 	movhi	r4,1
    3e60:	e139883a 	add	fp,fp,r4
    3e64:	100e943a 	slli	r7,r2,16
    3e68:	1004d43a 	srli	r2,r2,16
    3e6c:	882ad43a 	srli	r21,r17,16
    3e70:	a53fffcc 	andi	r20,r20,65535
    3e74:	8c7fffcc 	andi	r17,r17,65535
    3e78:	3d29883a 	add	r20,r7,r20
    3e7c:	b00b883a 	mov	r5,r22
    3e80:	8809883a 	mov	r4,r17
    3e84:	d8c00515 	stw	r3,20(sp)
    3e88:	d9800715 	stw	r6,28(sp)
    3e8c:	da000615 	stw	r8,24(sp)
    3e90:	dd000115 	stw	r20,4(sp)
    3e94:	d8800015 	stw	r2,0(sp)
    3e98:	0002f440 	call	2f44 <__mulsi3>
    3e9c:	980b883a 	mov	r5,r19
    3ea0:	8809883a 	mov	r4,r17
    3ea4:	d8800215 	stw	r2,8(sp)
    3ea8:	0002f440 	call	2f44 <__mulsi3>
    3eac:	9809883a 	mov	r4,r19
    3eb0:	a80b883a 	mov	r5,r21
    3eb4:	1029883a 	mov	r20,r2
    3eb8:	0002f440 	call	2f44 <__mulsi3>
    3ebc:	b00b883a 	mov	r5,r22
    3ec0:	a809883a 	mov	r4,r21
    3ec4:	d8800415 	stw	r2,16(sp)
    3ec8:	0002f440 	call	2f44 <__mulsi3>
    3ecc:	d9c00217 	ldw	r7,8(sp)
    3ed0:	1505883a 	add	r2,r2,r20
    3ed4:	d8c00517 	ldw	r3,20(sp)
    3ed8:	3826d43a 	srli	r19,r7,16
    3edc:	d9800717 	ldw	r6,28(sp)
    3ee0:	da000617 	ldw	r8,24(sp)
    3ee4:	9885883a 	add	r2,r19,r2
    3ee8:	da400417 	ldw	r9,16(sp)
    3eec:	1500022e 	bgeu	r2,r20,3ef8 <__muldf3+0x458>
    3ef0:	01000074 	movhi	r4,1
    3ef4:	4913883a 	add	r9,r9,r4
    3ef8:	1028d43a 	srli	r20,r2,16
    3efc:	1004943a 	slli	r2,r2,16
    3f00:	802cd43a 	srli	r22,r16,16
    3f04:	843fffcc 	andi	r16,r16,65535
    3f08:	3cffffcc 	andi	r19,r7,65535
    3f0c:	9009883a 	mov	r4,r18
    3f10:	800b883a 	mov	r5,r16
    3f14:	a269883a 	add	r20,r20,r9
    3f18:	d8c00515 	stw	r3,20(sp)
    3f1c:	d9800715 	stw	r6,28(sp)
    3f20:	da000615 	stw	r8,24(sp)
    3f24:	14e7883a 	add	r19,r2,r19
    3f28:	0002f440 	call	2f44 <__mulsi3>
    3f2c:	9009883a 	mov	r4,r18
    3f30:	b00b883a 	mov	r5,r22
    3f34:	d8800315 	stw	r2,12(sp)
    3f38:	0002f440 	call	2f44 <__mulsi3>
    3f3c:	b809883a 	mov	r4,r23
    3f40:	b00b883a 	mov	r5,r22
    3f44:	d8800215 	stw	r2,8(sp)
    3f48:	0002f440 	call	2f44 <__mulsi3>
    3f4c:	b80b883a 	mov	r5,r23
    3f50:	8009883a 	mov	r4,r16
    3f54:	d8800415 	stw	r2,16(sp)
    3f58:	0002f440 	call	2f44 <__mulsi3>
    3f5c:	da800317 	ldw	r10,12(sp)
    3f60:	d9c00217 	ldw	r7,8(sp)
    3f64:	d9000017 	ldw	r4,0(sp)
    3f68:	502ed43a 	srli	r23,r10,16
    3f6c:	11c5883a 	add	r2,r2,r7
    3f70:	24e5883a 	add	r18,r4,r19
    3f74:	b885883a 	add	r2,r23,r2
    3f78:	d8c00517 	ldw	r3,20(sp)
    3f7c:	d9800717 	ldw	r6,28(sp)
    3f80:	da000617 	ldw	r8,24(sp)
    3f84:	da400417 	ldw	r9,16(sp)
    3f88:	11c0022e 	bgeu	r2,r7,3f94 <__muldf3+0x4f4>
    3f8c:	01000074 	movhi	r4,1
    3f90:	4913883a 	add	r9,r9,r4
    3f94:	100ed43a 	srli	r7,r2,16
    3f98:	1004943a 	slli	r2,r2,16
    3f9c:	55ffffcc 	andi	r23,r10,65535
    3fa0:	3a53883a 	add	r9,r7,r9
    3fa4:	8809883a 	mov	r4,r17
    3fa8:	800b883a 	mov	r5,r16
    3fac:	d8c00515 	stw	r3,20(sp)
    3fb0:	d9800715 	stw	r6,28(sp)
    3fb4:	da000615 	stw	r8,24(sp)
    3fb8:	da400415 	stw	r9,16(sp)
    3fbc:	15ef883a 	add	r23,r2,r23
    3fc0:	0002f440 	call	2f44 <__mulsi3>
    3fc4:	8809883a 	mov	r4,r17
    3fc8:	b00b883a 	mov	r5,r22
    3fcc:	d8800215 	stw	r2,8(sp)
    3fd0:	0002f440 	call	2f44 <__mulsi3>
    3fd4:	b00b883a 	mov	r5,r22
    3fd8:	a809883a 	mov	r4,r21
    3fdc:	d8800315 	stw	r2,12(sp)
    3fe0:	0002f440 	call	2f44 <__mulsi3>
    3fe4:	8009883a 	mov	r4,r16
    3fe8:	a80b883a 	mov	r5,r21
    3fec:	1023883a 	mov	r17,r2
    3ff0:	0002f440 	call	2f44 <__mulsi3>
    3ff4:	d9c00217 	ldw	r7,8(sp)
    3ff8:	da800317 	ldw	r10,12(sp)
    3ffc:	d8c00517 	ldw	r3,20(sp)
    4000:	3808d43a 	srli	r4,r7,16
    4004:	1285883a 	add	r2,r2,r10
    4008:	d9800717 	ldw	r6,28(sp)
    400c:	2085883a 	add	r2,r4,r2
    4010:	da000617 	ldw	r8,24(sp)
    4014:	da400417 	ldw	r9,16(sp)
    4018:	1280022e 	bgeu	r2,r10,4024 <__muldf3+0x584>
    401c:	01000074 	movhi	r4,1
    4020:	8923883a 	add	r17,r17,r4
    4024:	1008943a 	slli	r4,r2,16
    4028:	39ffffcc 	andi	r7,r7,65535
    402c:	e4b9883a 	add	fp,fp,r18
    4030:	21cf883a 	add	r7,r4,r7
    4034:	e4e7803a 	cmpltu	r19,fp,r19
    4038:	3d0f883a 	add	r7,r7,r20
    403c:	bf39883a 	add	fp,r23,fp
    4040:	99c9883a 	add	r4,r19,r7
    4044:	e5ef803a 	cmpltu	r23,fp,r23
    4048:	490b883a 	add	r5,r9,r4
    404c:	1004d43a 	srli	r2,r2,16
    4050:	b965883a 	add	r18,r23,r5
    4054:	24c9803a 	cmpltu	r4,r4,r19
    4058:	3d29803a 	cmpltu	r20,r7,r20
    405c:	a128b03a 	or	r20,r20,r4
    4060:	95ef803a 	cmpltu	r23,r18,r23
    4064:	2a53803a 	cmpltu	r9,r5,r9
    4068:	a0a9883a 	add	r20,r20,r2
    406c:	4deeb03a 	or	r23,r9,r23
    4070:	a5ef883a 	add	r23,r20,r23
    4074:	bc63883a 	add	r17,r23,r17
    4078:	e004927a 	slli	r2,fp,9
    407c:	d9000117 	ldw	r4,4(sp)
    4080:	882e927a 	slli	r23,r17,9
    4084:	9022d5fa 	srli	r17,r18,23
    4088:	e038d5fa 	srli	fp,fp,23
    408c:	1104b03a 	or	r2,r2,r4
    4090:	9024927a 	slli	r18,r18,9
    4094:	1004c03a 	cmpne	r2,r2,zero
    4098:	bc62b03a 	or	r17,r23,r17
    409c:	1738b03a 	or	fp,r2,fp
    40a0:	8880402c 	andhi	r2,r17,256
    40a4:	e4a4b03a 	or	r18,fp,r18
    40a8:	10000726 	beq	r2,zero,40c8 <__muldf3+0x628>
    40ac:	9006d07a 	srli	r3,r18,1
    40b0:	880497fa 	slli	r2,r17,31
    40b4:	9480004c 	andi	r18,r18,1
    40b8:	8822d07a 	srli	r17,r17,1
    40bc:	1ca4b03a 	or	r18,r3,r18
    40c0:	14a4b03a 	or	r18,r2,r18
    40c4:	4007883a 	mov	r3,r8
    40c8:	1880ffc4 	addi	r2,r3,1023
    40cc:	0080460e 	bge	zero,r2,41e8 <__muldf3+0x748>
    40d0:	910001cc 	andi	r4,r18,7
    40d4:	20000726 	beq	r4,zero,40f4 <__muldf3+0x654>
    40d8:	910003cc 	andi	r4,r18,15
    40dc:	01400104 	movi	r5,4
    40e0:	21400426 	beq	r4,r5,40f4 <__muldf3+0x654>
    40e4:	9149883a 	add	r4,r18,r5
    40e8:	24a5803a 	cmpltu	r18,r4,r18
    40ec:	8ca3883a 	add	r17,r17,r18
    40f0:	2025883a 	mov	r18,r4
    40f4:	8900402c 	andhi	r4,r17,256
    40f8:	20000426 	beq	r4,zero,410c <__muldf3+0x66c>
    40fc:	18810004 	addi	r2,r3,1024
    4100:	00ffc034 	movhi	r3,65280
    4104:	18ffffc4 	addi	r3,r3,-1
    4108:	88e2703a 	and	r17,r17,r3
    410c:	00c1ff84 	movi	r3,2046
    4110:	18bf1316 	blt	r3,r2,3d60 <__alt_mem_VGA_Subsystem_Char_Buf_Subsystem_Onchip_SRAM+0xf7003d60>
    4114:	882c977a 	slli	r22,r17,29
    4118:	9024d0fa 	srli	r18,r18,3
    411c:	8822927a 	slli	r17,r17,9
    4120:	1081ffcc 	andi	r2,r2,2047
    4124:	b4acb03a 	or	r22,r22,r18
    4128:	8820d33a 	srli	r16,r17,12
    412c:	3027883a 	mov	r19,r6
    4130:	003eba06 	br	3c1c <__alt_mem_VGA_Subsystem_Char_Buf_Subsystem_Onchip_SRAM+0xf7003c1c>
    4134:	8080022c 	andhi	r2,r16,8
    4138:	10000926 	beq	r2,zero,4160 <__muldf3+0x6c0>
    413c:	8880022c 	andhi	r2,r17,8
    4140:	1000071e 	bne	r2,zero,4160 <__muldf3+0x6c0>
    4144:	00800434 	movhi	r2,16
    4148:	8c000234 	orhi	r16,r17,8
    414c:	10bfffc4 	addi	r2,r2,-1
    4150:	e027883a 	mov	r19,fp
    4154:	80a0703a 	and	r16,r16,r2
    4158:	902d883a 	mov	r22,r18
    415c:	003f1706 	br	3dbc <__alt_mem_VGA_Subsystem_Char_Buf_Subsystem_Onchip_SRAM+0xf7003dbc>
    4160:	00800434 	movhi	r2,16
    4164:	84000234 	orhi	r16,r16,8
    4168:	10bfffc4 	addi	r2,r2,-1
    416c:	80a0703a 	and	r16,r16,r2
    4170:	003f1206 	br	3dbc <__alt_mem_VGA_Subsystem_Char_Buf_Subsystem_Onchip_SRAM+0xf7003dbc>
    4174:	147ff604 	addi	r17,r2,-40
    4178:	3462983a 	sll	r17,r6,r17
    417c:	0025883a 	mov	r18,zero
    4180:	003ef306 	br	3d50 <__alt_mem_VGA_Subsystem_Char_Buf_Subsystem_Onchip_SRAM+0xf7003d50>
    4184:	3009883a 	mov	r4,r6
    4188:	d9400215 	stw	r5,8(sp)
    418c:	d9800715 	stw	r6,28(sp)
    4190:	da400415 	stw	r9,16(sp)
    4194:	da800315 	stw	r10,12(sp)
    4198:	0004e740 	call	4e74 <__clzsi2>
    419c:	10800804 	addi	r2,r2,32
    41a0:	da800317 	ldw	r10,12(sp)
    41a4:	da400417 	ldw	r9,16(sp)
    41a8:	d9800717 	ldw	r6,28(sp)
    41ac:	d9400217 	ldw	r5,8(sp)
    41b0:	003edd06 	br	3d28 <__alt_mem_VGA_Subsystem_Char_Buf_Subsystem_Onchip_SRAM+0xf7003d28>
    41b4:	143ff604 	addi	r16,r2,-40
    41b8:	ac20983a 	sll	r16,r21,r16
    41bc:	002d883a 	mov	r22,zero
    41c0:	003ec106 	br	3cc8 <__alt_mem_VGA_Subsystem_Char_Buf_Subsystem_Onchip_SRAM+0xf7003cc8>
    41c4:	d9800715 	stw	r6,28(sp)
    41c8:	d9c00215 	stw	r7,8(sp)
    41cc:	da400415 	stw	r9,16(sp)
    41d0:	0004e740 	call	4e74 <__clzsi2>
    41d4:	10800804 	addi	r2,r2,32
    41d8:	da400417 	ldw	r9,16(sp)
    41dc:	d9c00217 	ldw	r7,8(sp)
    41e0:	d9800717 	ldw	r6,28(sp)
    41e4:	003eae06 	br	3ca0 <__alt_mem_VGA_Subsystem_Char_Buf_Subsystem_Onchip_SRAM+0xf7003ca0>
    41e8:	00c00044 	movi	r3,1
    41ec:	1887c83a 	sub	r3,r3,r2
    41f0:	01000e04 	movi	r4,56
    41f4:	20fe8516 	blt	r4,r3,3c0c <__alt_mem_VGA_Subsystem_Char_Buf_Subsystem_Onchip_SRAM+0xf7003c0c>
    41f8:	010007c4 	movi	r4,31
    41fc:	20c01b16 	blt	r4,r3,426c <__muldf3+0x7cc>
    4200:	00800804 	movi	r2,32
    4204:	10c5c83a 	sub	r2,r2,r3
    4208:	888a983a 	sll	r5,r17,r2
    420c:	90c8d83a 	srl	r4,r18,r3
    4210:	9084983a 	sll	r2,r18,r2
    4214:	88e2d83a 	srl	r17,r17,r3
    4218:	2906b03a 	or	r3,r5,r4
    421c:	1004c03a 	cmpne	r2,r2,zero
    4220:	1886b03a 	or	r3,r3,r2
    4224:	188001cc 	andi	r2,r3,7
    4228:	10000726 	beq	r2,zero,4248 <__muldf3+0x7a8>
    422c:	188003cc 	andi	r2,r3,15
    4230:	01000104 	movi	r4,4
    4234:	11000426 	beq	r2,r4,4248 <__muldf3+0x7a8>
    4238:	1805883a 	mov	r2,r3
    423c:	10c00104 	addi	r3,r2,4
    4240:	1885803a 	cmpltu	r2,r3,r2
    4244:	88a3883a 	add	r17,r17,r2
    4248:	8880202c 	andhi	r2,r17,128
    424c:	10001c26 	beq	r2,zero,42c0 <__muldf3+0x820>
    4250:	3027883a 	mov	r19,r6
    4254:	00800044 	movi	r2,1
    4258:	0021883a 	mov	r16,zero
    425c:	002d883a 	mov	r22,zero
    4260:	003e6e06 	br	3c1c <__alt_mem_VGA_Subsystem_Char_Buf_Subsystem_Onchip_SRAM+0xf7003c1c>
    4264:	4007883a 	mov	r3,r8
    4268:	003f9706 	br	40c8 <__alt_mem_VGA_Subsystem_Char_Buf_Subsystem_Onchip_SRAM+0xf70040c8>
    426c:	017ff844 	movi	r5,-31
    4270:	2885c83a 	sub	r2,r5,r2
    4274:	888ad83a 	srl	r5,r17,r2
    4278:	00800804 	movi	r2,32
    427c:	18801a26 	beq	r3,r2,42e8 <__muldf3+0x848>
    4280:	01001004 	movi	r4,64
    4284:	20c7c83a 	sub	r3,r4,r3
    4288:	88e2983a 	sll	r17,r17,r3
    428c:	8ca4b03a 	or	r18,r17,r18
    4290:	9004c03a 	cmpne	r2,r18,zero
    4294:	2884b03a 	or	r2,r5,r2
    4298:	144001cc 	andi	r17,r2,7
    429c:	88000d1e 	bne	r17,zero,42d4 <__muldf3+0x834>
    42a0:	0021883a 	mov	r16,zero
    42a4:	102cd0fa 	srli	r22,r2,3
    42a8:	3027883a 	mov	r19,r6
    42ac:	0005883a 	mov	r2,zero
    42b0:	b46cb03a 	or	r22,r22,r17
    42b4:	003e5906 	br	3c1c <__alt_mem_VGA_Subsystem_Char_Buf_Subsystem_Onchip_SRAM+0xf7003c1c>
    42b8:	1007883a 	mov	r3,r2
    42bc:	0023883a 	mov	r17,zero
    42c0:	8820927a 	slli	r16,r17,9
    42c4:	1805883a 	mov	r2,r3
    42c8:	8822977a 	slli	r17,r17,29
    42cc:	8020d33a 	srli	r16,r16,12
    42d0:	003ff406 	br	42a4 <__alt_mem_VGA_Subsystem_Char_Buf_Subsystem_Onchip_SRAM+0xf70042a4>
    42d4:	10c003cc 	andi	r3,r2,15
    42d8:	01000104 	movi	r4,4
    42dc:	193ff626 	beq	r3,r4,42b8 <__alt_mem_VGA_Subsystem_Char_Buf_Subsystem_Onchip_SRAM+0xf70042b8>
    42e0:	0023883a 	mov	r17,zero
    42e4:	003fd506 	br	423c <__alt_mem_VGA_Subsystem_Char_Buf_Subsystem_Onchip_SRAM+0xf700423c>
    42e8:	0023883a 	mov	r17,zero
    42ec:	003fe706 	br	428c <__alt_mem_VGA_Subsystem_Char_Buf_Subsystem_Onchip_SRAM+0xf700428c>
    42f0:	00800434 	movhi	r2,16
    42f4:	8c000234 	orhi	r16,r17,8
    42f8:	10bfffc4 	addi	r2,r2,-1
    42fc:	3027883a 	mov	r19,r6
    4300:	80a0703a 	and	r16,r16,r2
    4304:	902d883a 	mov	r22,r18
    4308:	003eac06 	br	3dbc <__alt_mem_VGA_Subsystem_Char_Buf_Subsystem_Onchip_SRAM+0xf7003dbc>

0000430c <__subdf3>:
    430c:	02000434 	movhi	r8,16
    4310:	423fffc4 	addi	r8,r8,-1
    4314:	defffb04 	addi	sp,sp,-20
    4318:	2a14703a 	and	r10,r5,r8
    431c:	3812d53a 	srli	r9,r7,20
    4320:	3a10703a 	and	r8,r7,r8
    4324:	2006d77a 	srli	r3,r4,29
    4328:	3004d77a 	srli	r2,r6,29
    432c:	dc000015 	stw	r16,0(sp)
    4330:	501490fa 	slli	r10,r10,3
    4334:	2820d53a 	srli	r16,r5,20
    4338:	401090fa 	slli	r8,r8,3
    433c:	dc800215 	stw	r18,8(sp)
    4340:	dc400115 	stw	r17,4(sp)
    4344:	dfc00415 	stw	ra,16(sp)
    4348:	202290fa 	slli	r17,r4,3
    434c:	dcc00315 	stw	r19,12(sp)
    4350:	4a41ffcc 	andi	r9,r9,2047
    4354:	0101ffc4 	movi	r4,2047
    4358:	2824d7fa 	srli	r18,r5,31
    435c:	8401ffcc 	andi	r16,r16,2047
    4360:	50c6b03a 	or	r3,r10,r3
    4364:	380ed7fa 	srli	r7,r7,31
    4368:	408ab03a 	or	r5,r8,r2
    436c:	300c90fa 	slli	r6,r6,3
    4370:	49009626 	beq	r9,r4,45cc <__subdf3+0x2c0>
    4374:	39c0005c 	xori	r7,r7,1
    4378:	8245c83a 	sub	r2,r16,r9
    437c:	3c807426 	beq	r7,r18,4550 <__subdf3+0x244>
    4380:	0080af0e 	bge	zero,r2,4640 <__subdf3+0x334>
    4384:	48002a1e 	bne	r9,zero,4430 <__subdf3+0x124>
    4388:	2988b03a 	or	r4,r5,r6
    438c:	20009a1e 	bne	r4,zero,45f8 <__subdf3+0x2ec>
    4390:	888001cc 	andi	r2,r17,7
    4394:	10000726 	beq	r2,zero,43b4 <__subdf3+0xa8>
    4398:	888003cc 	andi	r2,r17,15
    439c:	01000104 	movi	r4,4
    43a0:	11000426 	beq	r2,r4,43b4 <__subdf3+0xa8>
    43a4:	890b883a 	add	r5,r17,r4
    43a8:	2c63803a 	cmpltu	r17,r5,r17
    43ac:	1c47883a 	add	r3,r3,r17
    43b0:	2823883a 	mov	r17,r5
    43b4:	1880202c 	andhi	r2,r3,128
    43b8:	10005926 	beq	r2,zero,4520 <__subdf3+0x214>
    43bc:	84000044 	addi	r16,r16,1
    43c0:	0081ffc4 	movi	r2,2047
    43c4:	8080be26 	beq	r16,r2,46c0 <__subdf3+0x3b4>
    43c8:	017fe034 	movhi	r5,65408
    43cc:	297fffc4 	addi	r5,r5,-1
    43d0:	1946703a 	and	r3,r3,r5
    43d4:	1804977a 	slli	r2,r3,29
    43d8:	1806927a 	slli	r3,r3,9
    43dc:	8822d0fa 	srli	r17,r17,3
    43e0:	8401ffcc 	andi	r16,r16,2047
    43e4:	180ad33a 	srli	r5,r3,12
    43e8:	9100004c 	andi	r4,r18,1
    43ec:	1444b03a 	or	r2,r2,r17
    43f0:	80c1ffcc 	andi	r3,r16,2047
    43f4:	1820953a 	slli	r16,r3,20
    43f8:	20c03fcc 	andi	r3,r4,255
    43fc:	180897fa 	slli	r4,r3,31
    4400:	00c00434 	movhi	r3,16
    4404:	18ffffc4 	addi	r3,r3,-1
    4408:	28c6703a 	and	r3,r5,r3
    440c:	1c06b03a 	or	r3,r3,r16
    4410:	1906b03a 	or	r3,r3,r4
    4414:	dfc00417 	ldw	ra,16(sp)
    4418:	dcc00317 	ldw	r19,12(sp)
    441c:	dc800217 	ldw	r18,8(sp)
    4420:	dc400117 	ldw	r17,4(sp)
    4424:	dc000017 	ldw	r16,0(sp)
    4428:	dec00504 	addi	sp,sp,20
    442c:	f800283a 	ret
    4430:	0101ffc4 	movi	r4,2047
    4434:	813fd626 	beq	r16,r4,4390 <__alt_mem_VGA_Subsystem_Char_Buf_Subsystem_Onchip_SRAM+0xf7004390>
    4438:	29402034 	orhi	r5,r5,128
    443c:	01000e04 	movi	r4,56
    4440:	2080a316 	blt	r4,r2,46d0 <__subdf3+0x3c4>
    4444:	010007c4 	movi	r4,31
    4448:	2080c616 	blt	r4,r2,4764 <__subdf3+0x458>
    444c:	01000804 	movi	r4,32
    4450:	2089c83a 	sub	r4,r4,r2
    4454:	2910983a 	sll	r8,r5,r4
    4458:	308ed83a 	srl	r7,r6,r2
    445c:	3108983a 	sll	r4,r6,r4
    4460:	2884d83a 	srl	r2,r5,r2
    4464:	41ccb03a 	or	r6,r8,r7
    4468:	2008c03a 	cmpne	r4,r4,zero
    446c:	310cb03a 	or	r6,r6,r4
    4470:	898dc83a 	sub	r6,r17,r6
    4474:	89a3803a 	cmpltu	r17,r17,r6
    4478:	1887c83a 	sub	r3,r3,r2
    447c:	1c47c83a 	sub	r3,r3,r17
    4480:	3023883a 	mov	r17,r6
    4484:	1880202c 	andhi	r2,r3,128
    4488:	10002326 	beq	r2,zero,4518 <__subdf3+0x20c>
    448c:	04c02034 	movhi	r19,128
    4490:	9cffffc4 	addi	r19,r19,-1
    4494:	1ce6703a 	and	r19,r3,r19
    4498:	98007a26 	beq	r19,zero,4684 <__subdf3+0x378>
    449c:	9809883a 	mov	r4,r19
    44a0:	0004e740 	call	4e74 <__clzsi2>
    44a4:	113ffe04 	addi	r4,r2,-8
    44a8:	00c007c4 	movi	r3,31
    44ac:	19007b16 	blt	r3,r4,469c <__subdf3+0x390>
    44b0:	00800804 	movi	r2,32
    44b4:	1105c83a 	sub	r2,r2,r4
    44b8:	8884d83a 	srl	r2,r17,r2
    44bc:	9906983a 	sll	r3,r19,r4
    44c0:	8922983a 	sll	r17,r17,r4
    44c4:	10c4b03a 	or	r2,r2,r3
    44c8:	24007816 	blt	r4,r16,46ac <__subdf3+0x3a0>
    44cc:	2421c83a 	sub	r16,r4,r16
    44d0:	80c00044 	addi	r3,r16,1
    44d4:	010007c4 	movi	r4,31
    44d8:	20c09516 	blt	r4,r3,4730 <__subdf3+0x424>
    44dc:	01400804 	movi	r5,32
    44e0:	28cbc83a 	sub	r5,r5,r3
    44e4:	88c8d83a 	srl	r4,r17,r3
    44e8:	8962983a 	sll	r17,r17,r5
    44ec:	114a983a 	sll	r5,r2,r5
    44f0:	10c6d83a 	srl	r3,r2,r3
    44f4:	8804c03a 	cmpne	r2,r17,zero
    44f8:	290ab03a 	or	r5,r5,r4
    44fc:	28a2b03a 	or	r17,r5,r2
    4500:	0021883a 	mov	r16,zero
    4504:	003fa206 	br	4390 <__alt_mem_VGA_Subsystem_Char_Buf_Subsystem_Onchip_SRAM+0xf7004390>
    4508:	2090b03a 	or	r8,r4,r2
    450c:	40018e26 	beq	r8,zero,4b48 <__subdf3+0x83c>
    4510:	1007883a 	mov	r3,r2
    4514:	2023883a 	mov	r17,r4
    4518:	888001cc 	andi	r2,r17,7
    451c:	103f9e1e 	bne	r2,zero,4398 <__alt_mem_VGA_Subsystem_Char_Buf_Subsystem_Onchip_SRAM+0xf7004398>
    4520:	1804977a 	slli	r2,r3,29
    4524:	8822d0fa 	srli	r17,r17,3
    4528:	1810d0fa 	srli	r8,r3,3
    452c:	9100004c 	andi	r4,r18,1
    4530:	1444b03a 	or	r2,r2,r17
    4534:	00c1ffc4 	movi	r3,2047
    4538:	80c02826 	beq	r16,r3,45dc <__subdf3+0x2d0>
    453c:	01400434 	movhi	r5,16
    4540:	297fffc4 	addi	r5,r5,-1
    4544:	80e0703a 	and	r16,r16,r3
    4548:	414a703a 	and	r5,r8,r5
    454c:	003fa806 	br	43f0 <__alt_mem_VGA_Subsystem_Char_Buf_Subsystem_Onchip_SRAM+0xf70043f0>
    4550:	0080630e 	bge	zero,r2,46e0 <__subdf3+0x3d4>
    4554:	48003026 	beq	r9,zero,4618 <__subdf3+0x30c>
    4558:	0101ffc4 	movi	r4,2047
    455c:	813f8c26 	beq	r16,r4,4390 <__alt_mem_VGA_Subsystem_Char_Buf_Subsystem_Onchip_SRAM+0xf7004390>
    4560:	29402034 	orhi	r5,r5,128
    4564:	01000e04 	movi	r4,56
    4568:	2080a90e 	bge	r4,r2,4810 <__subdf3+0x504>
    456c:	298cb03a 	or	r6,r5,r6
    4570:	3012c03a 	cmpne	r9,r6,zero
    4574:	0005883a 	mov	r2,zero
    4578:	4c53883a 	add	r9,r9,r17
    457c:	4c63803a 	cmpltu	r17,r9,r17
    4580:	10c7883a 	add	r3,r2,r3
    4584:	88c7883a 	add	r3,r17,r3
    4588:	4823883a 	mov	r17,r9
    458c:	1880202c 	andhi	r2,r3,128
    4590:	1000d026 	beq	r2,zero,48d4 <__subdf3+0x5c8>
    4594:	84000044 	addi	r16,r16,1
    4598:	0081ffc4 	movi	r2,2047
    459c:	8080fe26 	beq	r16,r2,4998 <__subdf3+0x68c>
    45a0:	00bfe034 	movhi	r2,65408
    45a4:	10bfffc4 	addi	r2,r2,-1
    45a8:	1886703a 	and	r3,r3,r2
    45ac:	880ad07a 	srli	r5,r17,1
    45b0:	180497fa 	slli	r2,r3,31
    45b4:	8900004c 	andi	r4,r17,1
    45b8:	2922b03a 	or	r17,r5,r4
    45bc:	1806d07a 	srli	r3,r3,1
    45c0:	1462b03a 	or	r17,r2,r17
    45c4:	3825883a 	mov	r18,r7
    45c8:	003f7106 	br	4390 <__alt_mem_VGA_Subsystem_Char_Buf_Subsystem_Onchip_SRAM+0xf7004390>
    45cc:	2984b03a 	or	r2,r5,r6
    45d0:	103f6826 	beq	r2,zero,4374 <__alt_mem_VGA_Subsystem_Char_Buf_Subsystem_Onchip_SRAM+0xf7004374>
    45d4:	39c03fcc 	andi	r7,r7,255
    45d8:	003f6706 	br	4378 <__alt_mem_VGA_Subsystem_Char_Buf_Subsystem_Onchip_SRAM+0xf7004378>
    45dc:	4086b03a 	or	r3,r8,r2
    45e0:	18015226 	beq	r3,zero,4b2c <__subdf3+0x820>
    45e4:	00c00434 	movhi	r3,16
    45e8:	41400234 	orhi	r5,r8,8
    45ec:	18ffffc4 	addi	r3,r3,-1
    45f0:	28ca703a 	and	r5,r5,r3
    45f4:	003f7e06 	br	43f0 <__alt_mem_VGA_Subsystem_Char_Buf_Subsystem_Onchip_SRAM+0xf70043f0>
    45f8:	10bfffc4 	addi	r2,r2,-1
    45fc:	1000491e 	bne	r2,zero,4724 <__subdf3+0x418>
    4600:	898fc83a 	sub	r7,r17,r6
    4604:	89e3803a 	cmpltu	r17,r17,r7
    4608:	1947c83a 	sub	r3,r3,r5
    460c:	1c47c83a 	sub	r3,r3,r17
    4610:	3823883a 	mov	r17,r7
    4614:	003f9b06 	br	4484 <__alt_mem_VGA_Subsystem_Char_Buf_Subsystem_Onchip_SRAM+0xf7004484>
    4618:	2988b03a 	or	r4,r5,r6
    461c:	203f5c26 	beq	r4,zero,4390 <__alt_mem_VGA_Subsystem_Char_Buf_Subsystem_Onchip_SRAM+0xf7004390>
    4620:	10bfffc4 	addi	r2,r2,-1
    4624:	1000931e 	bne	r2,zero,4874 <__subdf3+0x568>
    4628:	898d883a 	add	r6,r17,r6
    462c:	3463803a 	cmpltu	r17,r6,r17
    4630:	1947883a 	add	r3,r3,r5
    4634:	88c7883a 	add	r3,r17,r3
    4638:	3023883a 	mov	r17,r6
    463c:	003fd306 	br	458c <__alt_mem_VGA_Subsystem_Char_Buf_Subsystem_Onchip_SRAM+0xf700458c>
    4640:	1000541e 	bne	r2,zero,4794 <__subdf3+0x488>
    4644:	80800044 	addi	r2,r16,1
    4648:	1081ffcc 	andi	r2,r2,2047
    464c:	01000044 	movi	r4,1
    4650:	2080a20e 	bge	r4,r2,48dc <__subdf3+0x5d0>
    4654:	8989c83a 	sub	r4,r17,r6
    4658:	8905803a 	cmpltu	r2,r17,r4
    465c:	1967c83a 	sub	r19,r3,r5
    4660:	98a7c83a 	sub	r19,r19,r2
    4664:	9880202c 	andhi	r2,r19,128
    4668:	10006326 	beq	r2,zero,47f8 <__subdf3+0x4ec>
    466c:	3463c83a 	sub	r17,r6,r17
    4670:	28c7c83a 	sub	r3,r5,r3
    4674:	344d803a 	cmpltu	r6,r6,r17
    4678:	19a7c83a 	sub	r19,r3,r6
    467c:	3825883a 	mov	r18,r7
    4680:	983f861e 	bne	r19,zero,449c <__alt_mem_VGA_Subsystem_Char_Buf_Subsystem_Onchip_SRAM+0xf700449c>
    4684:	8809883a 	mov	r4,r17
    4688:	0004e740 	call	4e74 <__clzsi2>
    468c:	10800804 	addi	r2,r2,32
    4690:	113ffe04 	addi	r4,r2,-8
    4694:	00c007c4 	movi	r3,31
    4698:	193f850e 	bge	r3,r4,44b0 <__alt_mem_VGA_Subsystem_Char_Buf_Subsystem_Onchip_SRAM+0xf70044b0>
    469c:	10bff604 	addi	r2,r2,-40
    46a0:	8884983a 	sll	r2,r17,r2
    46a4:	0023883a 	mov	r17,zero
    46a8:	243f880e 	bge	r4,r16,44cc <__alt_mem_VGA_Subsystem_Char_Buf_Subsystem_Onchip_SRAM+0xf70044cc>
    46ac:	00ffe034 	movhi	r3,65408
    46b0:	18ffffc4 	addi	r3,r3,-1
    46b4:	8121c83a 	sub	r16,r16,r4
    46b8:	10c6703a 	and	r3,r2,r3
    46bc:	003f3406 	br	4390 <__alt_mem_VGA_Subsystem_Char_Buf_Subsystem_Onchip_SRAM+0xf7004390>
    46c0:	9100004c 	andi	r4,r18,1
    46c4:	000b883a 	mov	r5,zero
    46c8:	0005883a 	mov	r2,zero
    46cc:	003f4806 	br	43f0 <__alt_mem_VGA_Subsystem_Char_Buf_Subsystem_Onchip_SRAM+0xf70043f0>
    46d0:	298cb03a 	or	r6,r5,r6
    46d4:	300cc03a 	cmpne	r6,r6,zero
    46d8:	0005883a 	mov	r2,zero
    46dc:	003f6406 	br	4470 <__alt_mem_VGA_Subsystem_Char_Buf_Subsystem_Onchip_SRAM+0xf7004470>
    46e0:	10009a1e 	bne	r2,zero,494c <__subdf3+0x640>
    46e4:	82400044 	addi	r9,r16,1
    46e8:	4881ffcc 	andi	r2,r9,2047
    46ec:	02800044 	movi	r10,1
    46f0:	5080670e 	bge	r10,r2,4890 <__subdf3+0x584>
    46f4:	0081ffc4 	movi	r2,2047
    46f8:	4880af26 	beq	r9,r2,49b8 <__subdf3+0x6ac>
    46fc:	898d883a 	add	r6,r17,r6
    4700:	1945883a 	add	r2,r3,r5
    4704:	3447803a 	cmpltu	r3,r6,r17
    4708:	1887883a 	add	r3,r3,r2
    470c:	182297fa 	slli	r17,r3,31
    4710:	300cd07a 	srli	r6,r6,1
    4714:	1806d07a 	srli	r3,r3,1
    4718:	4821883a 	mov	r16,r9
    471c:	89a2b03a 	or	r17,r17,r6
    4720:	003f1b06 	br	4390 <__alt_mem_VGA_Subsystem_Char_Buf_Subsystem_Onchip_SRAM+0xf7004390>
    4724:	0101ffc4 	movi	r4,2047
    4728:	813f441e 	bne	r16,r4,443c <__alt_mem_VGA_Subsystem_Char_Buf_Subsystem_Onchip_SRAM+0xf700443c>
    472c:	003f1806 	br	4390 <__alt_mem_VGA_Subsystem_Char_Buf_Subsystem_Onchip_SRAM+0xf7004390>
    4730:	843ff844 	addi	r16,r16,-31
    4734:	01400804 	movi	r5,32
    4738:	1408d83a 	srl	r4,r2,r16
    473c:	19405026 	beq	r3,r5,4880 <__subdf3+0x574>
    4740:	01401004 	movi	r5,64
    4744:	28c7c83a 	sub	r3,r5,r3
    4748:	10c4983a 	sll	r2,r2,r3
    474c:	88a2b03a 	or	r17,r17,r2
    4750:	8822c03a 	cmpne	r17,r17,zero
    4754:	2462b03a 	or	r17,r4,r17
    4758:	0007883a 	mov	r3,zero
    475c:	0021883a 	mov	r16,zero
    4760:	003f6d06 	br	4518 <__alt_mem_VGA_Subsystem_Char_Buf_Subsystem_Onchip_SRAM+0xf7004518>
    4764:	11fff804 	addi	r7,r2,-32
    4768:	01000804 	movi	r4,32
    476c:	29ced83a 	srl	r7,r5,r7
    4770:	11004526 	beq	r2,r4,4888 <__subdf3+0x57c>
    4774:	01001004 	movi	r4,64
    4778:	2089c83a 	sub	r4,r4,r2
    477c:	2904983a 	sll	r2,r5,r4
    4780:	118cb03a 	or	r6,r2,r6
    4784:	300cc03a 	cmpne	r6,r6,zero
    4788:	398cb03a 	or	r6,r7,r6
    478c:	0005883a 	mov	r2,zero
    4790:	003f3706 	br	4470 <__alt_mem_VGA_Subsystem_Char_Buf_Subsystem_Onchip_SRAM+0xf7004470>
    4794:	80002a26 	beq	r16,zero,4840 <__subdf3+0x534>
    4798:	0101ffc4 	movi	r4,2047
    479c:	49006626 	beq	r9,r4,4938 <__subdf3+0x62c>
    47a0:	0085c83a 	sub	r2,zero,r2
    47a4:	18c02034 	orhi	r3,r3,128
    47a8:	01000e04 	movi	r4,56
    47ac:	20807e16 	blt	r4,r2,49a8 <__subdf3+0x69c>
    47b0:	010007c4 	movi	r4,31
    47b4:	2080e716 	blt	r4,r2,4b54 <__subdf3+0x848>
    47b8:	01000804 	movi	r4,32
    47bc:	2089c83a 	sub	r4,r4,r2
    47c0:	1914983a 	sll	r10,r3,r4
    47c4:	8890d83a 	srl	r8,r17,r2
    47c8:	8908983a 	sll	r4,r17,r4
    47cc:	1884d83a 	srl	r2,r3,r2
    47d0:	5222b03a 	or	r17,r10,r8
    47d4:	2006c03a 	cmpne	r3,r4,zero
    47d8:	88e2b03a 	or	r17,r17,r3
    47dc:	3463c83a 	sub	r17,r6,r17
    47e0:	2885c83a 	sub	r2,r5,r2
    47e4:	344d803a 	cmpltu	r6,r6,r17
    47e8:	1187c83a 	sub	r3,r2,r6
    47ec:	4821883a 	mov	r16,r9
    47f0:	3825883a 	mov	r18,r7
    47f4:	003f2306 	br	4484 <__alt_mem_VGA_Subsystem_Char_Buf_Subsystem_Onchip_SRAM+0xf7004484>
    47f8:	24d0b03a 	or	r8,r4,r19
    47fc:	40001b1e 	bne	r8,zero,486c <__subdf3+0x560>
    4800:	0005883a 	mov	r2,zero
    4804:	0009883a 	mov	r4,zero
    4808:	0021883a 	mov	r16,zero
    480c:	003f4906 	br	4534 <__alt_mem_VGA_Subsystem_Char_Buf_Subsystem_Onchip_SRAM+0xf7004534>
    4810:	010007c4 	movi	r4,31
    4814:	20803a16 	blt	r4,r2,4900 <__subdf3+0x5f4>
    4818:	01000804 	movi	r4,32
    481c:	2089c83a 	sub	r4,r4,r2
    4820:	2912983a 	sll	r9,r5,r4
    4824:	3090d83a 	srl	r8,r6,r2
    4828:	3108983a 	sll	r4,r6,r4
    482c:	2884d83a 	srl	r2,r5,r2
    4830:	4a12b03a 	or	r9,r9,r8
    4834:	2008c03a 	cmpne	r4,r4,zero
    4838:	4912b03a 	or	r9,r9,r4
    483c:	003f4e06 	br	4578 <__alt_mem_VGA_Subsystem_Char_Buf_Subsystem_Onchip_SRAM+0xf7004578>
    4840:	1c48b03a 	or	r4,r3,r17
    4844:	20003c26 	beq	r4,zero,4938 <__subdf3+0x62c>
    4848:	0084303a 	nor	r2,zero,r2
    484c:	1000381e 	bne	r2,zero,4930 <__subdf3+0x624>
    4850:	3463c83a 	sub	r17,r6,r17
    4854:	28c5c83a 	sub	r2,r5,r3
    4858:	344d803a 	cmpltu	r6,r6,r17
    485c:	1187c83a 	sub	r3,r2,r6
    4860:	4821883a 	mov	r16,r9
    4864:	3825883a 	mov	r18,r7
    4868:	003f0606 	br	4484 <__alt_mem_VGA_Subsystem_Char_Buf_Subsystem_Onchip_SRAM+0xf7004484>
    486c:	2023883a 	mov	r17,r4
    4870:	003f0906 	br	4498 <__alt_mem_VGA_Subsystem_Char_Buf_Subsystem_Onchip_SRAM+0xf7004498>
    4874:	0101ffc4 	movi	r4,2047
    4878:	813f3a1e 	bne	r16,r4,4564 <__alt_mem_VGA_Subsystem_Char_Buf_Subsystem_Onchip_SRAM+0xf7004564>
    487c:	003ec406 	br	4390 <__alt_mem_VGA_Subsystem_Char_Buf_Subsystem_Onchip_SRAM+0xf7004390>
    4880:	0005883a 	mov	r2,zero
    4884:	003fb106 	br	474c <__alt_mem_VGA_Subsystem_Char_Buf_Subsystem_Onchip_SRAM+0xf700474c>
    4888:	0005883a 	mov	r2,zero
    488c:	003fbc06 	br	4780 <__alt_mem_VGA_Subsystem_Char_Buf_Subsystem_Onchip_SRAM+0xf7004780>
    4890:	1c44b03a 	or	r2,r3,r17
    4894:	80008e1e 	bne	r16,zero,4ad0 <__subdf3+0x7c4>
    4898:	1000c826 	beq	r2,zero,4bbc <__subdf3+0x8b0>
    489c:	2984b03a 	or	r2,r5,r6
    48a0:	103ebb26 	beq	r2,zero,4390 <__alt_mem_VGA_Subsystem_Char_Buf_Subsystem_Onchip_SRAM+0xf7004390>
    48a4:	8989883a 	add	r4,r17,r6
    48a8:	1945883a 	add	r2,r3,r5
    48ac:	2447803a 	cmpltu	r3,r4,r17
    48b0:	1887883a 	add	r3,r3,r2
    48b4:	1880202c 	andhi	r2,r3,128
    48b8:	2023883a 	mov	r17,r4
    48bc:	103f1626 	beq	r2,zero,4518 <__alt_mem_VGA_Subsystem_Char_Buf_Subsystem_Onchip_SRAM+0xf7004518>
    48c0:	00bfe034 	movhi	r2,65408
    48c4:	10bfffc4 	addi	r2,r2,-1
    48c8:	5021883a 	mov	r16,r10
    48cc:	1886703a 	and	r3,r3,r2
    48d0:	003eaf06 	br	4390 <__alt_mem_VGA_Subsystem_Char_Buf_Subsystem_Onchip_SRAM+0xf7004390>
    48d4:	3825883a 	mov	r18,r7
    48d8:	003f0f06 	br	4518 <__alt_mem_VGA_Subsystem_Char_Buf_Subsystem_Onchip_SRAM+0xf7004518>
    48dc:	1c44b03a 	or	r2,r3,r17
    48e0:	8000251e 	bne	r16,zero,4978 <__subdf3+0x66c>
    48e4:	1000661e 	bne	r2,zero,4a80 <__subdf3+0x774>
    48e8:	2990b03a 	or	r8,r5,r6
    48ec:	40009626 	beq	r8,zero,4b48 <__subdf3+0x83c>
    48f0:	2807883a 	mov	r3,r5
    48f4:	3023883a 	mov	r17,r6
    48f8:	3825883a 	mov	r18,r7
    48fc:	003ea406 	br	4390 <__alt_mem_VGA_Subsystem_Char_Buf_Subsystem_Onchip_SRAM+0xf7004390>
    4900:	127ff804 	addi	r9,r2,-32
    4904:	01000804 	movi	r4,32
    4908:	2a52d83a 	srl	r9,r5,r9
    490c:	11008c26 	beq	r2,r4,4b40 <__subdf3+0x834>
    4910:	01001004 	movi	r4,64
    4914:	2085c83a 	sub	r2,r4,r2
    4918:	2884983a 	sll	r2,r5,r2
    491c:	118cb03a 	or	r6,r2,r6
    4920:	300cc03a 	cmpne	r6,r6,zero
    4924:	4992b03a 	or	r9,r9,r6
    4928:	0005883a 	mov	r2,zero
    492c:	003f1206 	br	4578 <__alt_mem_VGA_Subsystem_Char_Buf_Subsystem_Onchip_SRAM+0xf7004578>
    4930:	0101ffc4 	movi	r4,2047
    4934:	493f9c1e 	bne	r9,r4,47a8 <__alt_mem_VGA_Subsystem_Char_Buf_Subsystem_Onchip_SRAM+0xf70047a8>
    4938:	2807883a 	mov	r3,r5
    493c:	3023883a 	mov	r17,r6
    4940:	4821883a 	mov	r16,r9
    4944:	3825883a 	mov	r18,r7
    4948:	003e9106 	br	4390 <__alt_mem_VGA_Subsystem_Char_Buf_Subsystem_Onchip_SRAM+0xf7004390>
    494c:	80001f1e 	bne	r16,zero,49cc <__subdf3+0x6c0>
    4950:	1c48b03a 	or	r4,r3,r17
    4954:	20005a26 	beq	r4,zero,4ac0 <__subdf3+0x7b4>
    4958:	0084303a 	nor	r2,zero,r2
    495c:	1000561e 	bne	r2,zero,4ab8 <__subdf3+0x7ac>
    4960:	89a3883a 	add	r17,r17,r6
    4964:	1945883a 	add	r2,r3,r5
    4968:	898d803a 	cmpltu	r6,r17,r6
    496c:	3087883a 	add	r3,r6,r2
    4970:	4821883a 	mov	r16,r9
    4974:	003f0506 	br	458c <__alt_mem_VGA_Subsystem_Char_Buf_Subsystem_Onchip_SRAM+0xf700458c>
    4978:	10002b1e 	bne	r2,zero,4a28 <__subdf3+0x71c>
    497c:	2984b03a 	or	r2,r5,r6
    4980:	10008026 	beq	r2,zero,4b84 <__subdf3+0x878>
    4984:	2807883a 	mov	r3,r5
    4988:	3023883a 	mov	r17,r6
    498c:	3825883a 	mov	r18,r7
    4990:	0401ffc4 	movi	r16,2047
    4994:	003e7e06 	br	4390 <__alt_mem_VGA_Subsystem_Char_Buf_Subsystem_Onchip_SRAM+0xf7004390>
    4998:	3809883a 	mov	r4,r7
    499c:	0011883a 	mov	r8,zero
    49a0:	0005883a 	mov	r2,zero
    49a4:	003ee306 	br	4534 <__alt_mem_VGA_Subsystem_Char_Buf_Subsystem_Onchip_SRAM+0xf7004534>
    49a8:	1c62b03a 	or	r17,r3,r17
    49ac:	8822c03a 	cmpne	r17,r17,zero
    49b0:	0005883a 	mov	r2,zero
    49b4:	003f8906 	br	47dc <__alt_mem_VGA_Subsystem_Char_Buf_Subsystem_Onchip_SRAM+0xf70047dc>
    49b8:	3809883a 	mov	r4,r7
    49bc:	4821883a 	mov	r16,r9
    49c0:	0011883a 	mov	r8,zero
    49c4:	0005883a 	mov	r2,zero
    49c8:	003eda06 	br	4534 <__alt_mem_VGA_Subsystem_Char_Buf_Subsystem_Onchip_SRAM+0xf7004534>
    49cc:	0101ffc4 	movi	r4,2047
    49d0:	49003b26 	beq	r9,r4,4ac0 <__subdf3+0x7b4>
    49d4:	0085c83a 	sub	r2,zero,r2
    49d8:	18c02034 	orhi	r3,r3,128
    49dc:	01000e04 	movi	r4,56
    49e0:	20806e16 	blt	r4,r2,4b9c <__subdf3+0x890>
    49e4:	010007c4 	movi	r4,31
    49e8:	20807716 	blt	r4,r2,4bc8 <__subdf3+0x8bc>
    49ec:	01000804 	movi	r4,32
    49f0:	2089c83a 	sub	r4,r4,r2
    49f4:	1914983a 	sll	r10,r3,r4
    49f8:	8890d83a 	srl	r8,r17,r2
    49fc:	8908983a 	sll	r4,r17,r4
    4a00:	1884d83a 	srl	r2,r3,r2
    4a04:	5222b03a 	or	r17,r10,r8
    4a08:	2006c03a 	cmpne	r3,r4,zero
    4a0c:	88e2b03a 	or	r17,r17,r3
    4a10:	89a3883a 	add	r17,r17,r6
    4a14:	1145883a 	add	r2,r2,r5
    4a18:	898d803a 	cmpltu	r6,r17,r6
    4a1c:	3087883a 	add	r3,r6,r2
    4a20:	4821883a 	mov	r16,r9
    4a24:	003ed906 	br	458c <__alt_mem_VGA_Subsystem_Char_Buf_Subsystem_Onchip_SRAM+0xf700458c>
    4a28:	2984b03a 	or	r2,r5,r6
    4a2c:	10004226 	beq	r2,zero,4b38 <__subdf3+0x82c>
    4a30:	1808d0fa 	srli	r4,r3,3
    4a34:	8822d0fa 	srli	r17,r17,3
    4a38:	1806977a 	slli	r3,r3,29
    4a3c:	2080022c 	andhi	r2,r4,8
    4a40:	1c62b03a 	or	r17,r3,r17
    4a44:	10000826 	beq	r2,zero,4a68 <__subdf3+0x75c>
    4a48:	2812d0fa 	srli	r9,r5,3
    4a4c:	4880022c 	andhi	r2,r9,8
    4a50:	1000051e 	bne	r2,zero,4a68 <__subdf3+0x75c>
    4a54:	300cd0fa 	srli	r6,r6,3
    4a58:	2804977a 	slli	r2,r5,29
    4a5c:	4809883a 	mov	r4,r9
    4a60:	3825883a 	mov	r18,r7
    4a64:	11a2b03a 	or	r17,r2,r6
    4a68:	8806d77a 	srli	r3,r17,29
    4a6c:	200890fa 	slli	r4,r4,3
    4a70:	882290fa 	slli	r17,r17,3
    4a74:	0401ffc4 	movi	r16,2047
    4a78:	1906b03a 	or	r3,r3,r4
    4a7c:	003e4406 	br	4390 <__alt_mem_VGA_Subsystem_Char_Buf_Subsystem_Onchip_SRAM+0xf7004390>
    4a80:	2984b03a 	or	r2,r5,r6
    4a84:	103e4226 	beq	r2,zero,4390 <__alt_mem_VGA_Subsystem_Char_Buf_Subsystem_Onchip_SRAM+0xf7004390>
    4a88:	8989c83a 	sub	r4,r17,r6
    4a8c:	8911803a 	cmpltu	r8,r17,r4
    4a90:	1945c83a 	sub	r2,r3,r5
    4a94:	1205c83a 	sub	r2,r2,r8
    4a98:	1200202c 	andhi	r8,r2,128
    4a9c:	403e9a26 	beq	r8,zero,4508 <__alt_mem_VGA_Subsystem_Char_Buf_Subsystem_Onchip_SRAM+0xf7004508>
    4aa0:	3463c83a 	sub	r17,r6,r17
    4aa4:	28c5c83a 	sub	r2,r5,r3
    4aa8:	344d803a 	cmpltu	r6,r6,r17
    4aac:	1187c83a 	sub	r3,r2,r6
    4ab0:	3825883a 	mov	r18,r7
    4ab4:	003e3606 	br	4390 <__alt_mem_VGA_Subsystem_Char_Buf_Subsystem_Onchip_SRAM+0xf7004390>
    4ab8:	0101ffc4 	movi	r4,2047
    4abc:	493fc71e 	bne	r9,r4,49dc <__alt_mem_VGA_Subsystem_Char_Buf_Subsystem_Onchip_SRAM+0xf70049dc>
    4ac0:	2807883a 	mov	r3,r5
    4ac4:	3023883a 	mov	r17,r6
    4ac8:	4821883a 	mov	r16,r9
    4acc:	003e3006 	br	4390 <__alt_mem_VGA_Subsystem_Char_Buf_Subsystem_Onchip_SRAM+0xf7004390>
    4ad0:	10003626 	beq	r2,zero,4bac <__subdf3+0x8a0>
    4ad4:	2984b03a 	or	r2,r5,r6
    4ad8:	10001726 	beq	r2,zero,4b38 <__subdf3+0x82c>
    4adc:	1808d0fa 	srli	r4,r3,3
    4ae0:	8822d0fa 	srli	r17,r17,3
    4ae4:	1806977a 	slli	r3,r3,29
    4ae8:	2080022c 	andhi	r2,r4,8
    4aec:	1c62b03a 	or	r17,r3,r17
    4af0:	10000726 	beq	r2,zero,4b10 <__subdf3+0x804>
    4af4:	2812d0fa 	srli	r9,r5,3
    4af8:	4880022c 	andhi	r2,r9,8
    4afc:	1000041e 	bne	r2,zero,4b10 <__subdf3+0x804>
    4b00:	300cd0fa 	srli	r6,r6,3
    4b04:	2804977a 	slli	r2,r5,29
    4b08:	4809883a 	mov	r4,r9
    4b0c:	11a2b03a 	or	r17,r2,r6
    4b10:	8806d77a 	srli	r3,r17,29
    4b14:	200890fa 	slli	r4,r4,3
    4b18:	882290fa 	slli	r17,r17,3
    4b1c:	3825883a 	mov	r18,r7
    4b20:	1906b03a 	or	r3,r3,r4
    4b24:	0401ffc4 	movi	r16,2047
    4b28:	003e1906 	br	4390 <__alt_mem_VGA_Subsystem_Char_Buf_Subsystem_Onchip_SRAM+0xf7004390>
    4b2c:	000b883a 	mov	r5,zero
    4b30:	0005883a 	mov	r2,zero
    4b34:	003e2e06 	br	43f0 <__alt_mem_VGA_Subsystem_Char_Buf_Subsystem_Onchip_SRAM+0xf70043f0>
    4b38:	0401ffc4 	movi	r16,2047
    4b3c:	003e1406 	br	4390 <__alt_mem_VGA_Subsystem_Char_Buf_Subsystem_Onchip_SRAM+0xf7004390>
    4b40:	0005883a 	mov	r2,zero
    4b44:	003f7506 	br	491c <__alt_mem_VGA_Subsystem_Char_Buf_Subsystem_Onchip_SRAM+0xf700491c>
    4b48:	0005883a 	mov	r2,zero
    4b4c:	0009883a 	mov	r4,zero
    4b50:	003e7806 	br	4534 <__alt_mem_VGA_Subsystem_Char_Buf_Subsystem_Onchip_SRAM+0xf7004534>
    4b54:	123ff804 	addi	r8,r2,-32
    4b58:	01000804 	movi	r4,32
    4b5c:	1a10d83a 	srl	r8,r3,r8
    4b60:	11002526 	beq	r2,r4,4bf8 <__subdf3+0x8ec>
    4b64:	01001004 	movi	r4,64
    4b68:	2085c83a 	sub	r2,r4,r2
    4b6c:	1884983a 	sll	r2,r3,r2
    4b70:	1444b03a 	or	r2,r2,r17
    4b74:	1004c03a 	cmpne	r2,r2,zero
    4b78:	40a2b03a 	or	r17,r8,r2
    4b7c:	0005883a 	mov	r2,zero
    4b80:	003f1606 	br	47dc <__alt_mem_VGA_Subsystem_Char_Buf_Subsystem_Onchip_SRAM+0xf70047dc>
    4b84:	02000434 	movhi	r8,16
    4b88:	0009883a 	mov	r4,zero
    4b8c:	423fffc4 	addi	r8,r8,-1
    4b90:	00bfffc4 	movi	r2,-1
    4b94:	0401ffc4 	movi	r16,2047
    4b98:	003e6606 	br	4534 <__alt_mem_VGA_Subsystem_Char_Buf_Subsystem_Onchip_SRAM+0xf7004534>
    4b9c:	1c62b03a 	or	r17,r3,r17
    4ba0:	8822c03a 	cmpne	r17,r17,zero
    4ba4:	0005883a 	mov	r2,zero
    4ba8:	003f9906 	br	4a10 <__alt_mem_VGA_Subsystem_Char_Buf_Subsystem_Onchip_SRAM+0xf7004a10>
    4bac:	2807883a 	mov	r3,r5
    4bb0:	3023883a 	mov	r17,r6
    4bb4:	0401ffc4 	movi	r16,2047
    4bb8:	003df506 	br	4390 <__alt_mem_VGA_Subsystem_Char_Buf_Subsystem_Onchip_SRAM+0xf7004390>
    4bbc:	2807883a 	mov	r3,r5
    4bc0:	3023883a 	mov	r17,r6
    4bc4:	003df206 	br	4390 <__alt_mem_VGA_Subsystem_Char_Buf_Subsystem_Onchip_SRAM+0xf7004390>
    4bc8:	123ff804 	addi	r8,r2,-32
    4bcc:	01000804 	movi	r4,32
    4bd0:	1a10d83a 	srl	r8,r3,r8
    4bd4:	11000a26 	beq	r2,r4,4c00 <__subdf3+0x8f4>
    4bd8:	01001004 	movi	r4,64
    4bdc:	2085c83a 	sub	r2,r4,r2
    4be0:	1884983a 	sll	r2,r3,r2
    4be4:	1444b03a 	or	r2,r2,r17
    4be8:	1004c03a 	cmpne	r2,r2,zero
    4bec:	40a2b03a 	or	r17,r8,r2
    4bf0:	0005883a 	mov	r2,zero
    4bf4:	003f8606 	br	4a10 <__alt_mem_VGA_Subsystem_Char_Buf_Subsystem_Onchip_SRAM+0xf7004a10>
    4bf8:	0005883a 	mov	r2,zero
    4bfc:	003fdc06 	br	4b70 <__alt_mem_VGA_Subsystem_Char_Buf_Subsystem_Onchip_SRAM+0xf7004b70>
    4c00:	0005883a 	mov	r2,zero
    4c04:	003ff706 	br	4be4 <__alt_mem_VGA_Subsystem_Char_Buf_Subsystem_Onchip_SRAM+0xf7004be4>

00004c08 <__fixdfsi>:
    4c08:	280cd53a 	srli	r6,r5,20
    4c0c:	00c00434 	movhi	r3,16
    4c10:	18ffffc4 	addi	r3,r3,-1
    4c14:	3181ffcc 	andi	r6,r6,2047
    4c18:	01c0ff84 	movi	r7,1022
    4c1c:	28c6703a 	and	r3,r5,r3
    4c20:	280ad7fa 	srli	r5,r5,31
    4c24:	3980120e 	bge	r7,r6,4c70 <__fixdfsi+0x68>
    4c28:	00810744 	movi	r2,1053
    4c2c:	11800c16 	blt	r2,r6,4c60 <__fixdfsi+0x58>
    4c30:	00810cc4 	movi	r2,1075
    4c34:	1185c83a 	sub	r2,r2,r6
    4c38:	01c007c4 	movi	r7,31
    4c3c:	18c00434 	orhi	r3,r3,16
    4c40:	38800d16 	blt	r7,r2,4c78 <__fixdfsi+0x70>
    4c44:	31befb44 	addi	r6,r6,-1043
    4c48:	2084d83a 	srl	r2,r4,r2
    4c4c:	1986983a 	sll	r3,r3,r6
    4c50:	1884b03a 	or	r2,r3,r2
    4c54:	28000726 	beq	r5,zero,4c74 <__fixdfsi+0x6c>
    4c58:	0085c83a 	sub	r2,zero,r2
    4c5c:	f800283a 	ret
    4c60:	00a00034 	movhi	r2,32768
    4c64:	10bfffc4 	addi	r2,r2,-1
    4c68:	2885883a 	add	r2,r5,r2
    4c6c:	f800283a 	ret
    4c70:	0005883a 	mov	r2,zero
    4c74:	f800283a 	ret
    4c78:	008104c4 	movi	r2,1043
    4c7c:	1185c83a 	sub	r2,r2,r6
    4c80:	1884d83a 	srl	r2,r3,r2
    4c84:	003ff306 	br	4c54 <__alt_mem_VGA_Subsystem_Char_Buf_Subsystem_Onchip_SRAM+0xf7004c54>

00004c88 <__floatsidf>:
    4c88:	defffd04 	addi	sp,sp,-12
    4c8c:	dfc00215 	stw	ra,8(sp)
    4c90:	dc400115 	stw	r17,4(sp)
    4c94:	dc000015 	stw	r16,0(sp)
    4c98:	20002b26 	beq	r4,zero,4d48 <__floatsidf+0xc0>
    4c9c:	2023883a 	mov	r17,r4
    4ca0:	2020d7fa 	srli	r16,r4,31
    4ca4:	20002d16 	blt	r4,zero,4d5c <__floatsidf+0xd4>
    4ca8:	8809883a 	mov	r4,r17
    4cac:	0004e740 	call	4e74 <__clzsi2>
    4cb0:	01410784 	movi	r5,1054
    4cb4:	288bc83a 	sub	r5,r5,r2
    4cb8:	01010cc4 	movi	r4,1075
    4cbc:	2149c83a 	sub	r4,r4,r5
    4cc0:	00c007c4 	movi	r3,31
    4cc4:	1900160e 	bge	r3,r4,4d20 <__floatsidf+0x98>
    4cc8:	00c104c4 	movi	r3,1043
    4ccc:	1947c83a 	sub	r3,r3,r5
    4cd0:	88c6983a 	sll	r3,r17,r3
    4cd4:	00800434 	movhi	r2,16
    4cd8:	10bfffc4 	addi	r2,r2,-1
    4cdc:	1886703a 	and	r3,r3,r2
    4ce0:	2941ffcc 	andi	r5,r5,2047
    4ce4:	800d883a 	mov	r6,r16
    4ce8:	0005883a 	mov	r2,zero
    4cec:	280a953a 	slli	r5,r5,20
    4cf0:	31803fcc 	andi	r6,r6,255
    4cf4:	01000434 	movhi	r4,16
    4cf8:	300c97fa 	slli	r6,r6,31
    4cfc:	213fffc4 	addi	r4,r4,-1
    4d00:	1906703a 	and	r3,r3,r4
    4d04:	1946b03a 	or	r3,r3,r5
    4d08:	1986b03a 	or	r3,r3,r6
    4d0c:	dfc00217 	ldw	ra,8(sp)
    4d10:	dc400117 	ldw	r17,4(sp)
    4d14:	dc000017 	ldw	r16,0(sp)
    4d18:	dec00304 	addi	sp,sp,12
    4d1c:	f800283a 	ret
    4d20:	00c002c4 	movi	r3,11
    4d24:	1887c83a 	sub	r3,r3,r2
    4d28:	88c6d83a 	srl	r3,r17,r3
    4d2c:	8904983a 	sll	r2,r17,r4
    4d30:	01000434 	movhi	r4,16
    4d34:	213fffc4 	addi	r4,r4,-1
    4d38:	2941ffcc 	andi	r5,r5,2047
    4d3c:	1906703a 	and	r3,r3,r4
    4d40:	800d883a 	mov	r6,r16
    4d44:	003fe906 	br	4cec <__alt_mem_VGA_Subsystem_Char_Buf_Subsystem_Onchip_SRAM+0xf7004cec>
    4d48:	000d883a 	mov	r6,zero
    4d4c:	000b883a 	mov	r5,zero
    4d50:	0007883a 	mov	r3,zero
    4d54:	0005883a 	mov	r2,zero
    4d58:	003fe406 	br	4cec <__alt_mem_VGA_Subsystem_Char_Buf_Subsystem_Onchip_SRAM+0xf7004cec>
    4d5c:	0123c83a 	sub	r17,zero,r4
    4d60:	003fd106 	br	4ca8 <__alt_mem_VGA_Subsystem_Char_Buf_Subsystem_Onchip_SRAM+0xf7004ca8>

00004d64 <__extendsfdf2>:
    4d64:	200ad5fa 	srli	r5,r4,23
    4d68:	defffd04 	addi	sp,sp,-12
    4d6c:	dc400115 	stw	r17,4(sp)
    4d70:	29403fcc 	andi	r5,r5,255
    4d74:	29800044 	addi	r6,r5,1
    4d78:	04402034 	movhi	r17,128
    4d7c:	dc000015 	stw	r16,0(sp)
    4d80:	8c7fffc4 	addi	r17,r17,-1
    4d84:	dfc00215 	stw	ra,8(sp)
    4d88:	31803fcc 	andi	r6,r6,255
    4d8c:	00800044 	movi	r2,1
    4d90:	8922703a 	and	r17,r17,r4
    4d94:	2020d7fa 	srli	r16,r4,31
    4d98:	1180110e 	bge	r2,r6,4de0 <__extendsfdf2+0x7c>
    4d9c:	880cd0fa 	srli	r6,r17,3
    4da0:	8822977a 	slli	r17,r17,29
    4da4:	2940e004 	addi	r5,r5,896
    4da8:	2941ffcc 	andi	r5,r5,2047
    4dac:	2804953a 	slli	r2,r5,20
    4db0:	01400434 	movhi	r5,16
    4db4:	800697fa 	slli	r3,r16,31
    4db8:	297fffc4 	addi	r5,r5,-1
    4dbc:	314a703a 	and	r5,r6,r5
    4dc0:	288ab03a 	or	r5,r5,r2
    4dc4:	28c6b03a 	or	r3,r5,r3
    4dc8:	8805883a 	mov	r2,r17
    4dcc:	dfc00217 	ldw	ra,8(sp)
    4dd0:	dc400117 	ldw	r17,4(sp)
    4dd4:	dc000017 	ldw	r16,0(sp)
    4dd8:	dec00304 	addi	sp,sp,12
    4ddc:	f800283a 	ret
    4de0:	2800111e 	bne	r5,zero,4e28 <__extendsfdf2+0xc4>
    4de4:	88001c26 	beq	r17,zero,4e58 <__extendsfdf2+0xf4>
    4de8:	8809883a 	mov	r4,r17
    4dec:	0004e740 	call	4e74 <__clzsi2>
    4df0:	00c00284 	movi	r3,10
    4df4:	18801b16 	blt	r3,r2,4e64 <__extendsfdf2+0x100>
    4df8:	018002c4 	movi	r6,11
    4dfc:	308dc83a 	sub	r6,r6,r2
    4e00:	11000544 	addi	r4,r2,21
    4e04:	8986d83a 	srl	r3,r17,r6
    4e08:	8922983a 	sll	r17,r17,r4
    4e0c:	0180e244 	movi	r6,905
    4e10:	01400434 	movhi	r5,16
    4e14:	3085c83a 	sub	r2,r6,r2
    4e18:	297fffc4 	addi	r5,r5,-1
    4e1c:	194c703a 	and	r6,r3,r5
    4e20:	1141ffcc 	andi	r5,r2,2047
    4e24:	003fe006 	br	4da8 <__alt_mem_VGA_Subsystem_Char_Buf_Subsystem_Onchip_SRAM+0xf7004da8>
    4e28:	88000826 	beq	r17,zero,4e4c <__extendsfdf2+0xe8>
    4e2c:	880cd0fa 	srli	r6,r17,3
    4e30:	00800434 	movhi	r2,16
    4e34:	10bfffc4 	addi	r2,r2,-1
    4e38:	31800234 	orhi	r6,r6,8
    4e3c:	8822977a 	slli	r17,r17,29
    4e40:	308c703a 	and	r6,r6,r2
    4e44:	0141ffc4 	movi	r5,2047
    4e48:	003fd706 	br	4da8 <__alt_mem_VGA_Subsystem_Char_Buf_Subsystem_Onchip_SRAM+0xf7004da8>
    4e4c:	0141ffc4 	movi	r5,2047
    4e50:	000d883a 	mov	r6,zero
    4e54:	003fd406 	br	4da8 <__alt_mem_VGA_Subsystem_Char_Buf_Subsystem_Onchip_SRAM+0xf7004da8>
    4e58:	000b883a 	mov	r5,zero
    4e5c:	000d883a 	mov	r6,zero
    4e60:	003fd106 	br	4da8 <__alt_mem_VGA_Subsystem_Char_Buf_Subsystem_Onchip_SRAM+0xf7004da8>
    4e64:	11bffd44 	addi	r6,r2,-11
    4e68:	8986983a 	sll	r3,r17,r6
    4e6c:	0023883a 	mov	r17,zero
    4e70:	003fe606 	br	4e0c <__alt_mem_VGA_Subsystem_Char_Buf_Subsystem_Onchip_SRAM+0xf7004e0c>

00004e74 <__clzsi2>:
    4e74:	00bfffd4 	movui	r2,65535
    4e78:	11000536 	bltu	r2,r4,4e90 <__clzsi2+0x1c>
    4e7c:	00803fc4 	movi	r2,255
    4e80:	11000f36 	bltu	r2,r4,4ec0 <__clzsi2+0x4c>
    4e84:	00800804 	movi	r2,32
    4e88:	0007883a 	mov	r3,zero
    4e8c:	00000506 	br	4ea4 <__clzsi2+0x30>
    4e90:	00804034 	movhi	r2,256
    4e94:	10bfffc4 	addi	r2,r2,-1
    4e98:	11000c2e 	bgeu	r2,r4,4ecc <__clzsi2+0x58>
    4e9c:	00800204 	movi	r2,8
    4ea0:	00c00604 	movi	r3,24
    4ea4:	20c8d83a 	srl	r4,r4,r3
    4ea8:	00c00074 	movhi	r3,1
    4eac:	18cc3f04 	addi	r3,r3,12540
    4eb0:	1909883a 	add	r4,r3,r4
    4eb4:	20c00003 	ldbu	r3,0(r4)
    4eb8:	10c5c83a 	sub	r2,r2,r3
    4ebc:	f800283a 	ret
    4ec0:	00800604 	movi	r2,24
    4ec4:	00c00204 	movi	r3,8
    4ec8:	003ff606 	br	4ea4 <__alt_mem_VGA_Subsystem_Char_Buf_Subsystem_Onchip_SRAM+0xf7004ea4>
    4ecc:	00800404 	movi	r2,16
    4ed0:	1007883a 	mov	r3,r2
    4ed4:	003ff306 	br	4ea4 <__alt_mem_VGA_Subsystem_Char_Buf_Subsystem_Onchip_SRAM+0xf7004ea4>

00004ed8 <_printf_r>:
    4ed8:	defffd04 	addi	sp,sp,-12
    4edc:	2805883a 	mov	r2,r5
    4ee0:	dfc00015 	stw	ra,0(sp)
    4ee4:	d9800115 	stw	r6,4(sp)
    4ee8:	d9c00215 	stw	r7,8(sp)
    4eec:	21400217 	ldw	r5,8(r4)
    4ef0:	d9c00104 	addi	r7,sp,4
    4ef4:	100d883a 	mov	r6,r2
    4ef8:	00050b00 	call	50b0 <___vfprintf_internal_r>
    4efc:	dfc00017 	ldw	ra,0(sp)
    4f00:	dec00304 	addi	sp,sp,12
    4f04:	f800283a 	ret

00004f08 <printf>:
    4f08:	defffc04 	addi	sp,sp,-16
    4f0c:	dfc00015 	stw	ra,0(sp)
    4f10:	d9400115 	stw	r5,4(sp)
    4f14:	d9800215 	stw	r6,8(sp)
    4f18:	d9c00315 	stw	r7,12(sp)
    4f1c:	00800074 	movhi	r2,1
    4f20:	10940904 	addi	r2,r2,20516
    4f24:	10800017 	ldw	r2,0(r2)
    4f28:	200b883a 	mov	r5,r4
    4f2c:	d9800104 	addi	r6,sp,4
    4f30:	11000217 	ldw	r4,8(r2)
    4f34:	000738c0 	call	738c <__vfprintf_internal>
    4f38:	dfc00017 	ldw	ra,0(sp)
    4f3c:	dec00404 	addi	sp,sp,16
    4f40:	f800283a 	ret

00004f44 <_puts_r>:
    4f44:	defff604 	addi	sp,sp,-40
    4f48:	dc000715 	stw	r16,28(sp)
    4f4c:	2021883a 	mov	r16,r4
    4f50:	2809883a 	mov	r4,r5
    4f54:	dc400815 	stw	r17,32(sp)
    4f58:	dfc00915 	stw	ra,36(sp)
    4f5c:	2823883a 	mov	r17,r5
    4f60:	00050180 	call	5018 <strlen>
    4f64:	10c00044 	addi	r3,r2,1
    4f68:	d8800115 	stw	r2,4(sp)
    4f6c:	00800074 	movhi	r2,1
    4f70:	108c7f04 	addi	r2,r2,12796
    4f74:	d8800215 	stw	r2,8(sp)
    4f78:	00800044 	movi	r2,1
    4f7c:	d8800315 	stw	r2,12(sp)
    4f80:	00800084 	movi	r2,2
    4f84:	dc400015 	stw	r17,0(sp)
    4f88:	d8c00615 	stw	r3,24(sp)
    4f8c:	dec00415 	stw	sp,16(sp)
    4f90:	d8800515 	stw	r2,20(sp)
    4f94:	80000226 	beq	r16,zero,4fa0 <_puts_r+0x5c>
    4f98:	80800e17 	ldw	r2,56(r16)
    4f9c:	10001426 	beq	r2,zero,4ff0 <_puts_r+0xac>
    4fa0:	81400217 	ldw	r5,8(r16)
    4fa4:	2880030b 	ldhu	r2,12(r5)
    4fa8:	10c8000c 	andi	r3,r2,8192
    4fac:	1800061e 	bne	r3,zero,4fc8 <_puts_r+0x84>
    4fb0:	29001917 	ldw	r4,100(r5)
    4fb4:	00f7ffc4 	movi	r3,-8193
    4fb8:	10880014 	ori	r2,r2,8192
    4fbc:	20c6703a 	and	r3,r4,r3
    4fc0:	2880030d 	sth	r2,12(r5)
    4fc4:	28c01915 	stw	r3,100(r5)
    4fc8:	d9800404 	addi	r6,sp,16
    4fcc:	8009883a 	mov	r4,r16
    4fd0:	00098f40 	call	98f4 <__sfvwrite_r>
    4fd4:	1000091e 	bne	r2,zero,4ffc <_puts_r+0xb8>
    4fd8:	00800284 	movi	r2,10
    4fdc:	dfc00917 	ldw	ra,36(sp)
    4fe0:	dc400817 	ldw	r17,32(sp)
    4fe4:	dc000717 	ldw	r16,28(sp)
    4fe8:	dec00a04 	addi	sp,sp,40
    4fec:	f800283a 	ret
    4ff0:	8009883a 	mov	r4,r16
    4ff4:	00094700 	call	9470 <__sinit>
    4ff8:	003fe906 	br	4fa0 <__alt_mem_VGA_Subsystem_Char_Buf_Subsystem_Onchip_SRAM+0xf7004fa0>
    4ffc:	00bfffc4 	movi	r2,-1
    5000:	003ff606 	br	4fdc <__alt_mem_VGA_Subsystem_Char_Buf_Subsystem_Onchip_SRAM+0xf7004fdc>

00005004 <puts>:
    5004:	00800074 	movhi	r2,1
    5008:	10940904 	addi	r2,r2,20516
    500c:	200b883a 	mov	r5,r4
    5010:	11000017 	ldw	r4,0(r2)
    5014:	0004f441 	jmpi	4f44 <_puts_r>

00005018 <strlen>:
    5018:	208000cc 	andi	r2,r4,3
    501c:	10002026 	beq	r2,zero,50a0 <strlen+0x88>
    5020:	20800007 	ldb	r2,0(r4)
    5024:	10002026 	beq	r2,zero,50a8 <strlen+0x90>
    5028:	2005883a 	mov	r2,r4
    502c:	00000206 	br	5038 <strlen+0x20>
    5030:	10c00007 	ldb	r3,0(r2)
    5034:	18001826 	beq	r3,zero,5098 <strlen+0x80>
    5038:	10800044 	addi	r2,r2,1
    503c:	10c000cc 	andi	r3,r2,3
    5040:	183ffb1e 	bne	r3,zero,5030 <__alt_mem_VGA_Subsystem_Char_Buf_Subsystem_Onchip_SRAM+0xf7005030>
    5044:	10c00017 	ldw	r3,0(r2)
    5048:	01ffbff4 	movhi	r7,65279
    504c:	39ffbfc4 	addi	r7,r7,-257
    5050:	00ca303a 	nor	r5,zero,r3
    5054:	01a02074 	movhi	r6,32897
    5058:	19c7883a 	add	r3,r3,r7
    505c:	31a02004 	addi	r6,r6,-32640
    5060:	1946703a 	and	r3,r3,r5
    5064:	1986703a 	and	r3,r3,r6
    5068:	1800091e 	bne	r3,zero,5090 <strlen+0x78>
    506c:	10800104 	addi	r2,r2,4
    5070:	10c00017 	ldw	r3,0(r2)
    5074:	19cb883a 	add	r5,r3,r7
    5078:	00c6303a 	nor	r3,zero,r3
    507c:	28c6703a 	and	r3,r5,r3
    5080:	1986703a 	and	r3,r3,r6
    5084:	183ff926 	beq	r3,zero,506c <__alt_mem_VGA_Subsystem_Char_Buf_Subsystem_Onchip_SRAM+0xf700506c>
    5088:	00000106 	br	5090 <strlen+0x78>
    508c:	10800044 	addi	r2,r2,1
    5090:	10c00007 	ldb	r3,0(r2)
    5094:	183ffd1e 	bne	r3,zero,508c <__alt_mem_VGA_Subsystem_Char_Buf_Subsystem_Onchip_SRAM+0xf700508c>
    5098:	1105c83a 	sub	r2,r2,r4
    509c:	f800283a 	ret
    50a0:	2005883a 	mov	r2,r4
    50a4:	003fe706 	br	5044 <__alt_mem_VGA_Subsystem_Char_Buf_Subsystem_Onchip_SRAM+0xf7005044>
    50a8:	0005883a 	mov	r2,zero
    50ac:	f800283a 	ret

000050b0 <___vfprintf_internal_r>:
    50b0:	deffb804 	addi	sp,sp,-288
    50b4:	dfc04715 	stw	ra,284(sp)
    50b8:	ddc04515 	stw	r23,276(sp)
    50bc:	dd404315 	stw	r21,268(sp)
    50c0:	d9002d15 	stw	r4,180(sp)
    50c4:	282f883a 	mov	r23,r5
    50c8:	302b883a 	mov	r21,r6
    50cc:	d9c02e15 	stw	r7,184(sp)
    50d0:	df004615 	stw	fp,280(sp)
    50d4:	dd804415 	stw	r22,272(sp)
    50d8:	dd004215 	stw	r20,264(sp)
    50dc:	dcc04115 	stw	r19,260(sp)
    50e0:	dc804015 	stw	r18,256(sp)
    50e4:	dc403f15 	stw	r17,252(sp)
    50e8:	dc003e15 	stw	r16,248(sp)
    50ec:	0009ff00 	call	9ff0 <_localeconv_r>
    50f0:	10800017 	ldw	r2,0(r2)
    50f4:	1009883a 	mov	r4,r2
    50f8:	d8803415 	stw	r2,208(sp)
    50fc:	00050180 	call	5018 <strlen>
    5100:	d8803715 	stw	r2,220(sp)
    5104:	d8802d17 	ldw	r2,180(sp)
    5108:	10000226 	beq	r2,zero,5114 <___vfprintf_internal_r+0x64>
    510c:	10800e17 	ldw	r2,56(r2)
    5110:	1000fb26 	beq	r2,zero,5500 <___vfprintf_internal_r+0x450>
    5114:	b880030b 	ldhu	r2,12(r23)
    5118:	10c8000c 	andi	r3,r2,8192
    511c:	1800061e 	bne	r3,zero,5138 <___vfprintf_internal_r+0x88>
    5120:	b9001917 	ldw	r4,100(r23)
    5124:	00f7ffc4 	movi	r3,-8193
    5128:	10880014 	ori	r2,r2,8192
    512c:	20c6703a 	and	r3,r4,r3
    5130:	b880030d 	sth	r2,12(r23)
    5134:	b8c01915 	stw	r3,100(r23)
    5138:	10c0020c 	andi	r3,r2,8
    513c:	1800c326 	beq	r3,zero,544c <___vfprintf_internal_r+0x39c>
    5140:	b8c00417 	ldw	r3,16(r23)
    5144:	1800c126 	beq	r3,zero,544c <___vfprintf_internal_r+0x39c>
    5148:	1080068c 	andi	r2,r2,26
    514c:	00c00284 	movi	r3,10
    5150:	10c0c626 	beq	r2,r3,546c <___vfprintf_internal_r+0x3bc>
    5154:	d8c00404 	addi	r3,sp,16
    5158:	05000074 	movhi	r20,1
    515c:	d9001e04 	addi	r4,sp,120
    5160:	a50c9084 	addi	r20,r20,12866
    5164:	d8c01e15 	stw	r3,120(sp)
    5168:	d8002015 	stw	zero,128(sp)
    516c:	d8001f15 	stw	zero,124(sp)
    5170:	d8003315 	stw	zero,204(sp)
    5174:	d8003615 	stw	zero,216(sp)
    5178:	d8003815 	stw	zero,224(sp)
    517c:	1811883a 	mov	r8,r3
    5180:	d8003915 	stw	zero,228(sp)
    5184:	d8003a15 	stw	zero,232(sp)
    5188:	d8002f15 	stw	zero,188(sp)
    518c:	d9002815 	stw	r4,160(sp)
    5190:	a8800007 	ldb	r2,0(r21)
    5194:	10028b26 	beq	r2,zero,5bc4 <___vfprintf_internal_r+0xb14>
    5198:	00c00944 	movi	r3,37
    519c:	a823883a 	mov	r17,r21
    51a0:	10c0021e 	bne	r2,r3,51ac <___vfprintf_internal_r+0xfc>
    51a4:	00001406 	br	51f8 <___vfprintf_internal_r+0x148>
    51a8:	10c00326 	beq	r2,r3,51b8 <___vfprintf_internal_r+0x108>
    51ac:	8c400044 	addi	r17,r17,1
    51b0:	88800007 	ldb	r2,0(r17)
    51b4:	103ffc1e 	bne	r2,zero,51a8 <__alt_mem_VGA_Subsystem_Char_Buf_Subsystem_Onchip_SRAM+0xf70051a8>
    51b8:	8d61c83a 	sub	r16,r17,r21
    51bc:	80000e26 	beq	r16,zero,51f8 <___vfprintf_internal_r+0x148>
    51c0:	d8c02017 	ldw	r3,128(sp)
    51c4:	d8801f17 	ldw	r2,124(sp)
    51c8:	45400015 	stw	r21,0(r8)
    51cc:	1c07883a 	add	r3,r3,r16
    51d0:	10800044 	addi	r2,r2,1
    51d4:	d8c02015 	stw	r3,128(sp)
    51d8:	44000115 	stw	r16,4(r8)
    51dc:	d8801f15 	stw	r2,124(sp)
    51e0:	00c001c4 	movi	r3,7
    51e4:	1880a916 	blt	r3,r2,548c <___vfprintf_internal_r+0x3dc>
    51e8:	42000204 	addi	r8,r8,8
    51ec:	d9402f17 	ldw	r5,188(sp)
    51f0:	2c0b883a 	add	r5,r5,r16
    51f4:	d9402f15 	stw	r5,188(sp)
    51f8:	88800007 	ldb	r2,0(r17)
    51fc:	1000aa26 	beq	r2,zero,54a8 <___vfprintf_internal_r+0x3f8>
    5200:	8d400044 	addi	r21,r17,1
    5204:	8c400047 	ldb	r17,1(r17)
    5208:	0021883a 	mov	r16,zero
    520c:	00bfffc4 	movi	r2,-1
    5210:	0025883a 	mov	r18,zero
    5214:	dc002905 	stb	r16,164(sp)
    5218:	d8002785 	stb	zero,158(sp)
    521c:	d8002b05 	stb	zero,172(sp)
    5220:	d8802a15 	stw	r2,168(sp)
    5224:	d8003115 	stw	zero,196(sp)
    5228:	04c01604 	movi	r19,88
    522c:	05800244 	movi	r22,9
    5230:	9021883a 	mov	r16,r18
    5234:	4039883a 	mov	fp,r8
    5238:	ad400044 	addi	r21,r21,1
    523c:	88bff804 	addi	r2,r17,-32
    5240:	98833236 	bltu	r19,r2,5f0c <___vfprintf_internal_r+0xe5c>
    5244:	100490ba 	slli	r2,r2,2
    5248:	00c00034 	movhi	r3,0
    524c:	18d49704 	addi	r3,r3,21084
    5250:	10c5883a 	add	r2,r2,r3
    5254:	10800017 	ldw	r2,0(r2)
    5258:	1000683a 	jmp	r2
    525c:	00005e04 	movi	zero,376
    5260:	00005f0c 	andi	zero,zero,380
    5264:	00005f0c 	andi	zero,zero,380
    5268:	00005e24 	muli	zero,zero,376
    526c:	00005f0c 	andi	zero,zero,380
    5270:	00005f0c 	andi	zero,zero,380
    5274:	00005f0c 	andi	zero,zero,380
    5278:	00005f0c 	andi	zero,zero,380
    527c:	00005f0c 	andi	zero,zero,380
    5280:	00005f0c 	andi	zero,zero,380
    5284:	0000550c 	andi	zero,zero,340
    5288:	00005d14 	movui	zero,372
    528c:	00005f0c 	andi	zero,zero,380
    5290:	000053d0 	cmplti	zero,zero,335
    5294:	00005530 	cmpltui	zero,zero,340
    5298:	00005f0c 	andi	zero,zero,380
    529c:	00005580 	call	558 <vga_draw_line+0xe8>
    52a0:	0000558c 	andi	zero,zero,342
    52a4:	0000558c 	andi	zero,zero,342
    52a8:	0000558c 	andi	zero,zero,342
    52ac:	0000558c 	andi	zero,zero,342
    52b0:	0000558c 	andi	zero,zero,342
    52b4:	0000558c 	andi	zero,zero,342
    52b8:	0000558c 	andi	zero,zero,342
    52bc:	0000558c 	andi	zero,zero,342
    52c0:	0000558c 	andi	zero,zero,342
    52c4:	00005f0c 	andi	zero,zero,380
    52c8:	00005f0c 	andi	zero,zero,380
    52cc:	00005f0c 	andi	zero,zero,380
    52d0:	00005f0c 	andi	zero,zero,380
    52d4:	00005f0c 	andi	zero,zero,380
    52d8:	00005f0c 	andi	zero,zero,380
    52dc:	00005f0c 	andi	zero,zero,380
    52e0:	00005f0c 	andi	zero,zero,380
    52e4:	00005f0c 	andi	zero,zero,380
    52e8:	00005f0c 	andi	zero,zero,380
    52ec:	000055c8 	cmpgei	zero,zero,343
    52f0:	00005690 	cmplti	zero,zero,346
    52f4:	00005f0c 	andi	zero,zero,380
    52f8:	00005690 	cmplti	zero,zero,346
    52fc:	00005f0c 	andi	zero,zero,380
    5300:	00005f0c 	andi	zero,zero,380
    5304:	00005f0c 	andi	zero,zero,380
    5308:	00005f0c 	andi	zero,zero,380
    530c:	0000573c 	xorhi	zero,zero,348
    5310:	00005f0c 	andi	zero,zero,380
    5314:	00005f0c 	andi	zero,zero,380
    5318:	00005748 	cmpgei	zero,zero,349
    531c:	00005f0c 	andi	zero,zero,380
    5320:	00005f0c 	andi	zero,zero,380
    5324:	00005f0c 	andi	zero,zero,380
    5328:	00005f0c 	andi	zero,zero,380
    532c:	00005f0c 	andi	zero,zero,380
    5330:	00005bcc 	andi	zero,zero,367
    5334:	00005f0c 	andi	zero,zero,380
    5338:	00005f0c 	andi	zero,zero,380
    533c:	00005c38 	rdprs	zero,zero,368
    5340:	00005f0c 	andi	zero,zero,380
    5344:	00005f0c 	andi	zero,zero,380
    5348:	00005f0c 	andi	zero,zero,380
    534c:	00005f0c 	andi	zero,zero,380
    5350:	00005f0c 	andi	zero,zero,380
    5354:	00005f0c 	andi	zero,zero,380
    5358:	00005f0c 	andi	zero,zero,380
    535c:	00005f0c 	andi	zero,zero,380
    5360:	00005f0c 	andi	zero,zero,380
    5364:	00005f0c 	andi	zero,zero,380
    5368:	00005eb0 	cmpltui	zero,zero,378
    536c:	00005e30 	cmpltui	zero,zero,376
    5370:	00005690 	cmplti	zero,zero,346
    5374:	00005690 	cmplti	zero,zero,346
    5378:	00005690 	cmplti	zero,zero,346
    537c:	00005e50 	cmplti	zero,zero,377
    5380:	00005e30 	cmpltui	zero,zero,376
    5384:	00005f0c 	andi	zero,zero,380
    5388:	00005f0c 	andi	zero,zero,380
    538c:	00005e5c 	xori	zero,zero,377
    5390:	00005f0c 	andi	zero,zero,380
    5394:	00005e70 	cmpltui	zero,zero,377
    5398:	00005cf4 	movhi	zero,371
    539c:	000053dc 	xori	zero,zero,335
    53a0:	00005d2c 	andhi	zero,zero,372
    53a4:	00005f0c 	andi	zero,zero,380
    53a8:	00005d38 	rdprs	zero,zero,372
    53ac:	00005f0c 	andi	zero,zero,380
    53b0:	00005d9c 	xori	zero,zero,374
    53b4:	00005f0c 	andi	zero,zero,380
    53b8:	00005f0c 	andi	zero,zero,380
    53bc:	00005dbc 	xorhi	zero,zero,374
    53c0:	d8c03117 	ldw	r3,196(sp)
    53c4:	d8802e15 	stw	r2,184(sp)
    53c8:	00c7c83a 	sub	r3,zero,r3
    53cc:	d8c03115 	stw	r3,196(sp)
    53d0:	84000114 	ori	r16,r16,4
    53d4:	ac400007 	ldb	r17,0(r21)
    53d8:	003f9706 	br	5238 <__alt_mem_VGA_Subsystem_Char_Buf_Subsystem_Onchip_SRAM+0xf7005238>
    53dc:	00800c04 	movi	r2,48
    53e0:	d8802705 	stb	r2,156(sp)
    53e4:	00801e04 	movi	r2,120
    53e8:	d8802745 	stb	r2,157(sp)
    53ec:	d9002a17 	ldw	r4,168(sp)
    53f0:	d8802e17 	ldw	r2,184(sp)
    53f4:	d8002785 	stb	zero,158(sp)
    53f8:	e011883a 	mov	r8,fp
    53fc:	10c00104 	addi	r3,r2,4
    5400:	14c00017 	ldw	r19,0(r2)
    5404:	002d883a 	mov	r22,zero
    5408:	80800094 	ori	r2,r16,2
    540c:	2002ca16 	blt	r4,zero,5f38 <___vfprintf_internal_r+0xe88>
    5410:	00bfdfc4 	movi	r2,-129
    5414:	80a4703a 	and	r18,r16,r2
    5418:	d8c02e15 	stw	r3,184(sp)
    541c:	94800094 	ori	r18,r18,2
    5420:	9802b41e 	bne	r19,zero,5ef4 <___vfprintf_internal_r+0xe44>
    5424:	01400074 	movhi	r5,1
    5428:	294c8904 	addi	r5,r5,12836
    542c:	d9403915 	stw	r5,228(sp)
    5430:	04401e04 	movi	r17,120
    5434:	d8802a17 	ldw	r2,168(sp)
    5438:	0039883a 	mov	fp,zero
    543c:	1001fa26 	beq	r2,zero,5c28 <___vfprintf_internal_r+0xb78>
    5440:	0027883a 	mov	r19,zero
